
xenalyze:     file format elf64-x86-64


Disassembly of section .init:

00000000000042f8 <_init>:
    42f8:	sub    rsp,0x8
    42fc:	mov    rax,QWORD PTR [rip+0x224cdd]        # 228fe0 <__gmon_start__>
    4303:	test   rax,rax
    4306:	je     430a <_init+0x12>
    4308:	call   rax
    430a:	add    rsp,0x8
    430e:	ret    

Disassembly of section .plt:

0000000000004310 <.plt>:
    4310:	push   QWORD PTR [rip+0x224b62]        # 228e78 <_GLOBAL_OFFSET_TABLE_+0x8>
    4316:	jmp    QWORD PTR [rip+0x224b64]        # 228e80 <_GLOBAL_OFFSET_TABLE_+0x10>
    431c:	nop    DWORD PTR [rax+0x0]

0000000000004320 <__snprintf_chk@plt>:
    4320:	jmp    QWORD PTR [rip+0x224b62]        # 228e88 <__snprintf_chk@GLIBC_2.3.4>
    4326:	push   0x0
    432b:	jmp    4310 <.plt>

0000000000004330 <free@plt>:
    4330:	jmp    QWORD PTR [rip+0x224b5a]        # 228e90 <free@GLIBC_2.2.5>
    4336:	push   0x1
    433b:	jmp    4310 <.plt>

0000000000004340 <putchar@plt>:
    4340:	jmp    QWORD PTR [rip+0x224b52]        # 228e98 <putchar@GLIBC_2.2.5>
    4346:	push   0x2
    434b:	jmp    4310 <.plt>

0000000000004350 <__errno_location@plt>:
    4350:	jmp    QWORD PTR [rip+0x224b4a]        # 228ea0 <__errno_location@GLIBC_2.2.5>
    4356:	push   0x3
    435b:	jmp    4310 <.plt>

0000000000004360 <strncpy@plt>:
    4360:	jmp    QWORD PTR [rip+0x224b42]        # 228ea8 <strncpy@GLIBC_2.2.5>
    4366:	push   0x4
    436b:	jmp    4310 <.plt>

0000000000004370 <__isoc99_fscanf@plt>:
    4370:	jmp    QWORD PTR [rip+0x224b3a]        # 228eb0 <__isoc99_fscanf@GLIBC_2.7>
    4376:	push   0x5
    437b:	jmp    4310 <.plt>

0000000000004380 <puts@plt>:
    4380:	jmp    QWORD PTR [rip+0x224b32]        # 228eb8 <puts@GLIBC_2.2.5>
    4386:	push   0x6
    438b:	jmp    4310 <.plt>

0000000000004390 <qsort@plt>:
    4390:	jmp    QWORD PTR [rip+0x224b2a]        # 228ec0 <qsort@GLIBC_2.2.5>
    4396:	push   0x7
    439b:	jmp    4310 <.plt>

00000000000043a0 <argp_state_help@plt>:
    43a0:	jmp    QWORD PTR [rip+0x224b22]        # 228ec8 <argp_state_help@GLIBC_2.2.5>
    43a6:	push   0x8
    43ab:	jmp    4310 <.plt>

00000000000043b0 <fclose@plt>:
    43b0:	jmp    QWORD PTR [rip+0x224b1a]        # 228ed0 <fclose@GLIBC_2.2.5>
    43b6:	push   0x9
    43bb:	jmp    4310 <.plt>

00000000000043c0 <__stack_chk_fail@plt>:
    43c0:	jmp    QWORD PTR [rip+0x224b12]        # 228ed8 <__stack_chk_fail@GLIBC_2.4>
    43c6:	push   0xa
    43cb:	jmp    4310 <.plt>

00000000000043d0 <mmap@plt>:
    43d0:	jmp    QWORD PTR [rip+0x224b0a]        # 228ee0 <mmap@GLIBC_2.2.5>
    43d6:	push   0xb
    43db:	jmp    4310 <.plt>

00000000000043e0 <dup2@plt>:
    43e0:	jmp    QWORD PTR [rip+0x224b02]        # 228ee8 <dup2@GLIBC_2.2.5>
    43e6:	push   0xc
    43eb:	jmp    4310 <.plt>

00000000000043f0 <snprintf@plt>:
    43f0:	jmp    QWORD PTR [rip+0x224afa]        # 228ef0 <snprintf@GLIBC_2.2.5>
    43f6:	push   0xd
    43fb:	jmp    4310 <.plt>

0000000000004400 <__assert_fail@plt>:
    4400:	jmp    QWORD PTR [rip+0x224af2]        # 228ef8 <__assert_fail@GLIBC_2.2.5>
    4406:	push   0xe
    440b:	jmp    4310 <.plt>

0000000000004410 <strtof@plt>:
    4410:	jmp    QWORD PTR [rip+0x224aea]        # 228f00 <strtof@GLIBC_2.2.5>
    4416:	push   0xf
    441b:	jmp    4310 <.plt>

0000000000004420 <memset@plt>:
    4420:	jmp    QWORD PTR [rip+0x224ae2]        # 228f08 <memset@GLIBC_2.2.5>
    4426:	push   0x10
    442b:	jmp    4310 <.plt>

0000000000004430 <pipe@plt>:
    4430:	jmp    QWORD PTR [rip+0x224ada]        # 228f10 <pipe@GLIBC_2.2.5>
    4436:	push   0x11
    443b:	jmp    4310 <.plt>

0000000000004440 <argp_parse@plt>:
    4440:	jmp    QWORD PTR [rip+0x224ad2]        # 228f18 <argp_parse@GLIBC_2.2.5>
    4446:	push   0x12
    444b:	jmp    4310 <.plt>

0000000000004450 <strtoull@plt>:
    4450:	jmp    QWORD PTR [rip+0x224aca]        # 228f20 <strtoull@GLIBC_2.2.5>
    4456:	push   0x13
    445b:	jmp    4310 <.plt>

0000000000004460 <calloc@plt>:
    4460:	jmp    QWORD PTR [rip+0x224ac2]        # 228f28 <calloc@GLIBC_2.2.5>
    4466:	push   0x14
    446b:	jmp    4310 <.plt>

0000000000004470 <feof@plt>:
    4470:	jmp    QWORD PTR [rip+0x224aba]        # 228f30 <feof@GLIBC_2.2.5>
    4476:	push   0x15
    447b:	jmp    4310 <.plt>

0000000000004480 <strtol@plt>:
    4480:	jmp    QWORD PTR [rip+0x224ab2]        # 228f38 <strtol@GLIBC_2.2.5>
    4486:	push   0x16
    448b:	jmp    4310 <.plt>

0000000000004490 <malloc@plt>:
    4490:	jmp    QWORD PTR [rip+0x224aaa]        # 228f40 <malloc@GLIBC_2.2.5>
    4496:	push   0x17
    449b:	jmp    4310 <.plt>

00000000000044a0 <fflush@plt>:
    44a0:	jmp    QWORD PTR [rip+0x224aa2]        # 228f48 <fflush@GLIBC_2.2.5>
    44a6:	push   0x18
    44ab:	jmp    4310 <.plt>

00000000000044b0 <__fxstat@plt>:
    44b0:	jmp    QWORD PTR [rip+0x224a9a]        # 228f50 <__fxstat@GLIBC_2.2.5>
    44b6:	push   0x19
    44bb:	jmp    4310 <.plt>

00000000000044c0 <realloc@plt>:
    44c0:	jmp    QWORD PTR [rip+0x224a92]        # 228f58 <realloc@GLIBC_2.2.5>
    44c6:	push   0x1a
    44cb:	jmp    4310 <.plt>

00000000000044d0 <fdopen@plt>:
    44d0:	jmp    QWORD PTR [rip+0x224a8a]        # 228f60 <fdopen@GLIBC_2.2.5>
    44d6:	push   0x1b
    44db:	jmp    4310 <.plt>

00000000000044e0 <munmap@plt>:
    44e0:	jmp    QWORD PTR [rip+0x224a82]        # 228f68 <munmap@GLIBC_2.2.5>
    44e6:	push   0x1c
    44eb:	jmp    4310 <.plt>

00000000000044f0 <__printf_chk@plt>:
    44f0:	jmp    QWORD PTR [rip+0x224a7a]        # 228f70 <__printf_chk@GLIBC_2.3.4>
    44f6:	push   0x1d
    44fb:	jmp    4310 <.plt>

0000000000004500 <memmove@plt>:
    4500:	jmp    QWORD PTR [rip+0x224a72]        # 228f78 <memmove@GLIBC_2.2.5>
    4506:	push   0x1e
    450b:	jmp    4310 <.plt>

0000000000004510 <open@plt>:
    4510:	jmp    QWORD PTR [rip+0x224a6a]        # 228f80 <open@GLIBC_2.2.5>
    4516:	push   0x1f
    451b:	jmp    4310 <.plt>

0000000000004520 <fopen@plt>:
    4520:	jmp    QWORD PTR [rip+0x224a62]        # 228f88 <fopen@GLIBC_2.2.5>
    4526:	push   0x20
    452b:	jmp    4310 <.plt>

0000000000004530 <perror@plt>:
    4530:	jmp    QWORD PTR [rip+0x224a5a]        # 228f90 <perror@GLIBC_2.2.5>
    4536:	push   0x21
    453b:	jmp    4310 <.plt>

0000000000004540 <exit@plt>:
    4540:	jmp    QWORD PTR [rip+0x224a52]        # 228f98 <exit@GLIBC_2.2.5>
    4546:	push   0x22
    454b:	jmp    4310 <.plt>

0000000000004550 <fwrite@plt>:
    4550:	jmp    QWORD PTR [rip+0x224a4a]        # 228fa0 <fwrite@GLIBC_2.2.5>
    4556:	push   0x23
    455b:	jmp    4310 <.plt>

0000000000004560 <__fprintf_chk@plt>:
    4560:	jmp    QWORD PTR [rip+0x224a42]        # 228fa8 <__fprintf_chk@GLIBC_2.3.4>
    4566:	push   0x24
    456b:	jmp    4310 <.plt>

0000000000004570 <execlp@plt>:
    4570:	jmp    QWORD PTR [rip+0x224a3a]        # 228fb0 <execlp@GLIBC_2.2.5>
    4576:	push   0x25
    457b:	jmp    4310 <.plt>

0000000000004580 <strerror@plt>:
    4580:	jmp    QWORD PTR [rip+0x224a32]        # 228fb8 <strerror@GLIBC_2.2.5>
    4586:	push   0x26
    458b:	jmp    4310 <.plt>

0000000000004590 <wait@plt>:
    4590:	jmp    QWORD PTR [rip+0x224a2a]        # 228fc0 <wait@GLIBC_2.2.5>
    4596:	push   0x27
    459b:	jmp    4310 <.plt>

00000000000045a0 <fork@plt>:
    45a0:	jmp    QWORD PTR [rip+0x224a22]        # 228fc8 <fork@GLIBC_2.2.5>
    45a6:	push   0x28
    45ab:	jmp    4310 <.plt>

Disassembly of section .plt.got:

00000000000045b0 <__cxa_finalize@plt>:
    45b0:	jmp    QWORD PTR [rip+0x224a3a]        # 228ff0 <__cxa_finalize@GLIBC_2.2.5>
    45b6:	xchg   ax,ax

Disassembly of section .text:

00000000000045c0 <vcpu_set_data_type.part.43>:
    45c0:	lea    rcx,[rip+0x1ed09]        # 232d0 <__PRETTY_FUNCTION__.8144>
    45c7:	lea    rsi,[rip+0x18aba]        # 1d088 <_IO_stdin_used+0xc8>
    45ce:	lea    rdi,[rip+0x18b32]        # 1d107 <_IO_stdin_used+0x147>
    45d5:	sub    rsp,0x8
    45d9:	mov    edx,0x2220
    45de:	call   4400 <__assert_fail@plt>
    45e3:	nop    WORD PTR cs:[rax+rax*1+0x0]
    45ed:	nop    DWORD PTR [rax]

00000000000045f0 <main>:
    45f0:	sub    rsp,0xa8
    45f7:	mov    rdx,rsi
    45fa:	mov    esi,edi
    45fc:	mov    rax,QWORD PTR fs:0x28
    4605:	mov    QWORD PTR [rsp+0x98],rax
    460d:	xor    eax,eax
    460f:	mov    rax,QWORD PTR [rip+0x227e2a]        # 22c440 <stderr@@GLIBC_2.2.5>
    4616:	lea    rdi,[rip+0x223d23]        # 228340 <parser_def>
    461d:	xor    r9d,r9d
    4620:	xor    r8d,r8d
    4623:	xor    ecx,ecx
    4625:	mov    QWORD PTR [rip+0x260c2c],rax        # 265258 <warn>
    462c:	call   4440 <argp_parse@plt>
    4631:	mov    rdi,QWORD PTR [rip+0x224b08]        # 229140 <G+0x20>
    4638:	test   rdi,rdi
    463b:	je     472a <main+0x13a>
    4641:	xor    esi,esi
    4643:	xor    eax,eax
    4645:	call   4510 <open@plt>
    464a:	test   eax,eax
    464c:	mov    DWORD PTR [rip+0x224ace],eax        # 229120 <G>
    4652:	js     4711 <main+0x121>
    4658:	mov    rdx,rsp
    465b:	mov    esi,eax
    465d:	mov    edi,0x1
    4662:	call   44b0 <__fxstat@plt>
    4667:	mov    rax,QWORD PTR [rsp+0x30]
    466c:	mov    QWORD PTR [rip+0x224add],rax        # 229150 <G+0x30>
    4673:	mov    edi,DWORD PTR [rip+0x224aa7]        # 229120 <G>
    4679:	call   1cc80 <mread_init>
    467e:	test   rax,rax
    4681:	mov    QWORD PTR [rip+0x224aa0],rax        # 229128 <G+0x8>
    4688:	je     4764 <main+0x174>
    468e:	mov    rdi,QWORD PTR [rip+0x224aa3]        # 229138 <G+0x18>
    4695:	test   rdi,rdi
    4698:	je     469f <main+0xaf>
    469a:	call   71f0 <parse_symbol_file>
    469f:	test   BYTE PTR [rip+0x2249fb],0x40        # 2290a1 <opt+0x1>
    46a6:	jne    4701 <main+0x111>
    46a8:	call   1bb50 <init_pcpus>
    46ad:	test   BYTE PTR [rip+0x2249ef],0x8        # 2290a3 <opt+0x3>
    46b4:	jne    475a <main+0x16a>
    46ba:	call   1b420 <process_records>
    46bf:	test   BYTE PTR [rip+0x2249db],0x20        # 2290a1 <opt+0x1>
    46c6:	jne    4750 <main+0x160>
    46cc:	movzx  eax,BYTE PTR [rip+0x2249d0]        # 2290a3 <opt+0x3>
    46d3:	test   al,0x20
    46d5:	jne    4742 <main+0x152>
    46d7:	test   al,0x40
    46d9:	jne    4734 <main+0x144>
    46db:	test   al,0x8
    46dd:	je     46e4 <main+0xf4>
    46df:	call   162e0 <progress_finish>
    46e4:	xor    eax,eax
    46e6:	mov    rcx,QWORD PTR [rsp+0x98]
    46ee:	xor    rcx,QWORD PTR fs:0x28
    46f7:	jne    4775 <main+0x185>
    46f9:	add    rsp,0xa8
    4700:	ret    
    4701:	mov    rax,QWORD PTR [rip+0x227d18]        # 22c420 <stdout@@GLIBC_2.2.5>
    4708:	mov    QWORD PTR [rip+0x260b49],rax        # 265258 <warn>
    470f:	jmp    46a8 <main+0xb8>
    4711:	lea    rdi,[rip+0x18a07]        # 1d11f <_IO_stdin_used+0x15f>
    4718:	call   4530 <perror@plt>
    471d:	cmp    DWORD PTR [rip+0x2249bc],0x7        # 2290e0 <opt+0x40>
    4724:	ja     4673 <main+0x83>
    472a:	mov    edi,0x1
    472f:	call   4540 <exit@plt>
    4734:	call   1b670 <report_pcpu>
    4739:	movzx  eax,BYTE PTR [rip+0x224963]        # 2290a3 <opt+0x3>
    4740:	jmp    46db <main+0xeb>
    4742:	call   1be00 <summary>
    4747:	movzx  eax,BYTE PTR [rip+0x224955]        # 2290a3 <opt+0x3>
    474e:	jmp    46d7 <main+0xe7>
    4750:	call   91c0 <interval_tail>
    4755:	jmp    46cc <main+0xdc>
    475a:	call   16130 <progress_init>
    475f:	jmp    46ba <main+0xca>
    4764:	lea    rdi,[rip+0x198d7]        # 1e042 <_IO_stdin_used+0x1082>
    476b:	call   4530 <perror@plt>
    4770:	jmp    468e <main+0x9e>
    4775:	call   43c0 <__stack_chk_fail@plt>
    477a:	nop    WORD PTR [rax+rax*1+0x0]

0000000000004780 <_start>:
    4780:	xor    ebp,ebp
    4782:	mov    r9,rdx
    4785:	pop    rsi
    4786:	mov    rdx,rsp
    4789:	and    rsp,0xfffffffffffffff0
    478d:	push   rax
    478e:	push   rsp
    478f:	lea    r8,[rip+0x1881a]        # 1cfb0 <__libc_csu_fini>
    4796:	lea    rcx,[rip+0x187a3]        # 1cf40 <__libc_csu_init>
    479d:	lea    rdi,[rip+0xfffffffffffffe4c]        # 45f0 <main>
    47a4:	call   QWORD PTR [rip+0x22482e]        # 228fd8 <__libc_start_main@GLIBC_2.2.5>
    47aa:	hlt    
    47ab:	nop    DWORD PTR [rax+rax*1+0x0]

00000000000047b0 <deregister_tm_clones>:
    47b0:	lea    rdi,[rip+0x227c69]        # 22c420 <stdout@@GLIBC_2.2.5>
    47b7:	push   rbp
    47b8:	lea    rax,[rip+0x227c61]        # 22c420 <stdout@@GLIBC_2.2.5>
    47bf:	cmp    rax,rdi
    47c2:	mov    rbp,rsp
    47c5:	je     47e0 <deregister_tm_clones+0x30>
    47c7:	mov    rax,QWORD PTR [rip+0x224802]        # 228fd0 <_ITM_deregisterTMCloneTable>
    47ce:	test   rax,rax
    47d1:	je     47e0 <deregister_tm_clones+0x30>
    47d3:	pop    rbp
    47d4:	jmp    rax
    47d6:	nop    WORD PTR cs:[rax+rax*1+0x0]
    47e0:	pop    rbp
    47e1:	ret    
    47e2:	nop    DWORD PTR [rax+0x0]
    47e6:	nop    WORD PTR cs:[rax+rax*1+0x0]

00000000000047f0 <register_tm_clones>:
    47f0:	lea    rdi,[rip+0x227c29]        # 22c420 <stdout@@GLIBC_2.2.5>
    47f7:	lea    rsi,[rip+0x227c22]        # 22c420 <stdout@@GLIBC_2.2.5>
    47fe:	push   rbp
    47ff:	sub    rsi,rdi
    4802:	mov    rbp,rsp
    4805:	sar    rsi,0x3
    4809:	mov    rax,rsi
    480c:	shr    rax,0x3f
    4810:	add    rsi,rax
    4813:	sar    rsi,1
    4816:	je     4830 <register_tm_clones+0x40>
    4818:	mov    rax,QWORD PTR [rip+0x2247c9]        # 228fe8 <_ITM_registerTMCloneTable>
    481f:	test   rax,rax
    4822:	je     4830 <register_tm_clones+0x40>
    4824:	pop    rbp
    4825:	jmp    rax
    4827:	nop    WORD PTR [rax+rax*1+0x0]
    4830:	pop    rbp
    4831:	ret    
    4832:	nop    DWORD PTR [rax+0x0]
    4836:	nop    WORD PTR cs:[rax+rax*1+0x0]

0000000000004840 <__do_global_dtors_aux>:
    4840:	cmp    BYTE PTR [rip+0x227c01],0x0        # 22c448 <completed.7697>
    4847:	jne    4878 <__do_global_dtors_aux+0x38>
    4849:	cmp    QWORD PTR [rip+0x22479f],0x0        # 228ff0 <__cxa_finalize@GLIBC_2.2.5>
    4851:	push   rbp
    4852:	mov    rbp,rsp
    4855:	je     4863 <__do_global_dtors_aux+0x23>
    4857:	mov    rdi,QWORD PTR [rip+0x2247aa]        # 229008 <__dso_handle>
    485e:	call   45b0 <__cxa_finalize@plt>
    4863:	call   47b0 <deregister_tm_clones>
    4868:	mov    BYTE PTR [rip+0x227bd9],0x1        # 22c448 <completed.7697>
    486f:	pop    rbp
    4870:	ret    
    4871:	nop    DWORD PTR [rax+0x0]
    4878:	repz ret 
    487a:	nop    WORD PTR [rax+rax*1+0x0]

0000000000004880 <frame_dummy>:
    4880:	push   rbp
    4881:	mov    rbp,rsp
    4884:	pop    rbp
    4885:	jmp    47f0 <register_tm_clones>
    488a:	nop    WORD PTR [rax+rax*1+0x0]

0000000000004890 <cr3_time_compare>:
    4890:	mov    rcx,QWORD PTR [rdi]
    4893:	mov    rdx,QWORD PTR [rsi]
    4896:	mov    eax,0x1
    489b:	mov    rsi,QWORD PTR [rdx+0x60]
    489f:	cmp    QWORD PTR [rcx+0x60],rsi
    48a3:	jl     48c5 <cr3_time_compare+0x35>
    48a5:	jne    48c0 <cr3_time_compare+0x30>
    48a7:	mov    edx,DWORD PTR [rdx+0x58]
    48aa:	cmp    DWORD PTR [rcx+0x58],edx
    48ad:	jl     48c5 <cr3_time_compare+0x35>
    48af:	setne  al
    48b2:	movzx  eax,al
    48b5:	neg    eax
    48b7:	ret    
    48b8:	nop    DWORD PTR [rax+rax*1+0x0]
    48c0:	mov    eax,0xffffffff
    48c5:	repz ret 
    48c7:	nop    WORD PTR [rax+rax*1+0x0]

00000000000048d0 <eip_compare>:
    48d0:	mov    rcx,QWORD PTR [rdi]
    48d3:	mov    rdx,QWORD PTR [rsi]
    48d6:	mov    eax,0x1
    48db:	mov    rsi,QWORD PTR [rdx+0x20]
    48df:	cmp    QWORD PTR [rcx+0x20],rsi
    48e3:	jb     4905 <eip_compare+0x35>
    48e5:	jne    4900 <eip_compare+0x30>
    48e7:	mov    edx,DWORD PTR [rdx+0x14]
    48ea:	cmp    DWORD PTR [rcx+0x14],edx
    48ed:	jl     4905 <eip_compare+0x35>
    48ef:	setne  al
    48f2:	movzx  eax,al
    48f5:	neg    eax
    48f7:	ret    
    48f8:	nop    DWORD PTR [rax+rax*1+0x0]
    4900:	mov    eax,0xffffffff
    4905:	repz ret 
    4907:	nop    WORD PTR [rax+rax*1+0x0]

0000000000004910 <cr3_compare_start>:
    4910:	mov    rcx,QWORD PTR [rdi]
    4913:	mov    rdx,QWORD PTR [rsi]
    4916:	mov    eax,0x1
    491b:	mov    rdx,QWORD PTR [rdx+0x20]
    491f:	cmp    QWORD PTR [rcx+0x20],rdx
    4923:	ja     492d <cr3_compare_start+0x1d>
    4925:	setne  al
    4928:	movzx  eax,al
    492b:	neg    eax
    492d:	repz ret 
    492f:	nop

0000000000004930 <hvm_msr_write_summary>:
    4930:	repz ret 
    4932:	nop    DWORD PTR [rax+0x0]
    4936:	nop    WORD PTR cs:[rax+rax*1+0x0]

0000000000004940 <hvm_intr_summary>:
    4940:	push   r12
    4942:	lea    r12,[rip+0x2250f7]        # 229a40 <hvm_extint_vector_name>
    4949:	push   rbp
    494a:	mov    rbp,rdi
    494d:	push   rbx
    494e:	xor    ebx,ebx
    4950:	jmp    497a <hvm_intr_summary+0x3a>
    4952:	nop    WORD PTR [rax+rax*1+0x0]
    4958:	lea    rsi,[rip+0x18665]        # 1cfc4 <_IO_stdin_used+0x4>
    495f:	mov    ecx,ebx
    4961:	mov    edi,0x1
    4966:	xor    eax,eax
    4968:	call   44f0 <__printf_chk@plt>
    496d:	add    rbx,0x1
    4971:	cmp    rbx,0x100
    4978:	je     49b8 <hvm_intr_summary+0x78>
    497a:	mov    r8d,DWORD PTR [rbp+rbx*4+0x10068]
    4982:	test   r8d,r8d
    4985:	je     496d <hvm_intr_summary+0x2d>
    4987:	mov    rdx,QWORD PTR [r12+rbx*8]
    498b:	test   rdx,rdx
    498e:	jne    4958 <hvm_intr_summary+0x18>
    4990:	lea    rsi,[rip+0x1863e]        # 1cfd5 <_IO_stdin_used+0x15>
    4997:	mov    edx,ebx
    4999:	xor    eax,eax
    499b:	mov    ecx,r8d
    499e:	mov    edi,0x1
    49a3:	add    rbx,0x1
    49a7:	call   44f0 <__printf_chk@plt>
    49ac:	cmp    rbx,0x100
    49b3:	jne    497a <hvm_intr_summary+0x3a>
    49b5:	nop    DWORD PTR [rax]
    49b8:	mov    edx,DWORD PTR [rbp+0x10468]
    49be:	test   edx,edx
    49c0:	jne    49c7 <hvm_intr_summary+0x87>
    49c2:	pop    rbx
    49c3:	pop    rbp
    49c4:	pop    r12
    49c6:	ret    
    49c7:	pop    rbx
    49c8:	pop    rbp
    49c9:	pop    r12
    49cb:	lea    rsi,[rip+0x1861a]        # 1cfec <_IO_stdin_used+0x2c>
    49d2:	mov    edi,0x1
    49d7:	xor    eax,eax
    49d9:	jmp    44f0 <__printf_chk@plt>
    49de:	xchg   ax,ax

00000000000049e0 <cmd_to_str.part.4>:
    49e0:	mov    r9d,edi
    49e3:	lea    r8,[rip+0x18619]        # 1d003 <_IO_stdin_used+0x43>
    49ea:	lea    rdi,[rip+0x26088f]        # 265280 <buf.7301>
    49f1:	sub    rsp,0x8
    49f5:	mov    ecx,0x20
    49fa:	mov    edx,0x1
    49ff:	mov    esi,0x20
    4a04:	xor    eax,eax
    4a06:	call   4320 <__snprintf_chk@plt>
    4a0b:	lea    rax,[rip+0x26086e]        # 265280 <buf.7301>
    4a12:	add    rsp,0x8
    4a16:	ret    
    4a17:	nop    WORD PTR [rax+rax*1+0x0]

0000000000004a20 <update_cycles.part.5>:
    4a20:	push   r12
    4a22:	mov    edx,DWORD PTR [rip+0x2246b0]        # 2290d8 <opt+0x38>
    4a28:	push   rbp
    4a29:	push   rbx
    4a2a:	mov    rbp,rsi
    4a2d:	movsxd rcx,DWORD PTR [rdi+0x4]
    4a31:	mov    rbx,rdi
    4a34:	test   edx,edx
    4a36:	mov    eax,ecx
    4a38:	je     4ad5 <update_cycles.part.5+0xb5>
    4a3e:	mov    eax,DWORD PTR [rdi+0x8]
    4a41:	cmp    eax,ecx
    4a43:	jg     4af0 <update_cycles.part.5+0xd0>
    4a49:	test   ecx,ecx
    4a4b:	mov    r12d,DWORD PTR [rip+0x22468a]        # 2290dc <opt+0x3c>
    4a52:	je     4a62 <update_cycles.part.5+0x42>
    4a54:	test   r12d,r12d
    4a57:	je     4a62 <update_cycles.part.5+0x42>
    4a59:	cmp    eax,r12d
    4a5c:	jge    4b20 <update_cycles.part.5+0x100>
    4a62:	add    eax,eax
    4a64:	cmovne edx,eax
    4a67:	test   r12d,r12d
    4a6a:	je     4b00 <update_cycles.part.5+0xe0>
    4a70:	cmp    edx,r12d
    4a73:	jle    4b00 <update_cycles.part.5+0xe0>
    4a79:	mov    rdi,QWORD PTR [rbx+0x18]
    4a7d:	movsxd rsi,r12d
    4a80:	shl    rsi,0x3
    4a84:	call   44c0 <realloc@plt>
    4a89:	test   rax,rax
    4a8c:	je     4b10 <update_cycles.part.5+0xf0>
    4a92:	mov    QWORD PTR [rbx+0x18],rax
    4a96:	mov    DWORD PTR [rbx+0x8],r12d
    4a9a:	movsxd rcx,DWORD PTR [rbx+0x4]
    4a9e:	cmp    ecx,r12d
    4aa1:	jl     4af0 <update_cycles.part.5+0xd0>
    4aa3:	mov    eax,ecx
    4aa5:	cdq    
    4aa6:	idiv   r12d
    4aa9:	lea    esi,[rax+0x1]
    4aac:	movsxd rdi,edx
    4aaf:	mov    edx,0x55555556
    4ab4:	mov    eax,esi
    4ab6:	imul   edx
    4ab8:	mov    eax,esi
    4aba:	sar    eax,0x1f
    4abd:	sub    eax,edx
    4abf:	add    eax,edi
    4ac1:	cdq    
    4ac2:	idiv   esi
    4ac4:	mov    eax,ecx
    4ac6:	test   edx,edx
    4ac8:	jne    4ad5 <update_cycles.part.5+0xb5>
    4aca:	mov    rax,QWORD PTR [rbx+0x18]
    4ace:	mov    QWORD PTR [rax+rdi*8],rbp
    4ad2:	mov    eax,DWORD PTR [rbx+0x4]
    4ad5:	add    eax,0x1
    4ad8:	add    QWORD PTR [rbx+0x10],rbp
    4adc:	add    QWORD PTR [rbx+0x28],rbp
    4ae0:	mov    DWORD PTR [rbx+0x4],eax
    4ae3:	add    DWORD PTR [rbx+0x20],0x1
    4ae7:	pop    rbx
    4ae8:	pop    rbp
    4ae9:	pop    r12
    4aeb:	ret    
    4aec:	nop    DWORD PTR [rax+0x0]
    4af0:	mov    rax,QWORD PTR [rbx+0x18]
    4af4:	mov    QWORD PTR [rax+rcx*8],rbp
    4af8:	mov    eax,DWORD PTR [rbx+0x4]
    4afb:	jmp    4ad5 <update_cycles.part.5+0xb5>
    4afd:	nop    DWORD PTR [rax]
    4b00:	mov    r12d,edx
    4b03:	jmp    4a79 <update_cycles.part.5+0x59>
    4b08:	nop    DWORD PTR [rax+rax*1+0x0]
    4b10:	mov    r12d,DWORD PTR [rbx+0x8]
    4b14:	jmp    4a9a <update_cycles.part.5+0x7a>
    4b16:	nop    WORD PTR cs:[rax+rax*1+0x0]
    4b20:	mov    r12d,eax
    4b23:	jmp    4aa3 <update_cycles.part.5+0x83>
    4b28:	nop    DWORD PTR [rax+rax*1+0x0]

0000000000004b30 <percentile.part.6>:
    4b30:	imul   edx,esi
    4b33:	push   r14
    4b35:	push   r13
    4b37:	push   r12
    4b39:	push   rbp
    4b3a:	lea    ebp,[rsi-0x1]
    4b3d:	push   rbx
    4b3e:	mov    ecx,edx
    4b40:	mov    edx,0x51eb851f
    4b45:	mov    eax,ecx
    4b47:	sar    ecx,0x1f
    4b4a:	imul   edx
    4b4c:	sar    edx,0x5
    4b4f:	sub    edx,ecx
    4b51:	test   ebp,ebp
    4b53:	movsxd rax,edx
    4b56:	lea    r14,[rdi+rax*8]
    4b5a:	jle    4bd9 <percentile.part.6+0xa9>
    4b5c:	mov    r13,rax
    4b5f:	xor    r12d,r12d
    4b62:	nop    WORD PTR [rax+rax*1+0x0]
    4b68:	movsxd rdx,r12d
    4b6b:	mov    r10,QWORD PTR [r14]
    4b6e:	movsxd rax,ebp
    4b71:	lea    r11,[rdi+rdx*8]
    4b75:	mov    esi,r12d
    4b78:	mov    rcx,QWORD PTR [rdi+rax*8]
    4b7c:	mov    edx,ebp
    4b7e:	mov    ebx,esi
    4b80:	mov    r9,QWORD PTR [r11]
    4b83:	cmp    r10,r9
    4b86:	jle    4ba1 <percentile.part.6+0x71>
    4b88:	nop    DWORD PTR [rax+rax*1+0x0]
    4b90:	add    esi,0x1
    4b93:	add    r11,0x8
    4b97:	mov    r9,QWORD PTR [r11]
    4b9a:	mov    ebx,esi
    4b9c:	cmp    r10,r9
    4b9f:	jg     4b90 <percentile.part.6+0x60>
    4ba1:	cmp    r10,rcx
    4ba4:	jge    4c08 <percentile.part.6+0xd8>
    4ba6:	lea    rax,[rdi+rax*8-0x8]
    4bab:	nop    DWORD PTR [rax+rax*1+0x0]
    4bb0:	mov    r8,rax
    4bb3:	sub    rax,0x8
    4bb7:	mov    rcx,QWORD PTR [rax+0x8]
    4bbb:	sub    edx,0x1
    4bbe:	cmp    r10,rcx
    4bc1:	jl     4bb0 <percentile.part.6+0x80>
    4bc3:	cmp    esi,edx
    4bc5:	jle    4be8 <percentile.part.6+0xb8>
    4bc7:	cmp    r13d,edx
    4bca:	cmovg  r12d,ebx
    4bce:	cmp    r13d,ebx
    4bd1:	cmovl  ebp,edx
    4bd4:	cmp    ebp,r12d
    4bd7:	jg     4b68 <percentile.part.6+0x38>
    4bd9:	pop    rbx
    4bda:	mov    rax,QWORD PTR [r14]
    4bdd:	pop    rbp
    4bde:	pop    r12
    4be0:	pop    r13
    4be2:	pop    r14
    4be4:	ret    
    4be5:	nop    DWORD PTR [rax]
    4be8:	add    esi,0x1
    4beb:	sub    edx,0x1
    4bee:	mov    QWORD PTR [r11],rcx
    4bf1:	cmp    edx,esi
    4bf3:	mov    QWORD PTR [r8],r9
    4bf6:	mov    ebx,esi
    4bf8:	jl     4bc7 <percentile.part.6+0x97>
    4bfa:	movsxd rax,edx
    4bfd:	mov    rcx,QWORD PTR [rdi+rax*8]
    4c01:	jmp    4b93 <percentile.part.6+0x63>
    4c03:	nop    DWORD PTR [rax+rax*1+0x0]
    4c08:	lea    r8,[rdi+rax*8]
    4c0c:	jmp    4bc3 <percentile.part.6+0x93>
    4c0e:	xchg   ax,ax

0000000000004c10 <hvm_pf_xen_summary>:
    4c10:	push   r15
    4c12:	push   r14
    4c14:	push   r13
    4c16:	push   r12
    4c18:	push   rbp
    4c19:	push   rbx
    4c1a:	mov    rbx,rdi
    4c1d:	lea    r12,[rbx+0x108d8]
    4c24:	sub    rsp,0x38
    4c28:	mov    QWORD PTR [rsp+0x10],rdi
    4c2d:	lea    rdi,[rip+0x183dc]        # 1d010 <_IO_stdin_used+0x50>
    4c34:	call   4380 <puts@plt>
    4c39:	mov    QWORD PTR [rsp+0x8],0x0
    4c42:	jmp    4d6a <hvm_pf_xen_summary+0x15a>
    4c47:	nop    WORD PTR [rax+rax*1+0x0]
    4c50:	test   eax,eax
    4c52:	je     4d34 <hvm_pf_xen_summary+0x124>
    4c58:	mov    eax,DWORD PTR [rip+0x22447a]        # 2290d8 <opt+0x38>
    4c5e:	test   eax,eax
    4c60:	je     5800 <hvm_pf_xen_summary+0xbf0>
    4c66:	mov    esi,DWORD PTR [r12+0x4]
    4c6b:	cmp    DWORD PTR [r12+0x8],esi
    4c70:	cmovle esi,DWORD PTR [r12+0x8]
    4c76:	test   esi,esi
    4c78:	mov    ebp,esi
    4c7a:	jne    5930 <hvm_pf_xen_summary+0xd20>
    4c80:	xor    ebp,ebp
    4c82:	xor    ebx,ebx
    4c84:	xor    r13d,r13d
    4c87:	lea    rax,[rip+0x2248d2]        # 229560 <pf_xen_name>
    4c8e:	lea    rsi,[rip+0x18389]        # 1d01e <_IO_stdin_used+0x5e>
    4c95:	mov    edi,0x1
    4c9a:	mov    rdx,QWORD PTR [rax+r15*1]
    4c9e:	xor    eax,eax
    4ca0:	call   44f0 <__printf_chk@plt>
    4ca5:	mov    eax,DWORD PTR [r12+0x4]
    4caa:	xor    ecx,ecx
    4cac:	mov    rsi,QWORD PTR [r12+0x10]
    4cb1:	test   eax,eax
    4cb3:	je     4cc3 <hvm_pf_xen_summary+0xb3>
    4cb5:	movsxd rcx,eax
    4cb8:	xor    edx,edx
    4cba:	mov    rax,rsi
    4cbd:	div    rcx
    4cc0:	mov    rcx,rax
    4cc3:	lea    rdx,[rsi+rsi*4]
    4cc7:	pxor   xmm1,xmm1
    4ccb:	pxor   xmm0,xmm0
    4ccf:	lea    rdx,[rdx+rdx*4]
    4cd3:	shl    rdx,0x2
    4cd7:	test   rsi,rsi
    4cda:	cvtsi2sd xmm0,QWORD PTR [rip+0x2284ed]        # 22d1d0 <P+0x30>
    4ce3:	cvtsi2sd xmm1,rdx
    4ce8:	divsd  xmm1,xmm0
    4cec:	js     58e0 <hvm_pf_xen_summary+0xcd0>
    4cf2:	pxor   xmm0,xmm0
    4cf6:	cvtsi2sd xmm0,rsi
    4cfb:	pxor   xmm2,xmm2
    4cff:	sub    rsp,0x8
    4d03:	mov    r9,r13
    4d06:	push   rbp
    4d07:	cvtsi2sd xmm2,QWORD PTR [rip+0x2243a0]        # 2290b0 <opt+0x10>
    4d10:	divsd  xmm0,xmm2
    4d14:	mov    edx,DWORD PTR [r12]
    4d18:	lea    rsi,[rip+0x1aab9]        # 1f7d8 <_IO_stdin_used+0x2818>
    4d1f:	mov    r8,rbx
    4d22:	mov    edi,0x1
    4d27:	mov    eax,0x2
    4d2c:	call   44f0 <__printf_chk@plt>
    4d31:	pop    r15
    4d33:	pop    rax
    4d34:	cmp    r14d,0x8
    4d38:	je     5380 <hvm_pf_xen_summary+0x770>
    4d3e:	cmp    r14d,0xc
    4d42:	je     5270 <hvm_pf_xen_summary+0x660>
    4d48:	cmp    r14d,0x6
    4d4c:	je     4e58 <hvm_pf_xen_summary+0x248>
    4d52:	cmp    DWORD PTR [rsp+0x8],0xd
    4d57:	je     5970 <hvm_pf_xen_summary+0xd60>
    4d5d:	nop    DWORD PTR [rax]
    4d60:	add    QWORD PTR [rsp+0x8],0x1
    4d66:	add    r12,0x38
    4d6a:	mov    rax,QWORD PTR [rsp+0x8]
    4d6f:	lea    rdi,[rip+0x2247ea]        # 229560 <pf_xen_name>
    4d76:	mov    rdx,QWORD PTR [rdi+rax*8]
    4d7a:	mov    r14d,eax
    4d7d:	lea    r15,[rax*8+0x0]
    4d85:	mov    eax,DWORD PTR [r12]
    4d89:	test   rdx,rdx
    4d8c:	jne    4c50 <hvm_pf_xen_summary+0x40>
    4d92:	test   eax,eax
    4d94:	je     4d34 <hvm_pf_xen_summary+0x124>
    4d96:	mov    eax,DWORD PTR [rip+0x22433c]        # 2290d8 <opt+0x38>
    4d9c:	test   eax,eax
    4d9e:	je     5900 <hvm_pf_xen_summary+0xcf0>
    4da4:	mov    esi,DWORD PTR [r12+0x4]
    4da9:	cmp    DWORD PTR [r12+0x8],esi
    4dae:	cmovle esi,DWORD PTR [r12+0x8]
    4db4:	test   esi,esi
    4db6:	mov    r13d,esi
    4db9:	jne    59de <hvm_pf_xen_summary+0xdce>
    4dbf:	xor    r13d,r13d
    4dc2:	xor    ebx,ebx
    4dc4:	xor    ebp,ebp
    4dc6:	lea    rsi,[rip+0x1825d]        # 1d02a <_IO_stdin_used+0x6a>
    4dcd:	xor    eax,eax
    4dcf:	mov    edx,r14d
    4dd2:	mov    edi,0x1
    4dd7:	call   44f0 <__printf_chk@plt>
    4ddc:	mov    eax,DWORD PTR [r12+0x4]
    4de1:	xor    ecx,ecx
    4de3:	mov    rsi,QWORD PTR [r12+0x10]
    4de8:	test   eax,eax
    4dea:	je     4dfa <hvm_pf_xen_summary+0x1ea>
    4dec:	movsxd rcx,eax
    4def:	xor    edx,edx
    4df1:	mov    rax,rsi
    4df4:	div    rcx
    4df7:	mov    rcx,rax
    4dfa:	lea    rdx,[rsi+rsi*4]
    4dfe:	pxor   xmm1,xmm1
    4e02:	pxor   xmm0,xmm0
    4e06:	lea    rdx,[rdx+rdx*4]
    4e0a:	shl    rdx,0x2
    4e0e:	test   rsi,rsi
    4e11:	cvtsi2sd xmm0,QWORD PTR [rip+0x2283b6]        # 22d1d0 <P+0x30>
    4e1a:	cvtsi2sd xmm1,rdx
    4e1f:	divsd  xmm1,xmm0
    4e23:	js     59c0 <hvm_pf_xen_summary+0xdb0>
    4e29:	pxor   xmm0,xmm0
    4e2d:	cvtsi2sd xmm0,rsi
    4e32:	pxor   xmm2,xmm2
    4e36:	sub    rsp,0x8
    4e3a:	mov    r9,rbp
    4e3d:	push   r13
    4e3f:	cvtsi2sd xmm2,QWORD PTR [rip+0x224268]        # 2290b0 <opt+0x10>
    4e48:	divsd  xmm0,xmm2
    4e4c:	jmp    4d14 <hvm_pf_xen_summary+0x104>
    4e51:	nop    DWORD PTR [rax+0x0]
    4e58:	mov    rax,QWORD PTR [rsp+0x10]
    4e5d:	xor    ebp,ebp
    4e5f:	lea    r14,[rip+0x22477a]        # 2295e0 <pf_xen_fixup_name>
    4e66:	mov    QWORD PTR [rsp+0x18],r12
    4e6b:	lea    rbx,[rax+0x110f0]
    4e72:	jmp    4f5c <hvm_pf_xen_summary+0x34c>
    4e77:	nop    WORD PTR [rax+rax*1+0x0]
    4e80:	mov    esi,DWORD PTR [rbx+0x4]
    4e83:	cmp    DWORD PTR [rbx+0x8],esi
    4e86:	cmovle esi,DWORD PTR [rbx+0x8]
    4e8a:	test   esi,esi
    4e8c:	mov    r15d,esi
    4e8f:	jne    56c0 <hvm_pf_xen_summary+0xab0>
    4e95:	xor    r15d,r15d
    4e98:	xor    r13d,r13d
    4e9b:	xor    r12d,r12d
    4e9e:	mov    rdx,QWORD PTR [r14+rbp*8]
    4ea2:	lea    rsi,[rip+0x1818e]        # 1d037 <_IO_stdin_used+0x77>
    4ea9:	xor    eax,eax
    4eab:	mov    edi,0x1
    4eb0:	call   44f0 <__printf_chk@plt>
    4eb5:	mov    eax,DWORD PTR [rbx+0x4]
    4eb8:	xor    ecx,ecx
    4eba:	mov    rsi,QWORD PTR [rbx+0x10]
    4ebe:	test   eax,eax
    4ec0:	je     4ed0 <hvm_pf_xen_summary+0x2c0>
    4ec2:	movsxd rcx,eax
    4ec5:	xor    edx,edx
    4ec7:	mov    rax,rsi
    4eca:	div    rcx
    4ecd:	mov    rcx,rax
    4ed0:	lea    rdx,[rsi+rsi*4]
    4ed4:	pxor   xmm1,xmm1
    4ed8:	pxor   xmm0,xmm0
    4edc:	lea    rdx,[rdx+rdx*4]
    4ee0:	shl    rdx,0x2
    4ee4:	test   rsi,rsi
    4ee7:	cvtsi2sd xmm0,QWORD PTR [rip+0x2282e0]        # 22d1d0 <P+0x30>
    4ef0:	cvtsi2sd xmm1,rdx
    4ef5:	divsd  xmm1,xmm0
    4ef9:	js     5238 <hvm_pf_xen_summary+0x628>
    4eff:	pxor   xmm0,xmm0
    4f03:	cvtsi2sd xmm0,rsi
    4f08:	pxor   xmm2,xmm2
    4f0c:	sub    rsp,0x8
    4f10:	lea    rsi,[rip+0x1a8c1]        # 1f7d8 <_IO_stdin_used+0x2818>
    4f17:	push   r15
    4f19:	mov    edx,DWORD PTR [rbx]
    4f1b:	mov    r9,r12
    4f1e:	mov    r8,r13
    4f21:	mov    edi,0x1
    4f26:	mov    eax,0x2
    4f2b:	cvtsi2sd xmm2,QWORD PTR [rip+0x22417c]        # 2290b0 <opt+0x10>
    4f34:	divsd  xmm0,xmm2
    4f38:	call   44f0 <__printf_chk@plt>
    4f3d:	pop    r11
    4f3f:	pop    r12
    4f41:	cmp    rbp,0x2
    4f45:	je     5011 <hvm_pf_xen_summary+0x401>
    4f4b:	cmp    ebp,0x8
    4f4e:	je     5260 <hvm_pf_xen_summary+0x650>
    4f54:	add    rbp,0x1
    4f58:	add    rbx,0x38
    4f5c:	mov    r15d,DWORD PTR [rbx]
    4f5f:	test   r15d,r15d
    4f62:	je     4f41 <hvm_pf_xen_summary+0x331>
    4f64:	mov    r13d,DWORD PTR [rip+0x22416d]        # 2290d8 <opt+0x38>
    4f6b:	test   r13d,r13d
    4f6e:	jne    4e80 <hvm_pf_xen_summary+0x270>
    4f74:	mov    rdx,QWORD PTR [r14+rbp*8]
    4f78:	lea    rsi,[rip+0x180b8]        # 1d037 <_IO_stdin_used+0x77>
    4f7f:	xor    eax,eax
    4f81:	mov    edi,0x1
    4f86:	call   44f0 <__printf_chk@plt>
    4f8b:	mov    eax,DWORD PTR [rbx+0x4]
    4f8e:	xor    ecx,ecx
    4f90:	mov    rsi,QWORD PTR [rbx+0x10]
    4f94:	test   eax,eax
    4f96:	je     4fa6 <hvm_pf_xen_summary+0x396>
    4f98:	movsxd rcx,eax
    4f9b:	xor    edx,edx
    4f9d:	mov    rax,rsi
    4fa0:	div    rcx
    4fa3:	mov    rcx,rax
    4fa6:	lea    rdx,[rsi+rsi*4]
    4faa:	pxor   xmm1,xmm1
    4fae:	pxor   xmm0,xmm0
    4fb2:	lea    rdx,[rdx+rdx*4]
    4fb6:	shl    rdx,0x2
    4fba:	test   rsi,rsi
    4fbd:	cvtsi2sd xmm0,QWORD PTR [rip+0x22820a]        # 22d1d0 <P+0x30>
    4fc6:	cvtsi2sd xmm1,rdx
    4fcb:	divsd  xmm1,xmm0
    4fcf:	js     57c0 <hvm_pf_xen_summary+0xbb0>
    4fd5:	pxor   xmm0,xmm0
    4fd9:	cvtsi2sd xmm0,rsi
    4fde:	pxor   xmm2,xmm2
    4fe2:	mov    edx,DWORD PTR [rbx]
    4fe4:	lea    rsi,[rip+0x1a825]        # 1f810 <_IO_stdin_used+0x2850>
    4feb:	mov    edi,0x1
    4ff0:	mov    eax,0x2
    4ff5:	cvtsi2sd xmm2,QWORD PTR [rip+0x2240b2]        # 2290b0 <opt+0x10>
    4ffe:	divsd  xmm0,xmm2
    5002:	call   44f0 <__printf_chk@plt>
    5007:	cmp    rbp,0x2
    500b:	jne    4f4b <hvm_pf_xen_summary+0x33b>
    5011:	mov    rax,QWORD PTR [rsp+0x10]
    5016:	xor    r13d,r13d
    5019:	lea    r15,[rax+0x112e8]
    5020:	mov    r12,r15
    5023:	mov    r10d,DWORD PTR [r12]
    5027:	test   r10d,r10d
    502a:	je     511a <hvm_pf_xen_summary+0x50a>
    5030:	mov    r9d,DWORD PTR [rip+0x2240a1]        # 2290d8 <opt+0x38>
    5037:	test   r9d,r9d
    503a:	je     5b3a <hvm_pf_xen_summary+0xf2a>
    5040:	mov    ecx,DWORD PTR [r12+0x4]
    5045:	cmp    DWORD PTR [r12+0x8],ecx
    504a:	cmovle ecx,DWORD PTR [r12+0x8]
    5050:	test   ecx,ecx
    5052:	mov    r15d,ecx
    5055:	jne    5c4a <hvm_pf_xen_summary+0x103a>
    505b:	xor    r15d,r15d
    505e:	mov    QWORD PTR [rsp+0x28],0x0
    5067:	mov    QWORD PTR [rsp+0x20],0x0
    5070:	lea    rsi,[rip+0x17fdd]        # 1d054 <_IO_stdin_used+0x94>
    5077:	xor    eax,eax
    5079:	mov    edx,r13d
    507c:	mov    edi,0x1
    5081:	call   44f0 <__printf_chk@plt>
    5086:	mov    eax,DWORD PTR [r12+0x4]
    508b:	xor    ecx,ecx
    508d:	mov    rsi,QWORD PTR [r12+0x10]
    5092:	test   eax,eax
    5094:	je     50a4 <hvm_pf_xen_summary+0x494>
    5096:	movsxd rcx,eax
    5099:	xor    edx,edx
    509b:	mov    rax,rsi
    509e:	div    rcx
    50a1:	mov    rcx,rax
    50a4:	lea    rax,[rsi+rsi*4]
    50a8:	pxor   xmm1,xmm1
    50ac:	pxor   xmm0,xmm0
    50b0:	lea    rdx,[rax+rax*4]
    50b4:	shl    rdx,0x2
    50b8:	test   rsi,rsi
    50bb:	cvtsi2sd xmm0,QWORD PTR [rip+0x22810c]        # 22d1d0 <P+0x30>
    50c4:	cvtsi2sd xmm1,rdx
    50c9:	divsd  xmm1,xmm0
    50cd:	js     5c2c <hvm_pf_xen_summary+0x101c>
    50d3:	pxor   xmm0,xmm0
    50d7:	cvtsi2sd xmm0,rsi
    50dc:	pxor   xmm2,xmm2
    50e0:	sub    rsp,0x8
    50e4:	lea    rsi,[rip+0x1a6ed]        # 1f7d8 <_IO_stdin_used+0x2818>
    50eb:	push   r15
    50ed:	mov    r9,QWORD PTR [rsp+0x30]
    50f2:	mov    edi,0x1
    50f7:	mov    r8,QWORD PTR [rsp+0x38]
    50fc:	mov    edx,DWORD PTR [r12]
    5100:	mov    eax,0x2
    5105:	cvtsi2sd xmm2,QWORD PTR [rip+0x223fa2]        # 2290b0 <opt+0x10>
    510e:	divsd  xmm0,xmm2
    5112:	call   44f0 <__printf_chk@plt>
    5117:	pop    rdi
    5118:	pop    r8
    511a:	add    r12,0x38
    511e:	cmp    r13d,0x1
    5122:	jne    5ad1 <hvm_pf_xen_summary+0xec1>
    5128:	mov    rax,QWORD PTR [rsp+0x10]
    512d:	mov    esi,DWORD PTR [rax+0x11358]
    5133:	test   esi,esi
    5135:	je     4f54 <hvm_pf_xen_summary+0x344>
    513b:	mov    ecx,DWORD PTR [rip+0x223f97]        # 2290d8 <opt+0x38>
    5141:	test   ecx,ecx
    5143:	je     5c9f <hvm_pf_xen_summary+0x108f>
    5149:	mov    ecx,DWORD PTR [rax+0x1135c]
    514f:	cmp    DWORD PTR [rax+0x11360],ecx
    5155:	cmovle ecx,DWORD PTR [rax+0x11360]
    515c:	test   ecx,ecx
    515e:	mov    r13d,ecx
    5161:	jne    5bd5 <hvm_pf_xen_summary+0xfc5>
    5167:	xor    r8d,r8d
    516a:	xor    r12d,r12d
    516d:	xor    r15d,r15d
    5170:	lea    rsi,[rip+0x17eec]        # 1d063 <_IO_stdin_used+0xa3>
    5177:	xor    eax,eax
    5179:	mov    edi,0x1
    517e:	mov    QWORD PTR [rsp+0x20],r8
    5183:	call   44f0 <__printf_chk@plt>
    5188:	mov    rax,QWORD PTR [rsp+0x10]
    518d:	mov    r8,QWORD PTR [rsp+0x20]
    5192:	movsxd rcx,DWORD PTR [rax+0x1135c]
    5199:	test   ecx,ecx
    519b:	je     5c91 <hvm_pf_xen_summary+0x1081>
    51a1:	mov    rax,QWORD PTR [rsp+0x10]
    51a6:	xor    edx,edx
    51a8:	mov    rsi,QWORD PTR [rax+0x11368]
    51af:	mov    rax,rsi
    51b2:	div    rcx
    51b5:	mov    rcx,rax
    51b8:	lea    rax,[rsi+rsi*4]
    51bc:	pxor   xmm1,xmm1
    51c0:	pxor   xmm0,xmm0
    51c4:	lea    rdx,[rax+rax*4]
    51c8:	shl    rdx,0x2
    51cc:	test   rsi,rsi
    51cf:	cvtsi2sd xmm0,QWORD PTR [rip+0x227ff8]        # 22d1d0 <P+0x30>
    51d8:	cvtsi2sd xmm1,rdx
    51dd:	divsd  xmm1,xmm0
    51e1:	js     5d3e <hvm_pf_xen_summary+0x112e>
    51e7:	pxor   xmm0,xmm0
    51eb:	cvtsi2sd xmm0,rsi
    51f0:	pxor   xmm2,xmm2
    51f4:	mov    rax,QWORD PTR [rsp+0x10]
    51f9:	sub    rsp,0x8
    51fd:	lea    rsi,[rip+0x1a5d4]        # 1f7d8 <_IO_stdin_used+0x2818>
    5204:	mov    r9,r15
    5207:	mov    edi,0x1
    520c:	cvtsi2sd xmm2,QWORD PTR [rip+0x223e9b]        # 2290b0 <opt+0x10>
    5215:	divsd  xmm0,xmm2
    5219:	mov    edx,DWORD PTR [rax+0x11358]
    521f:	push   r8
    5221:	mov    eax,0x2
    5226:	mov    r8,r12
    5229:	call   44f0 <__printf_chk@plt>
    522e:	pop    rax
    522f:	pop    rdx
    5230:	jmp    4f54 <hvm_pf_xen_summary+0x344>
    5235:	nop    DWORD PTR [rax]
    5238:	mov    rax,rsi
    523b:	pxor   xmm0,xmm0
    523f:	shr    rax,1
    5242:	and    esi,0x1
    5245:	or     rax,rsi
    5248:	cvtsi2sd xmm0,rax
    524d:	addsd  xmm0,xmm0
    5251:	jmp    4f08 <hvm_pf_xen_summary+0x2f8>
    5256:	nop    WORD PTR cs:[rax+rax*1+0x0]
    5260:	mov    r12,QWORD PTR [rsp+0x18]
    5265:	jmp    4d60 <hvm_pf_xen_summary+0x150>
    526a:	nop    WORD PTR [rax+rax*1+0x0]
    5270:	mov    rax,QWORD PTR [rsp+0x10]
    5275:	xor    r15d,r15d
    5278:	lea    rbx,[rax+0x11010]
    527f:	mov    r14d,DWORD PTR [rbx]
    5282:	test   r14d,r14d
    5285:	je     5361 <hvm_pf_xen_summary+0x751>
    528b:	mov    r13d,DWORD PTR [rip+0x223e46]        # 2290d8 <opt+0x38>
    5292:	test   r13d,r13d
    5295:	je     5720 <hvm_pf_xen_summary+0xb10>
    529b:	mov    esi,DWORD PTR [rbx+0x4]
    529e:	cmp    DWORD PTR [rbx+0x8],esi
    52a1:	cmovle esi,DWORD PTR [rbx+0x8]
    52a5:	test   esi,esi
    52a7:	mov    r13d,esi
    52aa:	jne    58a0 <hvm_pf_xen_summary+0xc90>
    52b0:	xor    r13d,r13d
    52b3:	xor    ebp,ebp
    52b5:	xor    r14d,r14d
    52b8:	lea    rax,[rip+0x224381]        # 229640 <pf_xen_non_emul_name>
    52bf:	lea    rsi,[rip+0x17d71]        # 1d037 <_IO_stdin_used+0x77>
    52c6:	mov    edi,0x1
    52cb:	mov    rdx,QWORD PTR [rax+r15*8]
    52cf:	xor    eax,eax
    52d1:	call   44f0 <__printf_chk@plt>
    52d6:	mov    eax,DWORD PTR [rbx+0x4]
    52d9:	xor    ecx,ecx
    52db:	mov    rsi,QWORD PTR [rbx+0x10]
    52df:	test   eax,eax
    52e1:	je     52f1 <hvm_pf_xen_summary+0x6e1>
    52e3:	movsxd rcx,eax
    52e6:	xor    edx,edx
    52e8:	mov    rax,rsi
    52eb:	div    rcx
    52ee:	mov    rcx,rax
    52f1:	lea    rdx,[rsi+rsi*4]
    52f5:	pxor   xmm1,xmm1
    52f9:	pxor   xmm0,xmm0
    52fd:	lea    rdx,[rdx+rdx*4]
    5301:	shl    rdx,0x2
    5305:	test   rsi,rsi
    5308:	cvtsi2sd xmm0,QWORD PTR [rip+0x227ebf]        # 22d1d0 <P+0x30>
    5311:	cvtsi2sd xmm1,rdx
    5316:	divsd  xmm1,xmm0
    531a:	js     57e0 <hvm_pf_xen_summary+0xbd0>
    5320:	pxor   xmm0,xmm0
    5324:	cvtsi2sd xmm0,rsi
    5329:	pxor   xmm2,xmm2
    532d:	sub    rsp,0x8
    5331:	lea    rsi,[rip+0x1a4a0]        # 1f7d8 <_IO_stdin_used+0x2818>
    5338:	push   r13
    533a:	mov    edx,DWORD PTR [rbx]
    533c:	mov    r8,rbp
    533f:	mov    r9,r14
    5342:	mov    edi,0x1
    5347:	mov    eax,0x2
    534c:	cvtsi2sd xmm2,QWORD PTR [rip+0x223d5b]        # 2290b0 <opt+0x10>
    5355:	divsd  xmm0,xmm2
    5359:	call   44f0 <__printf_chk@plt>
    535e:	pop    r11
    5360:	pop    rbp
    5361:	add    r15,0x1
    5365:	add    rbx,0x38
    5369:	cmp    r15,0x4
    536d:	jne    527f <hvm_pf_xen_summary+0x66f>
    5373:	jmp    4d60 <hvm_pf_xen_summary+0x150>
    5378:	nop    DWORD PTR [rax+rax*1+0x0]
    5380:	mov    rax,QWORD PTR [rsp+0x10]
    5385:	xor    ebp,ebp
    5387:	lea    rbx,[rax+0x10be8]
    538e:	jmp    547a <hvm_pf_xen_summary+0x86a>
    5393:	nop    DWORD PTR [rax+rax*1+0x0]
    5398:	mov    esi,DWORD PTR [rbx+0x4]
    539b:	cmp    DWORD PTR [rbx+0x8],esi
    539e:	cmovle esi,DWORD PTR [rbx+0x8]
    53a2:	test   esi,esi
    53a4:	mov    r13d,esi
    53a7:	jne    5680 <hvm_pf_xen_summary+0xa70>
    53ad:	xor    r13d,r13d
    53b0:	xor    r14d,r14d
    53b3:	xor    r15d,r15d
    53b6:	lea    rax,[rip+0x2242a3]        # 229660 <pf_xen_emul_name>
    53bd:	lea    rsi,[rip+0x17c73]        # 1d037 <_IO_stdin_used+0x77>
    53c4:	mov    edi,0x1
    53c9:	mov    rdx,QWORD PTR [rax+rbp*8]
    53cd:	xor    eax,eax
    53cf:	call   44f0 <__printf_chk@plt>
    53d4:	mov    eax,DWORD PTR [rbx+0x4]
    53d7:	xor    ecx,ecx
    53d9:	mov    rsi,QWORD PTR [rbx+0x10]
    53dd:	test   eax,eax
    53df:	je     53ef <hvm_pf_xen_summary+0x7df>
    53e1:	movsxd rcx,eax
    53e4:	xor    edx,edx
    53e6:	mov    rax,rsi
    53e9:	div    rcx
    53ec:	mov    rcx,rax
    53ef:	lea    rdx,[rsi+rsi*4]
    53f3:	pxor   xmm1,xmm1
    53f7:	pxor   xmm0,xmm0
    53fb:	lea    rdx,[rdx+rdx*4]
    53ff:	shl    rdx,0x2
    5403:	test   rsi,rsi
    5406:	cvtsi2sd xmm0,QWORD PTR [rip+0x227dc1]        # 22d1d0 <P+0x30>
    540f:	cvtsi2sd xmm1,rdx
    5414:	divsd  xmm1,xmm0
    5418:	js     5658 <hvm_pf_xen_summary+0xa48>
    541e:	pxor   xmm0,xmm0
    5422:	cvtsi2sd xmm0,rsi
    5427:	pxor   xmm2,xmm2
    542b:	sub    rsp,0x8
    542f:	lea    rsi,[rip+0x1a3a2]        # 1f7d8 <_IO_stdin_used+0x2818>
    5436:	push   r13
    5438:	mov    edx,DWORD PTR [rbx]
    543a:	mov    r8,r14
    543d:	mov    edi,0x1
    5442:	mov    r9,r15
    5445:	mov    eax,0x2
    544a:	cvtsi2sd xmm2,QWORD PTR [rip+0x223c5d]        # 2290b0 <opt+0x10>
    5453:	divsd  xmm0,xmm2
    5457:	call   44f0 <__printf_chk@plt>
    545c:	pop    rdi
    545d:	pop    r8
    545f:	cmp    rbp,0x5
    5463:	je     5536 <hvm_pf_xen_summary+0x926>
    5469:	cmp    ebp,0xd
    546c:	je     4d60 <hvm_pf_xen_summary+0x150>
    5472:	add    rbp,0x1
    5476:	add    rbx,0x38
    547a:	mov    r10d,DWORD PTR [rbx]
    547d:	test   r10d,r10d
    5480:	je     545f <hvm_pf_xen_summary+0x84f>
    5482:	mov    r9d,DWORD PTR [rip+0x223c4f]        # 2290d8 <opt+0x38>
    5489:	test   r9d,r9d
    548c:	jne    5398 <hvm_pf_xen_summary+0x788>
    5492:	lea    rax,[rip+0x2241c7]        # 229660 <pf_xen_emul_name>
    5499:	lea    rsi,[rip+0x17b97]        # 1d037 <_IO_stdin_used+0x77>
    54a0:	mov    edi,0x1
    54a5:	mov    rdx,QWORD PTR [rax+rbp*8]
    54a9:	xor    eax,eax
    54ab:	call   44f0 <__printf_chk@plt>
    54b0:	mov    eax,DWORD PTR [rbx+0x4]
    54b3:	xor    ecx,ecx
    54b5:	mov    rsi,QWORD PTR [rbx+0x10]
    54b9:	test   eax,eax
    54bb:	je     54cb <hvm_pf_xen_summary+0x8bb>
    54bd:	movsxd rcx,eax
    54c0:	xor    edx,edx
    54c2:	mov    rax,rsi
    54c5:	div    rcx
    54c8:	mov    rcx,rax
    54cb:	lea    rdx,[rsi+rsi*4]
    54cf:	pxor   xmm1,xmm1
    54d3:	pxor   xmm0,xmm0
    54d7:	lea    rdx,[rdx+rdx*4]
    54db:	shl    rdx,0x2
    54df:	test   rsi,rsi
    54e2:	cvtsi2sd xmm0,QWORD PTR [rip+0x227ce5]        # 22d1d0 <P+0x30>
    54eb:	cvtsi2sd xmm1,rdx
    54f0:	divsd  xmm1,xmm0
    54f4:	js     5700 <hvm_pf_xen_summary+0xaf0>
    54fa:	pxor   xmm0,xmm0
    54fe:	cvtsi2sd xmm0,rsi
    5503:	pxor   xmm2,xmm2
    5507:	mov    edx,DWORD PTR [rbx]
    5509:	lea    rsi,[rip+0x1a300]        # 1f810 <_IO_stdin_used+0x2850>
    5510:	mov    edi,0x1
    5515:	mov    eax,0x2
    551a:	cvtsi2sd xmm2,QWORD PTR [rip+0x223b8d]        # 2290b0 <opt+0x10>
    5523:	divsd  xmm0,xmm2
    5527:	call   44f0 <__printf_chk@plt>
    552c:	cmp    rbp,0x5
    5530:	jne    5469 <hvm_pf_xen_summary+0x859>
    5536:	mov    rax,QWORD PTR [rsp+0x10]
    553b:	xor    r14d,r14d
    553e:	mov    QWORD PTR [rsp+0x18],rbx
    5543:	mov    QWORD PTR [rsp+0x20],rbp
    5548:	mov    ebx,r14d
    554b:	lea    r13,[rax+0x10ef8]
    5552:	nop    WORD PTR [rax+rax*1+0x0]
    5558:	mov    esi,DWORD PTR [r13+0x0]
    555c:	test   esi,esi
    555e:	je     5634 <hvm_pf_xen_summary+0xa24>
    5564:	mov    ecx,DWORD PTR [rip+0x223b6e]        # 2290d8 <opt+0x38>
    556a:	test   ecx,ecx
    556c:	je     5a1f <hvm_pf_xen_summary+0xe0f>
    5572:	mov    eax,DWORD PTR [r13+0x4]
    5576:	cmp    DWORD PTR [r13+0x8],eax
    557a:	cmovle eax,DWORD PTR [r13+0x8]
    557f:	test   eax,eax
    5581:	mov    r14d,eax
    5584:	jne    5afa <hvm_pf_xen_summary+0xeea>
    558a:	xor    r14d,r14d
    558d:	xor    r15d,r15d
    5590:	xor    ebp,ebp
    5592:	lea    rsi,[rip+0x17aac]        # 1d045 <_IO_stdin_used+0x85>
    5599:	xor    eax,eax
    559b:	mov    edx,ebx
    559d:	mov    edi,0x1
    55a2:	call   44f0 <__printf_chk@plt>
    55a7:	mov    eax,DWORD PTR [r13+0x4]
    55ab:	xor    ecx,ecx
    55ad:	mov    rsi,QWORD PTR [r13+0x10]
    55b1:	test   eax,eax
    55b3:	je     55c3 <hvm_pf_xen_summary+0x9b3>
    55b5:	movsxd rcx,eax
    55b8:	xor    edx,edx
    55ba:	mov    rax,rsi
    55bd:	div    rcx
    55c0:	mov    rcx,rax
    55c3:	lea    rax,[rsi+rsi*4]
    55c7:	pxor   xmm1,xmm1
    55cb:	pxor   xmm0,xmm0
    55cf:	lea    rdx,[rax+rax*4]
    55d3:	shl    rdx,0x2
    55d7:	test   rsi,rsi
    55da:	cvtsi2sd xmm0,QWORD PTR [rip+0x227bed]        # 22d1d0 <P+0x30>
    55e3:	cvtsi2sd xmm1,rdx
    55e8:	divsd  xmm1,xmm0
    55ec:	js     5adc <hvm_pf_xen_summary+0xecc>
    55f2:	pxor   xmm0,xmm0
    55f6:	cvtsi2sd xmm0,rsi
    55fb:	pxor   xmm2,xmm2
    55ff:	sub    rsp,0x8
    5603:	lea    rsi,[rip+0x1a1ce]        # 1f7d8 <_IO_stdin_used+0x2818>
    560a:	push   r14
    560c:	mov    edx,DWORD PTR [r13+0x0]
    5610:	mov    r9,rbp
    5613:	mov    r8,r15
    5616:	mov    edi,0x1
    561b:	mov    eax,0x2
    5620:	cvtsi2sd xmm2,QWORD PTR [rip+0x223a87]        # 2290b0 <opt+0x10>
    5629:	divsd  xmm0,xmm2
    562d:	call   44f0 <__printf_chk@plt>
    5632:	pop    rax
    5633:	pop    rdx
    5634:	add    ebx,0x1
    5637:	add    r13,0x38
    563b:	cmp    ebx,0x5
    563e:	jne    5558 <hvm_pf_xen_summary+0x948>
    5644:	mov    rbx,QWORD PTR [rsp+0x18]
    5649:	mov    rbp,QWORD PTR [rsp+0x20]
    564e:	jmp    5472 <hvm_pf_xen_summary+0x862>
    5653:	nop    DWORD PTR [rax+rax*1+0x0]
    5658:	mov    rax,rsi
    565b:	pxor   xmm0,xmm0
    565f:	shr    rax,1
    5662:	and    esi,0x1
    5665:	or     rax,rsi
    5668:	cvtsi2sd xmm0,rax
    566d:	addsd  xmm0,xmm0
    5671:	jmp    5427 <hvm_pf_xen_summary+0x817>
    5676:	nop    WORD PTR cs:[rax+rax*1+0x0]
    5680:	mov    rdi,QWORD PTR [rbx+0x18]
    5684:	mov    edx,0x32
    5689:	call   4b30 <percentile.part.6>
    568e:	mov    rdi,QWORD PTR [rbx+0x18]
    5692:	mov    esi,r13d
    5695:	mov    edx,0x5
    569a:	mov    r15,rax
    569d:	call   4b30 <percentile.part.6>
    56a2:	mov    rdi,QWORD PTR [rbx+0x18]
    56a6:	mov    esi,r13d
    56a9:	mov    edx,0x5f
    56ae:	mov    r14,rax
    56b1:	call   4b30 <percentile.part.6>
    56b6:	mov    r13,rax
    56b9:	jmp    53b6 <hvm_pf_xen_summary+0x7a6>
    56be:	xchg   ax,ax
    56c0:	mov    rdi,QWORD PTR [rbx+0x18]
    56c4:	mov    edx,0x32
    56c9:	call   4b30 <percentile.part.6>
    56ce:	mov    rdi,QWORD PTR [rbx+0x18]
    56d2:	mov    esi,r15d
    56d5:	mov    edx,0x5
    56da:	mov    r12,rax
    56dd:	call   4b30 <percentile.part.6>
    56e2:	mov    rdi,QWORD PTR [rbx+0x18]
    56e6:	mov    esi,r15d
    56e9:	mov    edx,0x5f
    56ee:	mov    r13,rax
    56f1:	call   4b30 <percentile.part.6>
    56f6:	mov    r15,rax
    56f9:	jmp    4e9e <hvm_pf_xen_summary+0x28e>
    56fe:	xchg   ax,ax
    5700:	mov    rax,rsi
    5703:	pxor   xmm0,xmm0
    5707:	shr    rax,1
    570a:	and    esi,0x1
    570d:	or     rax,rsi
    5710:	cvtsi2sd xmm0,rax
    5715:	addsd  xmm0,xmm0
    5719:	jmp    5503 <hvm_pf_xen_summary+0x8f3>
    571e:	xchg   ax,ax
    5720:	lea    rax,[rip+0x223f19]        # 229640 <pf_xen_non_emul_name>
    5727:	lea    rsi,[rip+0x17909]        # 1d037 <_IO_stdin_used+0x77>
    572e:	mov    edi,0x1
    5733:	mov    rdx,QWORD PTR [rax+r15*8]
    5737:	xor    eax,eax
    5739:	call   44f0 <__printf_chk@plt>
    573e:	mov    eax,DWORD PTR [rbx+0x4]
    5741:	xor    ecx,ecx
    5743:	mov    rsi,QWORD PTR [rbx+0x10]
    5747:	test   eax,eax
    5749:	je     5759 <hvm_pf_xen_summary+0xb49>
    574b:	movsxd rcx,eax
    574e:	xor    edx,edx
    5750:	mov    rax,rsi
    5753:	div    rcx
    5756:	mov    rcx,rax
    5759:	lea    rdx,[rsi+rsi*4]
    575d:	pxor   xmm1,xmm1
    5761:	pxor   xmm0,xmm0
    5765:	lea    rdx,[rdx+rdx*4]
    5769:	shl    rdx,0x2
    576d:	test   rsi,rsi
    5770:	cvtsi2sd xmm0,QWORD PTR [rip+0x227a57]        # 22d1d0 <P+0x30>
    5779:	cvtsi2sd xmm1,rdx
    577e:	divsd  xmm1,xmm0
    5782:	js     59a0 <hvm_pf_xen_summary+0xd90>
    5788:	pxor   xmm0,xmm0
    578c:	cvtsi2sd xmm0,rsi
    5791:	pxor   xmm2,xmm2
    5795:	mov    edx,DWORD PTR [rbx]
    5797:	lea    rsi,[rip+0x1a072]        # 1f810 <_IO_stdin_used+0x2850>
    579e:	mov    edi,0x1
    57a3:	mov    eax,0x2
    57a8:	cvtsi2sd xmm2,QWORD PTR [rip+0x2238ff]        # 2290b0 <opt+0x10>
    57b1:	divsd  xmm0,xmm2
    57b5:	call   44f0 <__printf_chk@plt>
    57ba:	jmp    5361 <hvm_pf_xen_summary+0x751>
    57bf:	nop
    57c0:	mov    rax,rsi
    57c3:	pxor   xmm0,xmm0
    57c7:	shr    rax,1
    57ca:	and    esi,0x1
    57cd:	or     rax,rsi
    57d0:	cvtsi2sd xmm0,rax
    57d5:	addsd  xmm0,xmm0
    57d9:	jmp    4fde <hvm_pf_xen_summary+0x3ce>
    57de:	xchg   ax,ax
    57e0:	mov    rax,rsi
    57e3:	pxor   xmm0,xmm0
    57e7:	shr    rax,1
    57ea:	and    esi,0x1
    57ed:	or     rax,rsi
    57f0:	cvtsi2sd xmm0,rax
    57f5:	addsd  xmm0,xmm0
    57f9:	jmp    5329 <hvm_pf_xen_summary+0x719>
    57fe:	xchg   ax,ax
    5800:	lea    rsi,[rip+0x17817]        # 1d01e <_IO_stdin_used+0x5e>
    5807:	xor    eax,eax
    5809:	mov    edi,0x1
    580e:	call   44f0 <__printf_chk@plt>
    5813:	mov    eax,DWORD PTR [r12+0x4]
    5818:	mov    rsi,QWORD PTR [r12+0x10]
    581d:	test   eax,eax
    581f:	je     5929 <hvm_pf_xen_summary+0xd19>
    5825:	movsxd rcx,eax
    5828:	xor    edx,edx
    582a:	mov    rax,rsi
    582d:	div    rcx
    5830:	mov    rcx,rax
    5833:	lea    rdx,[rsi+rsi*4]
    5837:	pxor   xmm1,xmm1
    583b:	pxor   xmm0,xmm0
    583f:	lea    rdx,[rdx+rdx*4]
    5843:	shl    rdx,0x2
    5847:	test   rsi,rsi
    584a:	cvtsi2sd xmm0,QWORD PTR [rip+0x22797d]        # 22d1d0 <P+0x30>
    5853:	cvtsi2sd xmm1,rdx
    5858:	divsd  xmm1,xmm0
    585c:	js     5980 <hvm_pf_xen_summary+0xd70>
    5862:	pxor   xmm0,xmm0
    5866:	cvtsi2sd xmm0,rsi
    586b:	pxor   xmm2,xmm2
    586f:	mov    edx,DWORD PTR [r12]
    5873:	lea    rsi,[rip+0x19f96]        # 1f810 <_IO_stdin_used+0x2850>
    587a:	mov    edi,0x1
    587f:	mov    eax,0x2
    5884:	cvtsi2sd xmm2,QWORD PTR [rip+0x223823]        # 2290b0 <opt+0x10>
    588d:	divsd  xmm0,xmm2
    5891:	call   44f0 <__printf_chk@plt>
    5896:	jmp    4d34 <hvm_pf_xen_summary+0x124>
    589b:	nop    DWORD PTR [rax+rax*1+0x0]
    58a0:	mov    rdi,QWORD PTR [rbx+0x18]
    58a4:	mov    edx,0x32
    58a9:	call   4b30 <percentile.part.6>
    58ae:	mov    rdi,QWORD PTR [rbx+0x18]
    58b2:	mov    esi,r13d
    58b5:	mov    edx,0x5
    58ba:	mov    r14,rax
    58bd:	call   4b30 <percentile.part.6>
    58c2:	mov    rdi,QWORD PTR [rbx+0x18]
    58c6:	mov    esi,r13d
    58c9:	mov    edx,0x5f
    58ce:	mov    rbp,rax
    58d1:	call   4b30 <percentile.part.6>
    58d6:	mov    r13,rax
    58d9:	jmp    52b8 <hvm_pf_xen_summary+0x6a8>
    58de:	xchg   ax,ax
    58e0:	mov    rax,rsi
    58e3:	pxor   xmm0,xmm0
    58e7:	shr    rax,1
    58ea:	and    esi,0x1
    58ed:	or     rax,rsi
    58f0:	cvtsi2sd xmm0,rax
    58f5:	addsd  xmm0,xmm0
    58f9:	jmp    4cfb <hvm_pf_xen_summary+0xeb>
    58fe:	xchg   ax,ax
    5900:	mov    edx,DWORD PTR [rsp+0x8]
    5904:	lea    rsi,[rip+0x1771f]        # 1d02a <_IO_stdin_used+0x6a>
    590b:	xor    eax,eax
    590d:	mov    edi,0x1
    5912:	call   44f0 <__printf_chk@plt>
    5917:	mov    eax,DWORD PTR [r12+0x4]
    591c:	mov    rsi,QWORD PTR [r12+0x10]
    5921:	test   eax,eax
    5923:	jne    5825 <hvm_pf_xen_summary+0xc15>
    5929:	xor    ecx,ecx
    592b:	jmp    5833 <hvm_pf_xen_summary+0xc23>
    5930:	mov    rdi,QWORD PTR [r12+0x18]
    5935:	mov    edx,0x32
    593a:	call   4b30 <percentile.part.6>
    593f:	mov    rdi,QWORD PTR [r12+0x18]
    5944:	mov    esi,ebp
    5946:	mov    edx,0x5
    594b:	mov    r13,rax
    594e:	call   4b30 <percentile.part.6>
    5953:	mov    rdi,QWORD PTR [r12+0x18]
    5958:	mov    esi,ebp
    595a:	mov    edx,0x5f
    595f:	mov    rbx,rax
    5962:	call   4b30 <percentile.part.6>
    5967:	mov    rbp,rax
    596a:	jmp    4c87 <hvm_pf_xen_summary+0x77>
    596f:	nop
    5970:	add    rsp,0x38
    5974:	pop    rbx
    5975:	pop    rbp
    5976:	pop    r12
    5978:	pop    r13
    597a:	pop    r14
    597c:	pop    r15
    597e:	ret    
    597f:	nop
    5980:	mov    rax,rsi
    5983:	pxor   xmm0,xmm0
    5987:	shr    rax,1
    598a:	and    esi,0x1
    598d:	or     rax,rsi
    5990:	cvtsi2sd xmm0,rax
    5995:	addsd  xmm0,xmm0
    5999:	jmp    586b <hvm_pf_xen_summary+0xc5b>
    599e:	xchg   ax,ax
    59a0:	mov    rax,rsi
    59a3:	pxor   xmm0,xmm0
    59a7:	shr    rax,1
    59aa:	and    esi,0x1
    59ad:	or     rax,rsi
    59b0:	cvtsi2sd xmm0,rax
    59b5:	addsd  xmm0,xmm0
    59b9:	jmp    5791 <hvm_pf_xen_summary+0xb81>
    59be:	xchg   ax,ax
    59c0:	mov    rax,rsi
    59c3:	pxor   xmm0,xmm0
    59c7:	shr    rax,1
    59ca:	and    esi,0x1
    59cd:	or     rax,rsi
    59d0:	cvtsi2sd xmm0,rax
    59d5:	addsd  xmm0,xmm0
    59d9:	jmp    4e32 <hvm_pf_xen_summary+0x222>
    59de:	mov    rdi,QWORD PTR [r12+0x18]
    59e3:	mov    edx,0x32
    59e8:	call   4b30 <percentile.part.6>
    59ed:	mov    rdi,QWORD PTR [r12+0x18]
    59f2:	mov    esi,r13d
    59f5:	mov    edx,0x5
    59fa:	mov    rbp,rax
    59fd:	call   4b30 <percentile.part.6>
    5a02:	mov    rdi,QWORD PTR [r12+0x18]
    5a07:	mov    esi,r13d
    5a0a:	mov    edx,0x5f
    5a0f:	mov    rbx,rax
    5a12:	call   4b30 <percentile.part.6>
    5a17:	mov    r13,rax
    5a1a:	jmp    4dc6 <hvm_pf_xen_summary+0x1b6>
    5a1f:	lea    rsi,[rip+0x1761f]        # 1d045 <_IO_stdin_used+0x85>
    5a26:	xor    eax,eax
    5a28:	mov    edx,ebx
    5a2a:	mov    edi,0x1
    5a2f:	call   44f0 <__printf_chk@plt>
    5a34:	mov    eax,DWORD PTR [r13+0x4]
    5a38:	xor    ecx,ecx
    5a3a:	mov    rsi,QWORD PTR [r13+0x10]
    5a3e:	test   eax,eax
    5a40:	jne    5aa6 <hvm_pf_xen_summary+0xe96>
    5a42:	lea    rdx,[rsi+rsi*4]
    5a46:	pxor   xmm1,xmm1
    5a4a:	pxor   xmm0,xmm0
    5a4e:	lea    rdx,[rdx+rdx*4]
    5a52:	shl    rdx,0x2
    5a56:	test   rsi,rsi
    5a59:	cvtsi2sd xmm0,QWORD PTR [rip+0x22776e]        # 22d1d0 <P+0x30>
    5a62:	cvtsi2sd xmm1,rdx
    5a67:	divsd  xmm1,xmm0
    5a6b:	js     5ab6 <hvm_pf_xen_summary+0xea6>
    5a6d:	pxor   xmm0,xmm0
    5a71:	cvtsi2sd xmm0,rsi
    5a76:	pxor   xmm2,xmm2
    5a7a:	mov    edx,DWORD PTR [r13+0x0]
    5a7e:	lea    rsi,[rip+0x19d8b]        # 1f810 <_IO_stdin_used+0x2850>
    5a85:	mov    edi,0x1
    5a8a:	mov    eax,0x2
    5a8f:	cvtsi2sd xmm2,QWORD PTR [rip+0x223618]        # 2290b0 <opt+0x10>
    5a98:	divsd  xmm0,xmm2
    5a9c:	call   44f0 <__printf_chk@plt>
    5aa1:	jmp    5634 <hvm_pf_xen_summary+0xa24>
    5aa6:	movsxd rcx,eax
    5aa9:	xor    edx,edx
    5aab:	mov    rax,rsi
    5aae:	div    rcx
    5ab1:	mov    rcx,rax
    5ab4:	jmp    5a42 <hvm_pf_xen_summary+0xe32>
    5ab6:	mov    rax,rsi
    5ab9:	pxor   xmm0,xmm0
    5abd:	shr    rax,1
    5ac0:	and    esi,0x1
    5ac3:	or     rax,rsi
    5ac6:	cvtsi2sd xmm0,rax
    5acb:	addsd  xmm0,xmm0
    5acf:	jmp    5a76 <hvm_pf_xen_summary+0xe66>
    5ad1:	mov    r13d,0x1
    5ad7:	jmp    5023 <hvm_pf_xen_summary+0x413>
    5adc:	mov    rax,rsi
    5adf:	pxor   xmm0,xmm0
    5ae3:	shr    rax,1
    5ae6:	and    esi,0x1
    5ae9:	or     rax,rsi
    5aec:	cvtsi2sd xmm0,rax
    5af1:	addsd  xmm0,xmm0
    5af5:	jmp    55fb <hvm_pf_xen_summary+0x9eb>
    5afa:	mov    rdi,QWORD PTR [r13+0x18]
    5afe:	mov    edx,0x32
    5b03:	mov    esi,eax
    5b05:	call   4b30 <percentile.part.6>
    5b0a:	mov    rdi,QWORD PTR [r13+0x18]
    5b0e:	mov    esi,r14d
    5b11:	mov    edx,0x5
    5b16:	mov    rbp,rax
    5b19:	call   4b30 <percentile.part.6>
    5b1e:	mov    rdi,QWORD PTR [r13+0x18]
    5b22:	mov    esi,r14d
    5b25:	mov    edx,0x5f
    5b2a:	mov    r15,rax
    5b2d:	call   4b30 <percentile.part.6>
    5b32:	mov    r14,rax
    5b35:	jmp    5592 <hvm_pf_xen_summary+0x982>
    5b3a:	lea    rsi,[rip+0x17513]        # 1d054 <_IO_stdin_used+0x94>
    5b41:	xor    eax,eax
    5b43:	mov    edx,r13d
    5b46:	mov    edi,0x1
    5b4b:	call   44f0 <__printf_chk@plt>
    5b50:	movsxd rcx,DWORD PTR [r12+0x4]
    5b55:	mov    rsi,QWORD PTR [r12+0x10]
    5b5a:	test   ecx,ecx
    5b5c:	jne    5bc8 <hvm_pf_xen_summary+0xfb8>
    5b5e:	xor    ecx,ecx
    5b60:	lea    rax,[rsi+rsi*4]
    5b64:	pxor   xmm1,xmm1
    5b68:	pxor   xmm0,xmm0
    5b6c:	lea    rdx,[rax+rax*4]
    5b70:	shl    rdx,0x2
    5b74:	test   rsi,rsi
    5b77:	cvtsi2sd xmm0,QWORD PTR [rip+0x227650]        # 22d1d0 <P+0x30>
    5b80:	cvtsi2sd xmm1,rdx
    5b85:	divsd  xmm1,xmm0
    5b89:	js     5d5c <hvm_pf_xen_summary+0x114c>
    5b8f:	pxor   xmm0,xmm0
    5b93:	cvtsi2sd xmm0,rsi
    5b98:	pxor   xmm2,xmm2
    5b9c:	mov    edx,DWORD PTR [r12]
    5ba0:	lea    rsi,[rip+0x19c69]        # 1f810 <_IO_stdin_used+0x2850>
    5ba7:	mov    edi,0x1
    5bac:	mov    eax,0x2
    5bb1:	cvtsi2sd xmm2,QWORD PTR [rip+0x2234f6]        # 2290b0 <opt+0x10>
    5bba:	divsd  xmm0,xmm2
    5bbe:	call   44f0 <__printf_chk@plt>
    5bc3:	jmp    511a <hvm_pf_xen_summary+0x50a>
    5bc8:	mov    rax,rsi
    5bcb:	xor    edx,edx
    5bcd:	div    rcx
    5bd0:	mov    rcx,rax
    5bd3:	jmp    5b60 <hvm_pf_xen_summary+0xf50>
    5bd5:	mov    rdi,QWORD PTR [rax+0x11370]
    5bdc:	mov    r12,rax
    5bdf:	mov    esi,ecx
    5be1:	mov    edx,0x32
    5be6:	call   4b30 <percentile.part.6>
    5beb:	mov    rdi,QWORD PTR [r12+0x11370]
    5bf3:	mov    edx,0x5
    5bf8:	mov    esi,r13d
    5bfb:	mov    QWORD PTR [rsp+0x10],r12
    5c00:	mov    r15,rax
    5c03:	call   4b30 <percentile.part.6>
    5c08:	mov    r12,rax
    5c0b:	mov    rax,QWORD PTR [rsp+0x10]
    5c10:	mov    edx,0x5f
    5c15:	mov    esi,r13d
    5c18:	mov    rdi,QWORD PTR [rax+0x11370]
    5c1f:	call   4b30 <percentile.part.6>
    5c24:	mov    r8,rax
    5c27:	jmp    5170 <hvm_pf_xen_summary+0x560>
    5c2c:	mov    rax,rsi
    5c2f:	pxor   xmm0,xmm0
    5c33:	shr    rax,1
    5c36:	and    esi,0x1
    5c39:	or     rax,rsi
    5c3c:	cvtsi2sd xmm0,rax
    5c41:	addsd  xmm0,xmm0
    5c45:	jmp    50dc <hvm_pf_xen_summary+0x4cc>
    5c4a:	mov    rdi,QWORD PTR [r12+0x18]
    5c4f:	mov    esi,ecx
    5c51:	mov    edx,0x32
    5c56:	call   4b30 <percentile.part.6>
    5c5b:	mov    rdi,QWORD PTR [r12+0x18]
    5c60:	mov    esi,r15d
    5c63:	mov    edx,0x5
    5c68:	mov    QWORD PTR [rsp+0x20],rax
    5c6d:	call   4b30 <percentile.part.6>
    5c72:	mov    rdi,QWORD PTR [r12+0x18]
    5c77:	mov    esi,r15d
    5c7a:	mov    edx,0x5f
    5c7f:	mov    QWORD PTR [rsp+0x28],rax
    5c84:	call   4b30 <percentile.part.6>
    5c89:	mov    r15,rax
    5c8c:	jmp    5070 <hvm_pf_xen_summary+0x460>
    5c91:	mov    rsi,QWORD PTR [rax+0x11368]
    5c98:	xor    ecx,ecx
    5c9a:	jmp    51b8 <hvm_pf_xen_summary+0x5a8>
    5c9f:	lea    rsi,[rip+0x173bd]        # 1d063 <_IO_stdin_used+0xa3>
    5ca6:	xor    eax,eax
    5ca8:	mov    edi,0x1
    5cad:	call   44f0 <__printf_chk@plt>
    5cb2:	mov    rax,QWORD PTR [rsp+0x10]
    5cb7:	movsxd rcx,DWORD PTR [rax+0x1135c]
    5cbe:	test   ecx,ecx
    5cc0:	jne    5d7a <hvm_pf_xen_summary+0x116a>
    5cc6:	mov    rsi,QWORD PTR [rax+0x11368]
    5ccd:	xor    ecx,ecx
    5ccf:	lea    rax,[rsi+rsi*4]
    5cd3:	pxor   xmm1,xmm1
    5cd7:	pxor   xmm0,xmm0
    5cdb:	lea    rdx,[rax+rax*4]
    5cdf:	shl    rdx,0x2
    5ce3:	test   rsi,rsi
    5ce6:	cvtsi2sd xmm0,QWORD PTR [rip+0x2274e1]        # 22d1d0 <P+0x30>
    5cef:	cvtsi2sd xmm1,rdx
    5cf4:	divsd  xmm1,xmm0
    5cf8:	js     5d96 <hvm_pf_xen_summary+0x1186>
    5cfe:	pxor   xmm0,xmm0
    5d02:	cvtsi2sd xmm0,rsi
    5d07:	pxor   xmm2,xmm2
    5d0b:	mov    rax,QWORD PTR [rsp+0x10]
    5d10:	lea    rsi,[rip+0x19af9]        # 1f810 <_IO_stdin_used+0x2850>
    5d17:	mov    edi,0x1
    5d1c:	cvtsi2sd xmm2,QWORD PTR [rip+0x22338b]        # 2290b0 <opt+0x10>
    5d25:	divsd  xmm0,xmm2
    5d29:	mov    edx,DWORD PTR [rax+0x11358]
    5d2f:	mov    eax,0x2
    5d34:	call   44f0 <__printf_chk@plt>
    5d39:	jmp    4f54 <hvm_pf_xen_summary+0x344>
    5d3e:	mov    rdx,rsi
    5d41:	pxor   xmm0,xmm0
    5d45:	shr    rdx,1
    5d48:	and    esi,0x1
    5d4b:	or     rdx,rsi
    5d4e:	cvtsi2sd xmm0,rdx
    5d53:	addsd  xmm0,xmm0
    5d57:	jmp    51f0 <hvm_pf_xen_summary+0x5e0>
    5d5c:	mov    rdx,rsi
    5d5f:	pxor   xmm0,xmm0
    5d63:	shr    rdx,1
    5d66:	and    esi,0x1
    5d69:	or     rdx,rsi
    5d6c:	cvtsi2sd xmm0,rdx
    5d71:	addsd  xmm0,xmm0
    5d75:	jmp    5b98 <hvm_pf_xen_summary+0xf88>
    5d7a:	mov    rax,QWORD PTR [rsp+0x10]
    5d7f:	xor    edx,edx
    5d81:	mov    rsi,QWORD PTR [rax+0x11368]
    5d88:	mov    rax,rsi
    5d8b:	div    rcx
    5d8e:	mov    rcx,rax
    5d91:	jmp    5ccf <hvm_pf_xen_summary+0x10bf>
    5d96:	mov    rdx,rsi
    5d99:	pxor   xmm0,xmm0
    5d9d:	shr    rdx,1
    5da0:	and    esi,0x1
    5da3:	or     rdx,rsi
    5da6:	cvtsi2sd xmm0,rdx
    5dab:	addsd  xmm0,xmm0
    5daf:	jmp    5d07 <hvm_pf_xen_summary+0x10f7>
    5db4:	xchg   ax,ax
    5db6:	nop    WORD PTR cs:[rax+rax*1+0x0]

0000000000005dc0 <hvm_mmio_summary>:
    5dc0:	lea    rax,[rsi*8+0x0]
    5dc8:	push   r15
    5dca:	push   r14
    5dcc:	push   r13
    5dce:	push   r12
    5dd0:	sub    rax,rsi
    5dd3:	push   rbp
    5dd4:	push   rbx
    5dd5:	lea    rbx,[rdi+rax*8]
    5dd9:	sub    rsp,0x8
    5ddd:	mov    r8d,DWORD PTR [rbx+0x12a50]
    5de4:	test   r8d,r8d
    5de7:	je     5efc <hvm_mmio_summary+0x13c>
    5ded:	mov    ecx,DWORD PTR [rip+0x2232e5]        # 2290d8 <opt+0x38>
    5df3:	mov    rbp,rsi
    5df6:	mov    r12,rdi
    5df9:	test   ecx,ecx
    5dfb:	je     5f10 <hvm_mmio_summary+0x150>
    5e01:	mov    esi,DWORD PTR [rbx+0x12a54]
    5e07:	cmp    DWORD PTR [rbx+0x12a58],esi
    5e0d:	cmovle esi,DWORD PTR [rbx+0x12a58]
    5e14:	test   esi,esi
    5e16:	mov    r15d,esi
    5e19:	jne    6000 <hvm_mmio_summary+0x240>
    5e1f:	xor    ebx,ebx
    5e21:	xor    r13d,r13d
    5e24:	xor    r14d,r14d
    5e27:	lea    rsi,[rip+0x17245]        # 1d073 <_IO_stdin_used+0xb3>
    5e2e:	xor    eax,eax
    5e30:	mov    edi,0x1
    5e35:	call   44f0 <__printf_chk@plt>
    5e3a:	lea    rax,[rbp*8+0x0]
    5e42:	xor    ecx,ecx
    5e44:	sub    rax,rbp
    5e47:	lea    rdx,[r12+rax*8]
    5e4b:	mov    eax,DWORD PTR [rdx+0x12a54]
    5e51:	mov    r10,QWORD PTR [rdx+0x12a60]
    5e58:	test   eax,eax
    5e5a:	je     5e6a <hvm_mmio_summary+0xaa>
    5e5c:	movsxd rcx,eax
    5e5f:	xor    edx,edx
    5e61:	mov    rax,r10
    5e64:	div    rcx
    5e67:	mov    rcx,rax
    5e6a:	lea    rax,[rbp*8+0x0]
    5e72:	pxor   xmm1,xmm1
    5e76:	pxor   xmm0,xmm0
    5e7a:	sub    rax,rbp
    5e7d:	mov    rax,QWORD PTR [r12+rax*8+0x12a60]
    5e85:	cvtsi2sd xmm0,QWORD PTR [rip+0x227342]        # 22d1d0 <P+0x30>
    5e8e:	lea    rax,[rax+rax*4]
    5e92:	lea    rdx,[rax+rax*4]
    5e96:	shl    rdx,0x2
    5e9a:	test   r10,r10
    5e9d:	cvtsi2sd xmm1,rdx
    5ea2:	divsd  xmm1,xmm0
    5ea6:	js     5fe0 <hvm_mmio_summary+0x220>
    5eac:	pxor   xmm0,xmm0
    5eb0:	cvtsi2sd xmm0,r10
    5eb5:	pxor   xmm2,xmm2
    5eb9:	lea    rdx,[rbp*8+0x0]
    5ec1:	sub    rsp,0x8
    5ec5:	push   rbx
    5ec6:	lea    rsi,[rip+0x1990b]        # 1f7d8 <_IO_stdin_used+0x2818>
    5ecd:	mov    r9,r14
    5ed0:	sub    rdx,rbp
    5ed3:	mov    r8,r13
    5ed6:	mov    edi,0x1
    5edb:	cvtsi2sd xmm2,QWORD PTR [rip+0x2231cc]        # 2290b0 <opt+0x10>
    5ee4:	divsd  xmm0,xmm2
    5ee8:	mov    edx,DWORD PTR [r12+rdx*8+0x12a50]
    5ef0:	mov    eax,0x2
    5ef5:	call   44f0 <__printf_chk@plt>
    5efa:	pop    rax
    5efb:	pop    rdx
    5efc:	add    rsp,0x8
    5f00:	pop    rbx
    5f01:	pop    rbp
    5f02:	pop    r12
    5f04:	pop    r13
    5f06:	pop    r14
    5f08:	pop    r15
    5f0a:	ret    
    5f0b:	nop    DWORD PTR [rax+rax*1+0x0]
    5f10:	lea    rsi,[rip+0x1715c]        # 1d073 <_IO_stdin_used+0xb3>
    5f17:	xor    eax,eax
    5f19:	mov    edi,0x1
    5f1e:	call   44f0 <__printf_chk@plt>
    5f23:	mov    eax,DWORD PTR [rbx+0x12a54]
    5f29:	xor    ecx,ecx
    5f2b:	mov    rsi,QWORD PTR [rbx+0x12a60]
    5f32:	test   eax,eax
    5f34:	je     5f44 <hvm_mmio_summary+0x184>
    5f36:	movsxd rcx,eax
    5f39:	xor    edx,edx
    5f3b:	mov    rax,rsi
    5f3e:	div    rcx
    5f41:	mov    rcx,rax
    5f44:	lea    rdx,[rbp*8+0x0]
    5f4c:	pxor   xmm1,xmm1
    5f50:	pxor   xmm0,xmm0
    5f54:	sub    rdx,rbp
    5f57:	mov    rdx,QWORD PTR [r12+rdx*8+0x12a60]
    5f5f:	cvtsi2sd xmm0,QWORD PTR [rip+0x227268]        # 22d1d0 <P+0x30>
    5f68:	lea    rdx,[rdx+rdx*4]
    5f6c:	lea    rdx,[rdx+rdx*4]
    5f70:	shl    rdx,0x2
    5f74:	test   rsi,rsi
    5f77:	cvtsi2sd xmm1,rdx
    5f7c:	divsd  xmm1,xmm0
    5f80:	js     6050 <hvm_mmio_summary+0x290>
    5f86:	pxor   xmm0,xmm0
    5f8a:	cvtsi2sd xmm0,rsi
    5f8f:	pxor   xmm2,xmm2
    5f93:	lea    rdx,[rbp*8+0x0]
    5f9b:	lea    rsi,[rip+0x1986e]        # 1f810 <_IO_stdin_used+0x2850>
    5fa2:	mov    edi,0x1
    5fa7:	mov    eax,0x2
    5fac:	sub    rdx,rbp
    5faf:	cvtsi2sd xmm2,QWORD PTR [rip+0x2230f8]        # 2290b0 <opt+0x10>
    5fb8:	divsd  xmm0,xmm2
    5fbc:	mov    edx,DWORD PTR [r12+rdx*8+0x12a50]
    5fc4:	add    rsp,0x8
    5fc8:	pop    rbx
    5fc9:	pop    rbp
    5fca:	pop    r12
    5fcc:	pop    r13
    5fce:	pop    r14
    5fd0:	pop    r15
    5fd2:	jmp    44f0 <__printf_chk@plt>
    5fd7:	nop    WORD PTR [rax+rax*1+0x0]
    5fe0:	mov    rax,r10
    5fe3:	pxor   xmm0,xmm0
    5fe7:	shr    rax,1
    5fea:	and    r10d,0x1
    5fee:	or     rax,r10
    5ff1:	cvtsi2sd xmm0,rax
    5ff6:	addsd  xmm0,xmm0
    5ffa:	jmp    5eb5 <hvm_mmio_summary+0xf5>
    5fff:	nop
    6000:	mov    rdi,QWORD PTR [rbx+0x12a68]
    6007:	mov    edx,0x32
    600c:	call   4b30 <percentile.part.6>
    6011:	mov    rdi,QWORD PTR [rbx+0x12a68]
    6018:	mov    edx,0x5
    601d:	mov    esi,r15d
    6020:	mov    r14,rax
    6023:	call   4b30 <percentile.part.6>
    6028:	mov    rdi,QWORD PTR [rbx+0x12a68]
    602f:	mov    edx,0x5f
    6034:	mov    esi,r15d
    6037:	mov    r13,rax
    603a:	call   4b30 <percentile.part.6>
    603f:	mov    rbx,rax
    6042:	jmp    5e27 <hvm_mmio_summary+0x67>
    6047:	nop    WORD PTR [rax+rax*1+0x0]
    6050:	mov    rax,rsi
    6053:	pxor   xmm0,xmm0
    6057:	shr    rax,1
    605a:	and    esi,0x1
    605d:	or     rax,rsi
    6060:	cvtsi2sd xmm0,rax
    6065:	addsd  xmm0,xmm0
    6069:	jmp    5f8f <hvm_mmio_summary+0x1cf>
    606e:	xchg   ax,ax

0000000000006070 <hvm_vmcall_summary>:
    6070:	push   r15
    6072:	push   r14
    6074:	lea    r14,[rip+0x223665]        # 2296e0 <hypercall_name>
    607b:	push   r13
    607d:	push   r12
    607f:	push   rbp
    6080:	push   rbx
    6081:	lea    rbp,[r14+0x130]
    6088:	lea    rbx,[rdi+0x11978]
    608f:	sub    rsp,0x18
    6093:	mov    QWORD PTR [rsp+0x8],rdi
    6098:	jmp    6170 <hvm_vmcall_summary+0x100>
    609d:	nop    DWORD PTR [rax]
    60a0:	mov    esi,DWORD PTR [rbx+0x4]
    60a3:	cmp    DWORD PTR [rbx+0x8],esi
    60a6:	cmovle esi,DWORD PTR [rbx+0x8]
    60aa:	test   esi,esi
    60ac:	mov    r13d,esi
    60af:	jne    6370 <hvm_vmcall_summary+0x300>
    60b5:	xor    r13d,r13d
    60b8:	xor    r12d,r12d
    60bb:	xor    r15d,r15d
    60be:	mov    rdx,QWORD PTR [r14]
    60c1:	lea    rsi,[rip+0x16fb4]        # 1d07c <_IO_stdin_used+0xbc>
    60c8:	xor    eax,eax
    60ca:	mov    edi,0x1
    60cf:	call   44f0 <__printf_chk@plt>
    60d4:	mov    eax,DWORD PTR [rbx+0x4]
    60d7:	xor    ecx,ecx
    60d9:	mov    rsi,QWORD PTR [rbx+0x10]
    60dd:	test   eax,eax
    60df:	je     60ef <hvm_vmcall_summary+0x7f>
    60e1:	movsxd rcx,eax
    60e4:	xor    edx,edx
    60e6:	mov    rax,rsi
    60e9:	div    rcx
    60ec:	mov    rcx,rax
    60ef:	lea    rax,[rsi+rsi*4]
    60f3:	pxor   xmm1,xmm1
    60f7:	pxor   xmm0,xmm0
    60fb:	lea    rdx,[rax+rax*4]
    60ff:	shl    rdx,0x2
    6103:	test   rsi,rsi
    6106:	cvtsi2sd xmm0,QWORD PTR [rip+0x2270c1]        # 22d1d0 <P+0x30>
    610f:	cvtsi2sd xmm1,rdx
    6114:	divsd  xmm1,xmm0
    6118:	js     6348 <hvm_vmcall_summary+0x2d8>
    611e:	pxor   xmm0,xmm0
    6122:	cvtsi2sd xmm0,rsi
    6127:	pxor   xmm2,xmm2
    612b:	sub    rsp,0x8
    612f:	lea    rsi,[rip+0x196a2]        # 1f7d8 <_IO_stdin_used+0x2818>
    6136:	push   r13
    6138:	mov    edx,DWORD PTR [rbx]
    613a:	mov    r8,r12
    613d:	mov    edi,0x1
    6142:	mov    r9,r15
    6145:	mov    eax,0x2
    614a:	cvtsi2sd xmm2,QWORD PTR [rip+0x222f5d]        # 2290b0 <opt+0x10>
    6153:	divsd  xmm0,xmm2
    6157:	call   44f0 <__printf_chk@plt>
    615c:	pop    rdi
    615d:	pop    r8
    615f:	add    r14,0x8
    6163:	add    rbx,0x38
    6167:	cmp    r14,rbp
    616a:	je     6230 <hvm_vmcall_summary+0x1c0>
    6170:	mov    r10d,DWORD PTR [rbx]
    6173:	test   r10d,r10d
    6176:	je     615f <hvm_vmcall_summary+0xef>
    6178:	mov    r9d,DWORD PTR [rip+0x222f59]        # 2290d8 <opt+0x38>
    617f:	test   r9d,r9d
    6182:	jne    60a0 <hvm_vmcall_summary+0x30>
    6188:	mov    rdx,QWORD PTR [r14]
    618b:	lea    rsi,[rip+0x16eea]        # 1d07c <_IO_stdin_used+0xbc>
    6192:	xor    eax,eax
    6194:	mov    edi,0x1
    6199:	call   44f0 <__printf_chk@plt>
    619e:	mov    eax,DWORD PTR [rbx+0x4]
    61a1:	xor    ecx,ecx
    61a3:	mov    rsi,QWORD PTR [rbx+0x10]
    61a7:	test   eax,eax
    61a9:	je     61b9 <hvm_vmcall_summary+0x149>
    61ab:	movsxd rcx,eax
    61ae:	xor    edx,edx
    61b0:	mov    rax,rsi
    61b3:	div    rcx
    61b6:	mov    rcx,rax
    61b9:	lea    rdx,[rsi+rsi*4]
    61bd:	pxor   xmm1,xmm1
    61c1:	pxor   xmm0,xmm0
    61c5:	lea    rdx,[rdx+rdx*4]
    61c9:	shl    rdx,0x2
    61cd:	test   rsi,rsi
    61d0:	cvtsi2sd xmm0,QWORD PTR [rip+0x226ff7]        # 22d1d0 <P+0x30>
    61d9:	cvtsi2sd xmm1,rdx
    61de:	divsd  xmm1,xmm0
    61e2:	js     63b0 <hvm_vmcall_summary+0x340>
    61e8:	pxor   xmm0,xmm0
    61ec:	cvtsi2sd xmm0,rsi
    61f1:	pxor   xmm2,xmm2
    61f5:	mov    edx,DWORD PTR [rbx]
    61f7:	lea    rsi,[rip+0x19612]        # 1f810 <_IO_stdin_used+0x2850>
    61fe:	mov    edi,0x1
    6203:	mov    eax,0x2
    6208:	add    r14,0x8
    620c:	add    rbx,0x38
    6210:	cvtsi2sd xmm2,QWORD PTR [rip+0x222e97]        # 2290b0 <opt+0x10>
    6219:	divsd  xmm0,xmm2
    621d:	call   44f0 <__printf_chk@plt>
    6222:	cmp    r14,rbp
    6225:	jne    6170 <hvm_vmcall_summary+0x100>
    622b:	nop    DWORD PTR [rax+rax*1+0x0]
    6230:	mov    rax,QWORD PTR [rsp+0x8]
    6235:	mov    esi,DWORD PTR [rax+0x121c8]
    623b:	test   esi,esi
    623d:	je     6336 <hvm_vmcall_summary+0x2c6>
    6243:	mov    ecx,DWORD PTR [rip+0x222e8f]        # 2290d8 <opt+0x38>
    6249:	test   ecx,ecx
    624b:	je     63ce <hvm_vmcall_summary+0x35e>
    6251:	mov    r12d,DWORD PTR [rax+0x121cc]
    6258:	cmp    DWORD PTR [rax+0x121d0],r12d
    625f:	cmovle r12d,DWORD PTR [rax+0x121d0]
    6267:	test   r12d,r12d
    626a:	jne    64a8 <hvm_vmcall_summary+0x438>
    6270:	xor    r12d,r12d
    6273:	xor    ebx,ebx
    6275:	xor    ebp,ebp
    6277:	lea    rdx,[rip+0x1811e]        # 1e39c <_IO_stdin_used+0x13dc>
    627e:	lea    rsi,[rip+0x16df7]        # 1d07c <_IO_stdin_used+0xbc>
    6285:	xor    eax,eax
    6287:	mov    edi,0x1
    628c:	call   44f0 <__printf_chk@plt>
    6291:	mov    rcx,QWORD PTR [rsp+0x8]
    6296:	mov    eax,DWORD PTR [rcx+0x121cc]
    629c:	test   eax,eax
    629e:	je     647c <hvm_vmcall_summary+0x40c>
    62a4:	mov    rdi,QWORD PTR [rsp+0x8]
    62a9:	movsxd rcx,eax
    62ac:	xor    edx,edx
    62ae:	mov    rsi,QWORD PTR [rdi+0x121d8]
    62b5:	mov    rax,rsi
    62b8:	div    rcx
    62bb:	mov    rcx,rax
    62be:	lea    rdx,[rsi+rsi*4]
    62c2:	pxor   xmm1,xmm1
    62c6:	pxor   xmm0,xmm0
    62ca:	lea    rdx,[rdx+rdx*4]
    62ce:	shl    rdx,0x2
    62d2:	test   rsi,rsi
    62d5:	cvtsi2sd xmm0,QWORD PTR [rip+0x226ef2]        # 22d1d0 <P+0x30>
    62de:	cvtsi2sd xmm1,rdx
    62e3:	divsd  xmm1,xmm0
    62e7:	js     648a <hvm_vmcall_summary+0x41a>
    62ed:	pxor   xmm0,xmm0
    62f1:	cvtsi2sd xmm0,rsi
    62f6:	pxor   xmm2,xmm2
    62fa:	mov    rax,QWORD PTR [rsp+0x8]
    62ff:	sub    rsp,0x8
    6303:	lea    rsi,[rip+0x194ce]        # 1f7d8 <_IO_stdin_used+0x2818>
    630a:	mov    r9,rbp
    630d:	mov    r8,rbx
    6310:	mov    edi,0x1
    6315:	cvtsi2sd xmm2,QWORD PTR [rip+0x222d92]        # 2290b0 <opt+0x10>
    631e:	divsd  xmm0,xmm2
    6322:	mov    edx,DWORD PTR [rax+0x121c8]
    6328:	push   r12
    632a:	mov    eax,0x2
    632f:	call   44f0 <__printf_chk@plt>
    6334:	pop    rax
    6335:	pop    rdx
    6336:	add    rsp,0x18
    633a:	pop    rbx
    633b:	pop    rbp
    633c:	pop    r12
    633e:	pop    r13
    6340:	pop    r14
    6342:	pop    r15
    6344:	ret    
    6345:	nop    DWORD PTR [rax]
    6348:	mov    rdx,rsi
    634b:	pxor   xmm0,xmm0
    634f:	shr    rdx,1
    6352:	and    esi,0x1
    6355:	or     rdx,rsi
    6358:	cvtsi2sd xmm0,rdx
    635d:	addsd  xmm0,xmm0
    6361:	jmp    6127 <hvm_vmcall_summary+0xb7>
    6366:	nop    WORD PTR cs:[rax+rax*1+0x0]
    6370:	mov    rdi,QWORD PTR [rbx+0x18]
    6374:	mov    edx,0x32
    6379:	call   4b30 <percentile.part.6>
    637e:	mov    rdi,QWORD PTR [rbx+0x18]
    6382:	mov    esi,r13d
    6385:	mov    edx,0x5
    638a:	mov    r15,rax
    638d:	call   4b30 <percentile.part.6>
    6392:	mov    rdi,QWORD PTR [rbx+0x18]
    6396:	mov    esi,r13d
    6399:	mov    edx,0x5f
    639e:	mov    r12,rax
    63a1:	call   4b30 <percentile.part.6>
    63a6:	mov    r13,rax
    63a9:	jmp    60be <hvm_vmcall_summary+0x4e>
    63ae:	xchg   ax,ax
    63b0:	mov    rax,rsi
    63b3:	pxor   xmm0,xmm0
    63b7:	shr    rax,1
    63ba:	and    esi,0x1
    63bd:	or     rax,rsi
    63c0:	cvtsi2sd xmm0,rax
    63c5:	addsd  xmm0,xmm0
    63c9:	jmp    61f1 <hvm_vmcall_summary+0x181>
    63ce:	lea    rdx,[rip+0x17fc7]        # 1e39c <_IO_stdin_used+0x13dc>
    63d5:	lea    rsi,[rip+0x16ca0]        # 1d07c <_IO_stdin_used+0xbc>
    63dc:	mov    edi,0x1
    63e1:	xor    eax,eax
    63e3:	call   44f0 <__printf_chk@plt>
    63e8:	mov    rdi,QWORD PTR [rsp+0x8]
    63ed:	mov    eax,DWORD PTR [rdi+0x121cc]
    63f3:	test   eax,eax
    63f5:	jne    64f5 <hvm_vmcall_summary+0x485>
    63fb:	mov    rsi,QWORD PTR [rdi+0x121d8]
    6402:	xor    ecx,ecx
    6404:	lea    rdx,[rsi+rsi*4]
    6408:	pxor   xmm1,xmm1
    640c:	pxor   xmm0,xmm0
    6410:	lea    rdx,[rdx+rdx*4]
    6414:	shl    rdx,0x2
    6418:	test   rsi,rsi
    641b:	cvtsi2sd xmm0,QWORD PTR [rip+0x226dac]        # 22d1d0 <P+0x30>
    6424:	cvtsi2sd xmm1,rdx
    6429:	divsd  xmm1,xmm0
    642d:	js     6514 <hvm_vmcall_summary+0x4a4>
    6433:	pxor   xmm0,xmm0
    6437:	cvtsi2sd xmm0,rsi
    643c:	pxor   xmm2,xmm2
    6440:	mov    rax,QWORD PTR [rsp+0x8]
    6445:	lea    rsi,[rip+0x193c4]        # 1f810 <_IO_stdin_used+0x2850>
    644c:	mov    edi,0x1
    6451:	cvtsi2sd xmm2,QWORD PTR [rip+0x222c56]        # 2290b0 <opt+0x10>
    645a:	divsd  xmm0,xmm2
    645e:	mov    edx,DWORD PTR [rax+0x121c8]
    6464:	add    rsp,0x18
    6468:	mov    eax,0x2
    646d:	pop    rbx
    646e:	pop    rbp
    646f:	pop    r12
    6471:	pop    r13
    6473:	pop    r14
    6475:	pop    r15
    6477:	jmp    44f0 <__printf_chk@plt>
    647c:	mov    rsi,QWORD PTR [rcx+0x121d8]
    6483:	xor    ecx,ecx
    6485:	jmp    62be <hvm_vmcall_summary+0x24e>
    648a:	mov    rdx,rsi
    648d:	pxor   xmm0,xmm0
    6491:	shr    rdx,1
    6494:	and    esi,0x1
    6497:	or     rdx,rsi
    649a:	cvtsi2sd xmm0,rdx
    649f:	addsd  xmm0,xmm0
    64a3:	jmp    62f6 <hvm_vmcall_summary+0x286>
    64a8:	mov    rdi,QWORD PTR [rax+0x121e0]
    64af:	mov    r15,rax
    64b2:	mov    esi,r12d
    64b5:	mov    edx,0x32
    64ba:	call   4b30 <percentile.part.6>
    64bf:	mov    rdi,QWORD PTR [r15+0x121e0]
    64c6:	mov    esi,r12d
    64c9:	mov    edx,0x5
    64ce:	mov    rbp,rax
    64d1:	call   4b30 <percentile.part.6>
    64d6:	mov    rdi,QWORD PTR [r15+0x121e0]
    64dd:	mov    esi,r12d
    64e0:	mov    edx,0x5f
    64e5:	mov    rbx,rax
    64e8:	call   4b30 <percentile.part.6>
    64ed:	mov    r12,rax
    64f0:	jmp    6277 <hvm_vmcall_summary+0x207>
    64f5:	mov    rcx,QWORD PTR [rsp+0x8]
    64fa:	xor    edx,edx
    64fc:	mov    rsi,QWORD PTR [rcx+0x121d8]
    6503:	movsxd rcx,eax
    6506:	mov    rax,rsi
    6509:	div    rcx
    650c:	mov    rcx,rax
    650f:	jmp    6404 <hvm_vmcall_summary+0x394>
    6514:	mov    rdx,rsi
    6517:	pxor   xmm0,xmm0
    651b:	shr    rdx,1
    651e:	and    esi,0x1
    6521:	or     rdx,rsi
    6524:	cvtsi2sd xmm0,rdx
    6529:	addsd  xmm0,xmm0
    652d:	jmp    643c <hvm_vmcall_summary+0x3cc>
    6532:	nop    DWORD PTR [rax+0x0]
    6536:	nop    WORD PTR cs:[rax+rax*1+0x0]

0000000000006540 <hvm_generic_summary>:
    6540:	push   r15
    6542:	push   r14
    6544:	push   r13
    6546:	push   r12
    6548:	push   rbp
    6549:	push   rbx
    654a:	sub    rsp,0x8
    654e:	cmp    rsi,0x25
    6552:	jg     680e <hvm_generic_summary+0x2ce>
    6558:	lea    rax,[rsi*8+0x0]
    6560:	mov    rbx,rsi
    6563:	mov    r12,rdi
    6566:	sub    rax,rsi
    6569:	lea    rbp,[rdi+rax*8]
    656d:	mov    esi,DWORD PTR [rbp+0x12200]
    6573:	test   esi,esi
    6575:	je     668f <hvm_generic_summary+0x14f>
    657b:	mov    ecx,DWORD PTR [rip+0x222b57]        # 2290d8 <opt+0x38>
    6581:	test   ecx,ecx
    6583:	je     66a0 <hvm_generic_summary+0x160>
    6589:	mov    esi,DWORD PTR [rbp+0x12204]
    658f:	cmp    DWORD PTR [rbp+0x12208],esi
    6595:	cmovle esi,DWORD PTR [rbp+0x12208]
    659c:	test   esi,esi
    659e:	mov    r15d,esi
    65a1:	jne    67a0 <hvm_generic_summary+0x260>
    65a7:	xor    ebp,ebp
    65a9:	xor    r13d,r13d
    65ac:	xor    r14d,r14d
    65af:	lea    rax,[rip+0x2232aa]        # 229860 <hvm_event_handler_name>
    65b6:	lea    rsi,[rip+0x16af2]        # 1d0af <_IO_stdin_used+0xef>
    65bd:	mov    edi,0x1
    65c2:	mov    rdx,QWORD PTR [rax+rbx*8]
    65c6:	xor    eax,eax
    65c8:	call   44f0 <__printf_chk@plt>
    65cd:	lea    rax,[rbx*8+0x0]
    65d5:	xor    ecx,ecx
    65d7:	sub    rax,rbx
    65da:	lea    rdx,[r12+rax*8]
    65de:	mov    eax,DWORD PTR [rdx+0x12204]
    65e4:	mov    rsi,QWORD PTR [rdx+0x12210]
    65eb:	test   eax,eax
    65ed:	je     65fd <hvm_generic_summary+0xbd>
    65ef:	movsxd rcx,eax
    65f2:	xor    edx,edx
    65f4:	mov    rax,rsi
    65f7:	div    rcx
    65fa:	mov    rcx,rax
    65fd:	lea    rax,[rbx*8+0x0]
    6605:	pxor   xmm1,xmm1
    6609:	pxor   xmm0,xmm0
    660d:	sub    rax,rbx
    6610:	mov    rax,QWORD PTR [r12+rax*8+0x12210]
    6618:	cvtsi2sd xmm0,QWORD PTR [rip+0x226baf]        # 22d1d0 <P+0x30>
    6621:	lea    rax,[rax+rax*4]
    6625:	lea    rdx,[rax+rax*4]
    6629:	shl    rdx,0x2
    662d:	test   rsi,rsi
    6630:	cvtsi2sd xmm1,rdx
    6635:	divsd  xmm1,xmm0
    6639:	js     6778 <hvm_generic_summary+0x238>
    663f:	pxor   xmm0,xmm0
    6643:	cvtsi2sd xmm0,rsi
    6648:	pxor   xmm2,xmm2
    664c:	lea    rdx,[rbx*8+0x0]
    6654:	sub    rsp,0x8
    6658:	push   rbp
    6659:	lea    rsi,[rip+0x19178]        # 1f7d8 <_IO_stdin_used+0x2818>
    6660:	mov    r9,r14
    6663:	sub    rdx,rbx
    6666:	mov    r8,r13
    6669:	mov    edi,0x1
    666e:	cvtsi2sd xmm2,QWORD PTR [rip+0x222a39]        # 2290b0 <opt+0x10>
    6677:	divsd  xmm0,xmm2
    667b:	mov    edx,DWORD PTR [r12+rdx*8+0x12200]
    6683:	mov    eax,0x2
    6688:	call   44f0 <__printf_chk@plt>
    668d:	pop    rax
    668e:	pop    rdx
    668f:	add    rsp,0x8
    6693:	pop    rbx
    6694:	pop    rbp
    6695:	pop    r12
    6697:	pop    r13
    6699:	pop    r14
    669b:	pop    r15
    669d:	ret    
    669e:	xchg   ax,ax
    66a0:	lea    rax,[rip+0x2231b9]        # 229860 <hvm_event_handler_name>
    66a7:	lea    rsi,[rip+0x16a01]        # 1d0af <_IO_stdin_used+0xef>
    66ae:	mov    edi,0x1
    66b3:	mov    rdx,QWORD PTR [rax+rbx*8]
    66b7:	xor    eax,eax
    66b9:	call   44f0 <__printf_chk@plt>
    66be:	mov    eax,DWORD PTR [rbp+0x12204]
    66c4:	xor    ecx,ecx
    66c6:	mov    rsi,QWORD PTR [rbp+0x12210]
    66cd:	test   eax,eax
    66cf:	je     66df <hvm_generic_summary+0x19f>
    66d1:	movsxd rcx,eax
    66d4:	xor    edx,edx
    66d6:	mov    rax,rsi
    66d9:	div    rcx
    66dc:	mov    rcx,rax
    66df:	lea    rdx,[rbx*8+0x0]
    66e7:	pxor   xmm1,xmm1
    66eb:	pxor   xmm0,xmm0
    66ef:	sub    rdx,rbx
    66f2:	mov    rdx,QWORD PTR [r12+rdx*8+0x12210]
    66fa:	cvtsi2sd xmm0,QWORD PTR [rip+0x226acd]        # 22d1d0 <P+0x30>
    6703:	lea    rdx,[rdx+rdx*4]
    6707:	lea    rdx,[rdx+rdx*4]
    670b:	shl    rdx,0x2
    670f:	test   rsi,rsi
    6712:	cvtsi2sd xmm1,rdx
    6717:	divsd  xmm1,xmm0
    671b:	js     67f0 <hvm_generic_summary+0x2b0>
    6721:	pxor   xmm0,xmm0
    6725:	cvtsi2sd xmm0,rsi
    672a:	pxor   xmm2,xmm2
    672e:	lea    rdx,[rbx*8+0x0]
    6736:	lea    rsi,[rip+0x190d3]        # 1f810 <_IO_stdin_used+0x2850>
    673d:	mov    edi,0x1
    6742:	mov    eax,0x2
    6747:	sub    rdx,rbx
    674a:	cvtsi2sd xmm2,QWORD PTR [rip+0x22295d]        # 2290b0 <opt+0x10>
    6753:	divsd  xmm0,xmm2
    6757:	mov    edx,DWORD PTR [r12+rdx*8+0x12200]
    675f:	add    rsp,0x8
    6763:	pop    rbx
    6764:	pop    rbp
    6765:	pop    r12
    6767:	pop    r13
    6769:	pop    r14
    676b:	pop    r15
    676d:	jmp    44f0 <__printf_chk@plt>
    6772:	nop    WORD PTR [rax+rax*1+0x0]
    6778:	mov    rax,rsi
    677b:	pxor   xmm0,xmm0
    677f:	shr    rax,1
    6782:	and    esi,0x1
    6785:	or     rax,rsi
    6788:	cvtsi2sd xmm0,rax
    678d:	addsd  xmm0,xmm0
    6791:	jmp    6648 <hvm_generic_summary+0x108>
    6796:	nop    WORD PTR cs:[rax+rax*1+0x0]
    67a0:	mov    rdi,QWORD PTR [rbp+0x12218]
    67a7:	mov    edx,0x32
    67ac:	call   4b30 <percentile.part.6>
    67b1:	mov    rdi,QWORD PTR [rbp+0x12218]
    67b8:	mov    edx,0x5
    67bd:	mov    esi,r15d
    67c0:	mov    r14,rax
    67c3:	call   4b30 <percentile.part.6>
    67c8:	mov    rdi,QWORD PTR [rbp+0x12218]
    67cf:	mov    edx,0x5f
    67d4:	mov    esi,r15d
    67d7:	mov    r13,rax
    67da:	call   4b30 <percentile.part.6>
    67df:	mov    rbp,rax
    67e2:	jmp    65af <hvm_generic_summary+0x6f>
    67e7:	nop    WORD PTR [rax+rax*1+0x0]
    67f0:	mov    rax,rsi
    67f3:	pxor   xmm0,xmm0
    67f7:	shr    rax,1
    67fa:	and    esi,0x1
    67fd:	or     rax,rsi
    6800:	cvtsi2sd xmm0,rax
    6805:	addsd  xmm0,xmm0
    6809:	jmp    672a <hvm_generic_summary+0x1ea>
    680e:	lea    rcx,[rip+0x1cdcb]        # 235e0 <__PRETTY_FUNCTION__.6692>
    6815:	lea    rsi,[rip+0x1686c]        # 1d088 <_IO_stdin_used+0xc8>
    681c:	lea    rdi,[rip+0x16870]        # 1d093 <_IO_stdin_used+0xd3>
    6823:	mov    edx,0x11f7
    6828:	call   4400 <__assert_fail@plt>
    682d:	nop    DWORD PTR [rax]

0000000000006830 <hvm_vlapic_eoi_handler.part.12>:
    6830:	mov    rax,QWORD PTR [rdi+0x10]
    6834:	lea    rsi,[rip+0x18ffd]        # 1f838 <_IO_stdin_used+0x2878>
    683b:	mov    edi,0x1
    6840:	mov    rdx,QWORD PTR [rax+0x8]
    6844:	mov    ecx,DWORD PTR [rax]
    6846:	xor    eax,eax
    6848:	mov    edx,DWORD PTR [rdx+0x8]
    684b:	jmp    44f0 <__printf_chk@plt>

0000000000006850 <hvm_io_address_summary.part.14>:
    6850:	push   r13
    6852:	push   r12
    6854:	push   rbp
    6855:	push   rbx
    6856:	mov    rbx,rdi
    6859:	mov    rdi,rsi
    685c:	sub    rsp,0x8
    6860:	call   4380 <puts@plt>
    6865:	test   rbx,rbx
    6868:	je     6a2b <hvm_io_address_summary.part.14+0x1db>
    686e:	xchg   ax,ax
    6870:	mov    ecx,DWORD PTR [rbx+0xc]
    6873:	mov    eax,DWORD PTR [rbx+0x10]
    6876:	test   ecx,ecx
    6878:	je     6a40 <hvm_io_address_summary.part.14+0x1f0>
    687e:	test   eax,eax
    6880:	je     694b <hvm_io_address_summary.part.14+0xfb>
    6886:	mov    r13d,DWORD PTR [rip+0x22284b]        # 2290d8 <opt+0x38>
    688d:	test   r13d,r13d
    6890:	je     6d30 <hvm_io_address_summary.part.14+0x4e0>
    6896:	mov    esi,DWORD PTR [rbx+0x14]
    6899:	cmp    DWORD PTR [rbx+0x18],esi
    689c:	cmovle esi,DWORD PTR [rbx+0x18]
    68a0:	test   esi,esi
    68a2:	mov    r13d,esi
    68a5:	jne    6ef0 <hvm_io_address_summary.part.14+0x6a0>
    68ab:	xor    r13d,r13d
    68ae:	xor    ebp,ebp
    68b0:	xor    r12d,r12d
    68b3:	mov    edx,DWORD PTR [rbx+0x8]
    68b6:	lea    rsi,[rip+0x167f9]        # 1d0b6 <_IO_stdin_used+0xf6>
    68bd:	xor    eax,eax
    68bf:	mov    edi,0x1
    68c4:	call   44f0 <__printf_chk@plt>
    68c9:	mov    eax,DWORD PTR [rbx+0x14]
    68cc:	xor    ecx,ecx
    68ce:	mov    rsi,QWORD PTR [rbx+0x20]
    68d2:	test   eax,eax
    68d4:	jne    6bb0 <hvm_io_address_summary.part.14+0x360>
    68da:	lea    rdx,[rsi+rsi*4]
    68de:	pxor   xmm1,xmm1
    68e2:	pxor   xmm0,xmm0
    68e6:	lea    rdx,[rdx+rdx*4]
    68ea:	shl    rdx,0x2
    68ee:	test   rsi,rsi
    68f1:	cvtsi2sd xmm0,QWORD PTR [rip+0x2268d6]        # 22d1d0 <P+0x30>
    68fa:	cvtsi2sd xmm1,rdx
    68ff:	divsd  xmm1,xmm0
    6903:	js     6df0 <hvm_io_address_summary.part.14+0x5a0>
    6909:	pxor   xmm0,xmm0
    690d:	cvtsi2sd xmm0,rsi
    6912:	pxor   xmm2,xmm2
    6916:	sub    rsp,0x8
    691a:	mov    edx,DWORD PTR [rbx+0x10]
    691d:	lea    rsi,[rip+0x18eb4]        # 1f7d8 <_IO_stdin_used+0x2818>
    6924:	push   r13
    6926:	mov    r9,r12
    6929:	mov    r8,rbp
    692c:	mov    edi,0x1
    6931:	mov    eax,0x2
    6936:	cvtsi2sd xmm2,QWORD PTR [rip+0x222771]        # 2290b0 <opt+0x10>
    693f:	divsd  xmm0,xmm2
    6943:	call   44f0 <__printf_chk@plt>
    6948:	pop    rbp
    6949:	pop    r12
    694b:	mov    r11d,DWORD PTR [rbx+0x48]
    694f:	test   r11d,r11d
    6952:	je     6a1f <hvm_io_address_summary.part.14+0x1cf>
    6958:	mov    r10d,DWORD PTR [rip+0x222779]        # 2290d8 <opt+0x38>
    695f:	test   r10d,r10d
    6962:	je     6c60 <hvm_io_address_summary.part.14+0x410>
    6968:	mov    esi,DWORD PTR [rbx+0x4c]
    696b:	cmp    DWORD PTR [rbx+0x50],esi
    696e:	cmovle esi,DWORD PTR [rbx+0x50]
    6972:	test   esi,esi
    6974:	mov    r13d,esi
    6977:	jne    6e30 <hvm_io_address_summary.part.14+0x5e0>
    697d:	xor    r13d,r13d
    6980:	xor    ebp,ebp
    6982:	xor    r12d,r12d
    6985:	mov    ecx,DWORD PTR [rbx+0xc]
    6988:	mov    edx,DWORD PTR [rbx+0x8]
    698b:	lea    rsi,[rip+0x16731]        # 1d0c3 <_IO_stdin_used+0x103>
    6992:	xor    eax,eax
    6994:	mov    edi,0x1
    6999:	call   44f0 <__printf_chk@plt>
    699e:	mov    eax,DWORD PTR [rbx+0x4c]
    69a1:	mov    rsi,QWORD PTR [rbx+0x58]
    69a5:	test   eax,eax
    69a7:	jne    6b72 <hvm_io_address_summary.part.14+0x322>
    69ad:	xor    ecx,ecx
    69af:	lea    rdx,[rsi+rsi*4]
    69b3:	pxor   xmm1,xmm1
    69b7:	pxor   xmm0,xmm0
    69bb:	lea    rdx,[rdx+rdx*4]
    69bf:	shl    rdx,0x2
    69c3:	test   rsi,rsi
    69c6:	cvtsi2sd xmm0,QWORD PTR [rip+0x226801]        # 22d1d0 <P+0x30>
    69cf:	cvtsi2sd xmm1,rdx
    69d4:	divsd  xmm1,xmm0
    69d8:	js     6b88 <hvm_io_address_summary.part.14+0x338>
    69de:	pxor   xmm0,xmm0
    69e2:	cvtsi2sd xmm0,rsi
    69e7:	pxor   xmm2,xmm2
    69eb:	sub    rsp,0x8
    69ef:	mov    edx,DWORD PTR [rbx+0x48]
    69f2:	lea    rsi,[rip+0x18ddf]        # 1f7d8 <_IO_stdin_used+0x2818>
    69f9:	push   r13
    69fb:	mov    r9,r12
    69fe:	mov    r8,rbp
    6a01:	mov    edi,0x1
    6a06:	mov    eax,0x2
    6a0b:	cvtsi2sd xmm2,QWORD PTR [rip+0x22269c]        # 2290b0 <opt+0x10>
    6a14:	divsd  xmm0,xmm2
    6a18:	call   44f0 <__printf_chk@plt>
    6a1d:	pop    rax
    6a1e:	pop    rdx
    6a1f:	mov    rbx,QWORD PTR [rbx]
    6a22:	test   rbx,rbx
    6a25:	jne    6870 <hvm_io_address_summary.part.14+0x20>
    6a2b:	add    rsp,0x8
    6a2f:	pop    rbx
    6a30:	pop    rbp
    6a31:	pop    r12
    6a33:	pop    r13
    6a35:	ret    
    6a36:	nop    WORD PTR cs:[rax+rax*1+0x0]
    6a40:	test   eax,eax
    6a42:	je     6b17 <hvm_io_address_summary.part.14+0x2c7>
    6a48:	mov    r9d,DWORD PTR [rip+0x222689]        # 2290d8 <opt+0x38>
    6a4f:	test   r9d,r9d
    6a52:	je     6bc8 <hvm_io_address_summary.part.14+0x378>
    6a58:	mov    esi,DWORD PTR [rbx+0x14]
    6a5b:	cmp    DWORD PTR [rbx+0x18],esi
    6a5e:	cmovle esi,DWORD PTR [rbx+0x18]
    6a62:	test   esi,esi
    6a64:	mov    r13d,esi
    6a67:	jne    6eb0 <hvm_io_address_summary.part.14+0x660>
    6a6d:	xor    r13d,r13d
    6a70:	xor    ebp,ebp
    6a72:	xor    r12d,r12d
    6a75:	mov    edx,DWORD PTR [rbx+0x8]
    6a78:	lea    rsi,[rip+0x1663b]        # 1d0ba <_IO_stdin_used+0xfa>
    6a7f:	xor    eax,eax
    6a81:	mov    edi,0x1
    6a86:	call   44f0 <__printf_chk@plt>
    6a8b:	mov    eax,DWORD PTR [rbx+0x14]
    6a8e:	xor    ecx,ecx
    6a90:	mov    rsi,QWORD PTR [rbx+0x20]
    6a94:	test   eax,eax
    6a96:	je     6aa6 <hvm_io_address_summary.part.14+0x256>
    6a98:	movsxd rcx,eax
    6a9b:	xor    edx,edx
    6a9d:	mov    rax,rsi
    6aa0:	div    rcx
    6aa3:	mov    rcx,rax
    6aa6:	lea    rdx,[rsi+rsi*4]
    6aaa:	pxor   xmm1,xmm1
    6aae:	pxor   xmm0,xmm0
    6ab2:	lea    rdx,[rdx+rdx*4]
    6ab6:	shl    rdx,0x2
    6aba:	test   rsi,rsi
    6abd:	cvtsi2sd xmm0,QWORD PTR [rip+0x22670a]        # 22d1d0 <P+0x30>
    6ac6:	cvtsi2sd xmm1,rdx
    6acb:	divsd  xmm1,xmm0
    6acf:	js     6dd0 <hvm_io_address_summary.part.14+0x580>
    6ad5:	pxor   xmm0,xmm0
    6ad9:	cvtsi2sd xmm0,rsi
    6ade:	pxor   xmm2,xmm2
    6ae2:	sub    rsp,0x8
    6ae6:	mov    edx,DWORD PTR [rbx+0x10]
    6ae9:	lea    rsi,[rip+0x18ce8]        # 1f7d8 <_IO_stdin_used+0x2818>
    6af0:	push   r13
    6af2:	mov    r8,rbp
    6af5:	mov    edi,0x1
    6afa:	mov    r9,r12
    6afd:	mov    eax,0x2
    6b02:	cvtsi2sd xmm2,QWORD PTR [rip+0x2225a5]        # 2290b0 <opt+0x10>
    6b0b:	divsd  xmm0,xmm2
    6b0f:	call   44f0 <__printf_chk@plt>
    6b14:	pop    rdi
    6b15:	pop    r8
    6b17:	mov    esi,DWORD PTR [rbx+0x48]
    6b1a:	test   esi,esi
    6b1c:	je     6a1f <hvm_io_address_summary.part.14+0x1cf>
    6b22:	mov    ecx,DWORD PTR [rip+0x2225b0]        # 2290d8 <opt+0x38>
    6b28:	test   ecx,ecx
    6b2a:	je     6d00 <hvm_io_address_summary.part.14+0x4b0>
    6b30:	mov    esi,DWORD PTR [rbx+0x4c]
    6b33:	cmp    DWORD PTR [rbx+0x50],esi
    6b36:	cmovle esi,DWORD PTR [rbx+0x50]
    6b3a:	test   esi,esi
    6b3c:	mov    r13d,esi
    6b3f:	jne    6e70 <hvm_io_address_summary.part.14+0x620>
    6b45:	xor    r13d,r13d
    6b48:	xor    ebp,ebp
    6b4a:	xor    r12d,r12d
    6b4d:	mov    edx,DWORD PTR [rbx+0x8]
    6b50:	lea    rsi,[rip+0x16570]        # 1d0c7 <_IO_stdin_used+0x107>
    6b57:	xor    eax,eax
    6b59:	mov    edi,0x1
    6b5e:	call   44f0 <__printf_chk@plt>
    6b63:	mov    eax,DWORD PTR [rbx+0x4c]
    6b66:	mov    rsi,QWORD PTR [rbx+0x58]
    6b6a:	test   eax,eax
    6b6c:	je     69ad <hvm_io_address_summary.part.14+0x15d>
    6b72:	movsxd rcx,eax
    6b75:	xor    edx,edx
    6b77:	mov    rax,rsi
    6b7a:	div    rcx
    6b7d:	mov    rcx,rax
    6b80:	jmp    69af <hvm_io_address_summary.part.14+0x15f>
    6b85:	nop    DWORD PTR [rax]
    6b88:	mov    rax,rsi
    6b8b:	pxor   xmm0,xmm0
    6b8f:	shr    rax,1
    6b92:	and    esi,0x1
    6b95:	or     rax,rsi
    6b98:	cvtsi2sd xmm0,rax
    6b9d:	addsd  xmm0,xmm0
    6ba1:	jmp    69e7 <hvm_io_address_summary.part.14+0x197>
    6ba6:	nop    WORD PTR cs:[rax+rax*1+0x0]
    6bb0:	movsxd rcx,eax
    6bb3:	xor    edx,edx
    6bb5:	mov    rax,rsi
    6bb8:	div    rcx
    6bbb:	mov    rcx,rax
    6bbe:	jmp    68da <hvm_io_address_summary.part.14+0x8a>
    6bc3:	nop    DWORD PTR [rax+rax*1+0x0]
    6bc8:	mov    edx,DWORD PTR [rbx+0x8]
    6bcb:	lea    rsi,[rip+0x164e8]        # 1d0ba <_IO_stdin_used+0xfa>
    6bd2:	xor    eax,eax
    6bd4:	mov    edi,0x1
    6bd9:	call   44f0 <__printf_chk@plt>
    6bde:	mov    eax,DWORD PTR [rbx+0x14]
    6be1:	xor    ecx,ecx
    6be3:	mov    rsi,QWORD PTR [rbx+0x20]
    6be7:	test   eax,eax
    6be9:	je     6bf9 <hvm_io_address_summary.part.14+0x3a9>
    6beb:	movsxd rcx,eax
    6bee:	xor    edx,edx
    6bf0:	mov    rax,rsi
    6bf3:	div    rcx
    6bf6:	mov    rcx,rax
    6bf9:	lea    rdx,[rsi+rsi*4]
    6bfd:	pxor   xmm1,xmm1
    6c01:	pxor   xmm0,xmm0
    6c05:	lea    rdx,[rdx+rdx*4]
    6c09:	shl    rdx,0x2
    6c0d:	test   rsi,rsi
    6c10:	cvtsi2sd xmm0,QWORD PTR [rip+0x2265b7]        # 22d1d0 <P+0x30>
    6c19:	cvtsi2sd xmm1,rdx
    6c1e:	divsd  xmm1,xmm0
    6c22:	js     6f38 <hvm_io_address_summary.part.14+0x6e8>
    6c28:	pxor   xmm0,xmm0
    6c2c:	cvtsi2sd xmm0,rsi
    6c31:	pxor   xmm2,xmm2
    6c35:	mov    edx,DWORD PTR [rbx+0x10]
    6c38:	lea    rsi,[rip+0x18bd1]        # 1f810 <_IO_stdin_used+0x2850>
    6c3f:	mov    edi,0x1
    6c44:	mov    eax,0x2
    6c49:	cvtsi2sd xmm2,QWORD PTR [rip+0x22245e]        # 2290b0 <opt+0x10>
    6c52:	divsd  xmm0,xmm2
    6c56:	call   44f0 <__printf_chk@plt>
    6c5b:	jmp    6b17 <hvm_io_address_summary.part.14+0x2c7>
    6c60:	mov    ecx,DWORD PTR [rbx+0xc]
    6c63:	mov    edx,DWORD PTR [rbx+0x8]
    6c66:	lea    rsi,[rip+0x16456]        # 1d0c3 <_IO_stdin_used+0x103>
    6c6d:	xor    eax,eax
    6c6f:	mov    edi,0x1
    6c74:	call   44f0 <__printf_chk@plt>
    6c79:	mov    eax,DWORD PTR [rbx+0x4c]
    6c7c:	mov    rsi,QWORD PTR [rbx+0x58]
    6c80:	test   eax,eax
    6c82:	je     6d25 <hvm_io_address_summary.part.14+0x4d5>
    6c88:	movsxd rcx,eax
    6c8b:	xor    edx,edx
    6c8d:	mov    rax,rsi
    6c90:	div    rcx
    6c93:	mov    rcx,rax
    6c96:	lea    rdx,[rsi+rsi*4]
    6c9a:	pxor   xmm1,xmm1
    6c9e:	pxor   xmm0,xmm0
    6ca2:	lea    rdx,[rdx+rdx*4]
    6ca6:	shl    rdx,0x2
    6caa:	test   rsi,rsi
    6cad:	cvtsi2sd xmm0,QWORD PTR [rip+0x22651a]        # 22d1d0 <P+0x30>
    6cb6:	cvtsi2sd xmm1,rdx
    6cbb:	divsd  xmm1,xmm0
    6cbf:	js     6e10 <hvm_io_address_summary.part.14+0x5c0>
    6cc5:	pxor   xmm0,xmm0
    6cc9:	cvtsi2sd xmm0,rsi
    6cce:	pxor   xmm2,xmm2
    6cd2:	mov    edx,DWORD PTR [rbx+0x48]
    6cd5:	lea    rsi,[rip+0x18b34]        # 1f810 <_IO_stdin_used+0x2850>
    6cdc:	mov    edi,0x1
    6ce1:	mov    eax,0x2
    6ce6:	cvtsi2sd xmm2,QWORD PTR [rip+0x2223c1]        # 2290b0 <opt+0x10>
    6cef:	divsd  xmm0,xmm2
    6cf3:	call   44f0 <__printf_chk@plt>
    6cf8:	jmp    6a1f <hvm_io_address_summary.part.14+0x1cf>
    6cfd:	nop    DWORD PTR [rax]
    6d00:	mov    edx,DWORD PTR [rbx+0x8]
    6d03:	lea    rsi,[rip+0x163bd]        # 1d0c7 <_IO_stdin_used+0x107>
    6d0a:	xor    eax,eax
    6d0c:	mov    edi,0x1
    6d11:	call   44f0 <__printf_chk@plt>
    6d16:	mov    eax,DWORD PTR [rbx+0x4c]
    6d19:	mov    rsi,QWORD PTR [rbx+0x58]
    6d1d:	test   eax,eax
    6d1f:	jne    6c88 <hvm_io_address_summary.part.14+0x438>
    6d25:	xor    ecx,ecx
    6d27:	jmp    6c96 <hvm_io_address_summary.part.14+0x446>
    6d2c:	nop    DWORD PTR [rax+0x0]
    6d30:	mov    edx,DWORD PTR [rbx+0x8]
    6d33:	lea    rsi,[rip+0x1637c]        # 1d0b6 <_IO_stdin_used+0xf6>
    6d3a:	xor    eax,eax
    6d3c:	mov    edi,0x1
    6d41:	call   44f0 <__printf_chk@plt>
    6d46:	mov    eax,DWORD PTR [rbx+0x14]
    6d49:	xor    ecx,ecx
    6d4b:	mov    rsi,QWORD PTR [rbx+0x20]
    6d4f:	test   eax,eax
    6d51:	je     6d61 <hvm_io_address_summary.part.14+0x511>
    6d53:	movsxd rcx,eax
    6d56:	xor    edx,edx
    6d58:	mov    rax,rsi
    6d5b:	div    rcx
    6d5e:	mov    rcx,rax
    6d61:	lea    rdx,[rsi+rsi*4]
    6d65:	pxor   xmm1,xmm1
    6d69:	pxor   xmm0,xmm0
    6d6d:	lea    rdx,[rdx+rdx*4]
    6d71:	shl    rdx,0x2
    6d75:	test   rsi,rsi
    6d78:	cvtsi2sd xmm0,QWORD PTR [rip+0x22644f]        # 22d1d0 <P+0x30>
    6d81:	cvtsi2sd xmm1,rdx
    6d86:	divsd  xmm1,xmm0
    6d8a:	js     6f60 <hvm_io_address_summary.part.14+0x710>
    6d90:	pxor   xmm0,xmm0
    6d94:	cvtsi2sd xmm0,rsi
    6d99:	pxor   xmm2,xmm2
    6d9d:	mov    edx,DWORD PTR [rbx+0x10]
    6da0:	lea    rsi,[rip+0x18a69]        # 1f810 <_IO_stdin_used+0x2850>
    6da7:	mov    edi,0x1
    6dac:	mov    eax,0x2
    6db1:	cvtsi2sd xmm2,QWORD PTR [rip+0x2222f6]        # 2290b0 <opt+0x10>
    6dba:	divsd  xmm0,xmm2
    6dbe:	call   44f0 <__printf_chk@plt>
    6dc3:	jmp    694b <hvm_io_address_summary.part.14+0xfb>
    6dc8:	nop    DWORD PTR [rax+rax*1+0x0]
    6dd0:	mov    rax,rsi
    6dd3:	pxor   xmm0,xmm0
    6dd7:	shr    rax,1
    6dda:	and    esi,0x1
    6ddd:	or     rax,rsi
    6de0:	cvtsi2sd xmm0,rax
    6de5:	addsd  xmm0,xmm0
    6de9:	jmp    6ade <hvm_io_address_summary.part.14+0x28e>
    6dee:	xchg   ax,ax
    6df0:	mov    rax,rsi
    6df3:	pxor   xmm0,xmm0
    6df7:	shr    rax,1
    6dfa:	and    esi,0x1
    6dfd:	or     rax,rsi
    6e00:	cvtsi2sd xmm0,rax
    6e05:	addsd  xmm0,xmm0
    6e09:	jmp    6912 <hvm_io_address_summary.part.14+0xc2>
    6e0e:	xchg   ax,ax
    6e10:	mov    rax,rsi
    6e13:	pxor   xmm0,xmm0
    6e17:	shr    rax,1
    6e1a:	and    esi,0x1
    6e1d:	or     rax,rsi
    6e20:	cvtsi2sd xmm0,rax
    6e25:	addsd  xmm0,xmm0
    6e29:	jmp    6cce <hvm_io_address_summary.part.14+0x47e>
    6e2e:	xchg   ax,ax
    6e30:	mov    rdi,QWORD PTR [rbx+0x60]
    6e34:	mov    edx,0x32
    6e39:	call   4b30 <percentile.part.6>
    6e3e:	mov    rdi,QWORD PTR [rbx+0x60]
    6e42:	mov    esi,r13d
    6e45:	mov    edx,0x5
    6e4a:	mov    r12,rax
    6e4d:	call   4b30 <percentile.part.6>
    6e52:	mov    rdi,QWORD PTR [rbx+0x60]
    6e56:	mov    esi,r13d
    6e59:	mov    edx,0x5f
    6e5e:	mov    rbp,rax
    6e61:	call   4b30 <percentile.part.6>
    6e66:	mov    r13,rax
    6e69:	jmp    6985 <hvm_io_address_summary.part.14+0x135>
    6e6e:	xchg   ax,ax
    6e70:	mov    rdi,QWORD PTR [rbx+0x60]
    6e74:	mov    edx,0x32
    6e79:	call   4b30 <percentile.part.6>
    6e7e:	mov    rdi,QWORD PTR [rbx+0x60]
    6e82:	mov    esi,r13d
    6e85:	mov    edx,0x5
    6e8a:	mov    r12,rax
    6e8d:	call   4b30 <percentile.part.6>
    6e92:	mov    rdi,QWORD PTR [rbx+0x60]
    6e96:	mov    esi,r13d
    6e99:	mov    edx,0x5f
    6e9e:	mov    rbp,rax
    6ea1:	call   4b30 <percentile.part.6>
    6ea6:	mov    r13,rax
    6ea9:	jmp    6b4d <hvm_io_address_summary.part.14+0x2fd>
    6eae:	xchg   ax,ax
    6eb0:	mov    rdi,QWORD PTR [rbx+0x28]
    6eb4:	mov    edx,0x32
    6eb9:	call   4b30 <percentile.part.6>
    6ebe:	mov    rdi,QWORD PTR [rbx+0x28]
    6ec2:	mov    esi,r13d
    6ec5:	mov    edx,0x5
    6eca:	mov    r12,rax
    6ecd:	call   4b30 <percentile.part.6>
    6ed2:	mov    rdi,QWORD PTR [rbx+0x28]
    6ed6:	mov    esi,r13d
    6ed9:	mov    edx,0x5f
    6ede:	mov    rbp,rax
    6ee1:	call   4b30 <percentile.part.6>
    6ee6:	mov    r13,rax
    6ee9:	jmp    6a75 <hvm_io_address_summary.part.14+0x225>
    6eee:	xchg   ax,ax
    6ef0:	mov    rdi,QWORD PTR [rbx+0x28]
    6ef4:	mov    edx,0x32
    6ef9:	call   4b30 <percentile.part.6>
    6efe:	mov    rdi,QWORD PTR [rbx+0x28]
    6f02:	mov    esi,r13d
    6f05:	mov    edx,0x5
    6f0a:	mov    r12,rax
    6f0d:	call   4b30 <percentile.part.6>
    6f12:	mov    rdi,QWORD PTR [rbx+0x28]
    6f16:	mov    esi,r13d
    6f19:	mov    edx,0x5f
    6f1e:	mov    rbp,rax
    6f21:	call   4b30 <percentile.part.6>
    6f26:	mov    ecx,DWORD PTR [rbx+0xc]
    6f29:	mov    r13,rax
    6f2c:	jmp    68b3 <hvm_io_address_summary.part.14+0x63>
    6f31:	nop    DWORD PTR [rax+0x0]
    6f38:	mov    rax,rsi
    6f3b:	pxor   xmm0,xmm0
    6f3f:	shr    rax,1
    6f42:	and    esi,0x1
    6f45:	or     rax,rsi
    6f48:	cvtsi2sd xmm0,rax
    6f4d:	addsd  xmm0,xmm0
    6f51:	jmp    6c31 <hvm_io_address_summary.part.14+0x3e1>
    6f56:	nop    WORD PTR cs:[rax+rax*1+0x0]
    6f60:	mov    rax,rsi
    6f63:	pxor   xmm0,xmm0
    6f67:	shr    rax,1
    6f6a:	and    esi,0x1
    6f6d:	or     rax,rsi
    6f70:	cvtsi2sd xmm0,rax
    6f75:	addsd  xmm0,xmm0
    6f79:	jmp    6d99 <hvm_io_address_summary.part.14+0x549>
    6f7e:	xchg   ax,ax

0000000000006f80 <pv_summary.part.22>:
    6f80:	push   r15
    6f82:	push   r14
    6f84:	mov    r15,rdi
    6f87:	push   r13
    6f89:	push   r12
    6f8b:	lea    rdi,[rip+0x1613e]        # 1d0d0 <_IO_stdin_used+0x110>
    6f92:	push   rbp
    6f93:	push   rbx
    6f94:	xor    ebp,ebp
    6f96:	lea    r12,[rip+0x222743]        # 2296e0 <hypercall_name>
    6f9d:	lea    r14,[rip+0x2224dc]        # 229480 <pv_name>
    6fa4:	lea    r13,[rip+0x1614f]        # 1d0fa <_IO_stdin_used+0x13a>
    6fab:	sub    rsp,0x8
    6faf:	call   4380 <puts@plt>
    6fb4:	jmp    6fdf <pv_summary.part.22+0x5f>
    6fb6:	nop    WORD PTR cs:[rax+rax*1+0x0]
    6fc0:	cmp    ebp,0xd
    6fc3:	je     7060 <pv_summary.part.22+0xe0>
    6fc9:	cmp    ebp,0x1
    6fcc:	je     7060 <pv_summary.part.22+0xe0>
    6fd2:	cmp    ebp,0xe
    6fd5:	je     709b <pv_summary.part.22+0x11b>
    6fdb:	add    rbp,0x1
    6fdf:	cmp    rbp,0xd
    6fe3:	mov    ecx,DWORD PTR [r15+rbp*4+0x4]
    6fe8:	je     7039 <pv_summary.part.22+0xb9>
    6fea:	test   ecx,ecx
    6fec:	je     6fd2 <pv_summary.part.22+0x52>
    6fee:	mov    rdx,QWORD PTR [r14+rbp*8]
    6ff2:	lea    rsi,[rip+0x160e2]        # 1d0db <_IO_stdin_used+0x11b>
    6ff9:	xor    eax,eax
    6ffb:	mov    edi,0x1
    7000:	call   44f0 <__printf_chk@plt>
    7005:	cmp    ebp,0x3
    7008:	jne    6fc0 <pv_summary.part.22+0x40>
    700a:	xor    ebx,ebx
    700c:	jmp    701a <pv_summary.part.22+0x9a>
    700e:	xchg   ax,ax
    7010:	add    rbx,0x1
    7014:	cmp    rbx,0x14
    7018:	je     6fdb <pv_summary.part.22+0x5b>
    701a:	mov    ecx,DWORD PTR [r15+rbx*4+0x120]
    7022:	test   ecx,ecx
    7024:	je     7010 <pv_summary.part.22+0x90>
    7026:	mov    edx,ebx
    7028:	mov    rsi,r13
    702b:	mov    edi,0x1
    7030:	xor    eax,eax
    7032:	call   44f0 <__printf_chk@plt>
    7037:	jmp    7010 <pv_summary.part.22+0x90>
    7039:	add    ecx,DWORD PTR [r15+0x3c]
    703d:	je     6fdb <pv_summary.part.22+0x5b>
    703f:	mov    rdx,QWORD PTR [rip+0x2224a2]        # 2294e8 <pv_name+0x68>
    7046:	lea    rsi,[rip+0x1608e]        # 1d0db <_IO_stdin_used+0x11b>
    704d:	mov    edi,0x1
    7052:	xor    eax,eax
    7054:	call   44f0 <__printf_chk@plt>
    7059:	nop    DWORD PTR [rax+0x0]
    7060:	xor    ebx,ebx
    7062:	jmp    7076 <pv_summary.part.22+0xf6>
    7064:	nop    DWORD PTR [rax+0x0]
    7068:	add    rbx,0x1
    706c:	cmp    rbx,0x38
    7070:	je     6fd2 <pv_summary.part.22+0x52>
    7076:	mov    r8d,DWORD PTR [r15+rbx*4+0x40]
    707b:	test   r8d,r8d
    707e:	je     7068 <pv_summary.part.22+0xe8>
    7080:	mov    rdx,QWORD PTR [r12+rbx*8]
    7084:	lea    rsi,[rip+0x1605a]        # 1d0e5 <_IO_stdin_used+0x125>
    708b:	mov    ecx,ebx
    708d:	mov    edi,0x1
    7092:	xor    eax,eax
    7094:	call   44f0 <__printf_chk@plt>
    7099:	jmp    7068 <pv_summary.part.22+0xe8>
    709b:	add    rsp,0x8
    709f:	pop    rbx
    70a0:	pop    rbp
    70a1:	pop    r12
    70a3:	pop    r13
    70a5:	pop    r14
    70a7:	pop    r15
    70a9:	ret    
    70aa:	nop    WORD PTR [rax+rax*1+0x0]

00000000000070b0 <p2m_canonical_order.part.23>:
    70b0:	sub    rsp,0x8
    70b4:	mov    r8d,edi
    70b7:	mov    rdi,QWORD PTR [rip+0x25e19a]        # 265258 <warn>
    70be:	lea    rcx,[rip+0x1c23b]        # 23300 <__func__.7914>
    70c5:	lea    rdx,[rip+0x1878c]        # 1f858 <_IO_stdin_used+0x2898>
    70cc:	mov    esi,0x1
    70d1:	xor    eax,eax
    70d3:	call   4560 <__fprintf_chk@plt>
    70d8:	mov    eax,0x4
    70dd:	add    rsp,0x8
    70e1:	ret    
    70e2:	nop    DWORD PTR [rax+0x0]
    70e6:	nop    WORD PTR cs:[rax+rax*1+0x0]

00000000000070f0 <hvm_msr_read_summary>:
    70f0:	repz ret 
    70f2:	nop    DWORD PTR [rax+0x0]
    70f6:	nop    WORD PTR cs:[rax+rax*1+0x0]

0000000000007100 <init_hvm_data.part.25>:
    7100:	push   rbp
    7101:	push   rbx
    7102:	mov    rbx,rdi
    7105:	sub    rsp,0x8
    7109:	mov    QWORD PTR [rdi+0x10],rsi
    710d:	mov    DWORD PTR [rdi],0x1
    7113:	test   BYTE PTR [rip+0x221f89],0x10        # 2290a3 <opt+0x3>
    711a:	je     7160 <init_hvm_data.part.25+0x60>
    711c:	lea    rax,[rip+0x22311d]        # 22a240 <hvm_svm_exit_reason_name>
    7123:	mov    DWORD PTR [rdi+0x20],0x401
    712a:	mov    QWORD PTR [rdi+0x18],rax
    712e:	test   BYTE PTR [rip+0x221f6c],0x10        # 2290a1 <opt+0x1>
    7135:	jne    717b <init_hvm_data.part.25+0x7b>
    7137:	lea    rax,[rbx+0x12af8]
    713e:	lea    rdx,[rbx+0x27f00]
    7145:	nop    DWORD PTR [rax]
    7148:	mov    DWORD PTR [rax],0x0
    714e:	add    rax,0xf8
    7154:	cmp    rax,rdx
    7157:	jne    7148 <init_hvm_data.part.25+0x48>
    7159:	add    rsp,0x8
    715d:	pop    rbx
    715e:	pop    rbp
    715f:	ret    
    7160:	lea    rax,[rip+0x2250f9]        # 22c260 <hvm_vmx_exit_reason_name>
    7167:	mov    DWORD PTR [rdi+0x20],0x38
    716e:	mov    QWORD PTR [rdi+0x18],rax
    7172:	test   BYTE PTR [rip+0x221f28],0x10        # 2290a1 <opt+0x1>
    7179:	je     7137 <init_hvm_data.part.25+0x37>
    717b:	xor    edx,edx
    717d:	movabs rax,0x1000000000000
    7187:	mov    esi,0x1
    718c:	div    QWORD PTR [rip+0x221f35]        # 2290c8 <opt+0x28>
    7193:	cdqe   
    7195:	lea    rbp,[rax*4+0x0]
    719d:	mov    rdi,rbp
    71a0:	call   4460 <calloc@plt>
    71a5:	test   rax,rax
    71a8:	mov    QWORD PTR [rbx+0x10470],rax
    71af:	jne    7137 <init_hvm_data.part.25+0x37>
    71b1:	mov    rdi,QWORD PTR [rip+0x225288]        # 22c440 <stderr@@GLIBC_2.2.5>
    71b8:	lea    rdx,[rip+0x186c1]        # 1f880 <_IO_stdin_used+0x28c0>
    71bf:	xor    eax,eax
    71c1:	mov    rcx,rbp
    71c4:	mov    esi,0x1
    71c9:	call   4560 <__fprintf_chk@plt>
    71ce:	cmp    DWORD PTR [rip+0x221f0b],0x7        # 2290e0 <opt+0x40>
    71d5:	ja     7137 <init_hvm_data.part.25+0x37>
    71db:	mov    edi,0x1
    71e0:	call   4540 <exit@plt>
    71e5:	nop
    71e6:	nop    WORD PTR cs:[rax+rax*1+0x0]

00000000000071f0 <parse_symbol_file>:
    71f0:	push   r13
    71f2:	push   r12
    71f4:	lea    rsi,[rip+0x15f21]        # 1d11c <_IO_stdin_used+0x15c>
    71fb:	push   rbp
    71fc:	push   rbx
    71fd:	mov    rbx,rdi
    7200:	sub    rsp,0x8
    7204:	call   4520 <fopen@plt>
    7209:	test   rax,rax
    720c:	mov    rbp,rax
    720f:	je     7398 <parse_symbol_file+0x1a8>
    7215:	lea    rbx,[rip+0x221f14]        # 229130 <G+0x10>
    721c:	xor    r12d,r12d
    721f:	lea    r13,[rip+0x16153]        # 1d379 <_IO_stdin_used+0x3b9>
    7226:	jmp    72c0 <parse_symbol_file+0xd0>
    722b:	nop    DWORD PTR [rax+rax*1+0x0]
    7230:	movsxd rcx,DWORD PTR [rax]
    7233:	mov    edi,0xdeadbeef
    7238:	lea    rsi,[rip+0x15ee5]        # 1d124 <_IO_stdin_used+0x164>
    723f:	mov    rdx,rcx
    7242:	shl    rdx,0x4
    7246:	add    rdx,rcx
    7249:	mov    QWORD PTR [rax+rdx*8+0x8],rdi
    724e:	mov    rdx,QWORD PTR [rbx]
    7251:	mov    rdi,rbp
    7254:	movsxd rcx,DWORD PTR [rdx]
    7257:	mov    rax,rcx
    725a:	shl    rax,0x4
    725e:	add    rax,rcx
    7261:	shl    rax,0x3
    7265:	lea    rcx,[rdx+rax*1+0x10]
    726a:	lea    rdx,[rdx+rax*1+0x8]
    726f:	xor    eax,eax
    7271:	call   4370 <__isoc99_fscanf@plt>
    7276:	test   eax,eax
    7278:	je     7350 <parse_symbol_file+0x160>
    727e:	mov    rsi,QWORD PTR [rbx]
    7281:	movsxd rcx,DWORD PTR [rsi]
    7284:	mov    rax,rcx
    7287:	mov    rdx,rcx
    728a:	shl    rax,0x4
    728e:	add    rax,rcx
    7291:	shl    rax,0x3
    7295:	mov    rcx,QWORD PTR [rsi+rax*1+0x8]
    729a:	test   rcx,rcx
    729d:	je     72a4 <parse_symbol_file+0xb4>
    729f:	cmp    rcx,r12
    72a2:	jb     7310 <parse_symbol_file+0x120>
    72a4:	add    edx,0x1
    72a7:	mov    r12,rcx
    72aa:	mov    DWORD PTR [rsi],edx
    72ac:	mov    rax,QWORD PTR [rbx]
    72af:	cmp    DWORD PTR [rax],0x3ff
    72b5:	lea    rdx,[rax+0x21f80]
    72bc:	cmove  rbx,rdx
    72c0:	mov    rdi,rbp
    72c3:	call   4470 <feof@plt>
    72c8:	test   eax,eax
    72ca:	jne    7350 <parse_symbol_file+0x160>
    72d0:	mov    rax,QWORD PTR [rbx]
    72d3:	test   rax,rax
    72d6:	jne    7230 <parse_symbol_file+0x40>
    72dc:	mov    edi,0x21f88
    72e1:	call   4490 <malloc@plt>
    72e6:	test   rax,rax
    72e9:	mov    QWORD PTR [rbx],rax
    72ec:	je     7368 <parse_symbol_file+0x178>
    72ee:	mov    DWORD PTR [rax],0x0
    72f4:	mov    rax,QWORD PTR [rbx]
    72f7:	mov    QWORD PTR [rax+0x21f80],0x0
    7302:	mov    rax,QWORD PTR [rbx]
    7305:	jmp    7230 <parse_symbol_file+0x40>
    730a:	nop    WORD PTR [rax+rax*1+0x0]
    7310:	mov    rdi,QWORD PTR [rip+0x225129]        # 22c440 <stderr@@GLIBC_2.2.5>
    7317:	lea    r8,[rsi+rax*1+0x10]
    731c:	lea    rdx,[rip+0x185bd]        # 1f8e0 <_IO_stdin_used+0x2920>
    7323:	xor    eax,eax
    7325:	mov    r9,r12
    7328:	mov    esi,0x1
    732d:	call   4560 <__fprintf_chk@plt>
    7332:	cmp    DWORD PTR [rip+0x221da7],0x6        # 2290e0 <opt+0x40>
    7339:	jbe    73ce <parse_symbol_file+0x1de>
    733f:	mov    rsi,QWORD PTR [rbx]
    7342:	mov    rcx,r12
    7345:	mov    edx,DWORD PTR [rsi]
    7347:	jmp    72a4 <parse_symbol_file+0xb4>
    734c:	nop    DWORD PTR [rax+0x0]
    7350:	add    rsp,0x8
    7354:	mov    rdi,rbp
    7357:	pop    rbx
    7358:	pop    rbp
    7359:	pop    r12
    735b:	pop    r13
    735d:	jmp    43b0 <fclose@plt>
    7362:	nop    WORD PTR [rax+rax*1+0x0]
    7368:	mov    rcx,QWORD PTR [rip+0x2250d1]        # 22c440 <stderr@@GLIBC_2.2.5>
    736f:	mov    edx,0xf
    7374:	mov    esi,0x1
    7379:	mov    rdi,r13
    737c:	call   4550 <fwrite@plt>
    7381:	cmp    DWORD PTR [rip+0x221d58],0x7        # 2290e0 <opt+0x40>
    7388:	jbe    73ce <parse_symbol_file+0x1de>
    738a:	mov    rax,QWORD PTR [rbx]
    738d:	jmp    72ee <parse_symbol_file+0xfe>
    7392:	nop    WORD PTR [rax+rax*1+0x0]
    7398:	mov    rdi,QWORD PTR [rip+0x2250a1]        # 22c440 <stderr@@GLIBC_2.2.5>
    739f:	lea    rdx,[rip+0x1851a]        # 1f8c0 <_IO_stdin_used+0x2900>
    73a6:	mov    rcx,rbx
    73a9:	mov    esi,0x1
    73ae:	xor    eax,eax
    73b0:	call   4560 <__fprintf_chk@plt>
    73b5:	lea    rdi,[rip+0x15d63]        # 1d11f <_IO_stdin_used+0x15f>
    73bc:	call   4530 <perror@plt>
    73c1:	cmp    DWORD PTR [rip+0x221d18],0x7        # 2290e0 <opt+0x40>
    73c8:	ja     7215 <parse_symbol_file+0x25>
    73ce:	mov    edi,0x1
    73d3:	call   4540 <exit@plt>
    73d8:	nop    DWORD PTR [rax+rax*1+0x0]

00000000000073e0 <find_symbol>:
    73e0:	mov    r8,QWORD PTR [rip+0x221d49]        # 229130 <G+0x10>
    73e7:	test   r8,r8
    73ea:	je     7490 <find_symbol+0xb0>
    73f0:	lea    r9,[rip+0x15d38]        # 1d12f <_IO_stdin_used+0x16f>
    73f7:	sub    rsp,0x8
    73fb:	mov    rcx,rdi
    73fe:	mov    esi,DWORD PTR [r8]
    7401:	test   esi,esi
    7403:	jle    7445 <find_symbol+0x65>
    7405:	mov    rdx,QWORD PTR [r8+0x8]
    7409:	cmp    rdx,rdi
    740c:	ja     7451 <find_symbol+0x71>
    740e:	sub    esi,0x1
    7411:	lea    rax,[r8+0x10]
    7415:	mov    rcx,rsi
    7418:	shl    rcx,0x4
    741c:	add    rcx,rsi
    741f:	lea    rsi,[rax+rcx*8]
    7423:	jmp    7437 <find_symbol+0x57>
    7425:	nop    DWORD PTR [rax]
    7428:	add    rax,0x88
    742e:	mov    rdx,QWORD PTR [rax-0x8]
    7432:	cmp    rdx,rdi
    7435:	ja     7451 <find_symbol+0x71>
    7437:	mov    rcx,rdi
    743a:	mov    r9,rax
    743d:	sub    rcx,rdx
    7440:	cmp    rax,rsi
    7443:	jne    7428 <find_symbol+0x48>
    7445:	mov    r8,QWORD PTR [r8+0x21f80]
    744c:	test   r8,r8
    744f:	jne    73fe <find_symbol+0x1e>
    7451:	sub    rsp,0x8
    7455:	lea    r8,[rip+0x15cd8]        # 1d134 <_IO_stdin_used+0x174>
    745c:	lea    rdi,[rip+0x25ffbd]        # 267420 <name.4842>
    7463:	push   rcx
    7464:	mov    edx,0x1
    7469:	mov    ecx,0x90
    746e:	mov    esi,0x90
    7473:	xor    eax,eax
    7475:	call   4320 <__snprintf_chk@plt>
    747a:	lea    rax,[rip+0x25ff9f]        # 267420 <name.4842>
    7481:	add    rsp,0x18
    7485:	ret    
    7486:	nop    WORD PTR cs:[rax+rax*1+0x0]
    7490:	mov    BYTE PTR [rip+0x25ff89],0x0        # 267420 <name.4842>
    7497:	lea    rax,[rip+0x25ff82]        # 267420 <name.4842>
    749e:	ret    
    749f:	nop

00000000000074a0 <init_hvm_data>:
    74a0:	mov    eax,DWORD PTR [rdi]
    74a2:	test   eax,eax
    74a4:	jne    74b0 <init_hvm_data+0x10>
    74a6:	jmp    7100 <init_hvm_data.part.25>
    74ab:	nop    DWORD PTR [rax+rax*1+0x0]
    74b0:	repz ret 
    74b2:	nop    DWORD PTR [rax+0x0]
    74b6:	nop    WORD PTR cs:[rax+rax*1+0x0]

00000000000074c0 <volume_clear>:
    74c0:	mov    QWORD PTR [rdi],0x0
    74c7:	mov    QWORD PTR [rdi+0x58],0x0
    74cf:	mov    rcx,rdi
    74d2:	lea    rdi,[rdi+0x8]
    74d6:	xor    eax,eax
    74d8:	and    rdi,0xfffffffffffffff8
    74dc:	sub    rcx,rdi
    74df:	add    ecx,0x60
    74e2:	shr    ecx,0x3
    74e5:	rep stos QWORD PTR es:[rdi],rax
    74e8:	ret    
    74e9:	nop    DWORD PTR [rax+0x0]

00000000000074f0 <volume_summary>:
    74f0:	push   r15
    74f2:	push   r14
    74f4:	lea    r14,[rip+0x222315]        # 229810 <hvm_vol_name>
    74fb:	push   r13
    74fd:	push   r12
    74ff:	lea    r13,[rip+0x221dda]        # 2292e0 <toplevel_name>
    7506:	push   rbp
    7507:	push   rbx
    7508:	mov    rbp,rdi
    750b:	xor    ebx,ebx
    750d:	lea    r12,[rip+0x15c2b]        # 1d13f <_IO_stdin_used+0x17f>
    7514:	sub    rsp,0x8
    7518:	jmp    7529 <volume_summary+0x39>
    751a:	nop    WORD PTR [rax+rax*1+0x0]
    7520:	cmp    ebx,0x7
    7523:	je     7590 <volume_summary+0xa0>
    7525:	add    rbx,0x1
    7529:	mov    rcx,QWORD PTR [rbp+rbx*8+0x0]
    752e:	test   rcx,rcx
    7531:	je     7520 <volume_summary+0x30>
    7533:	mov    rdx,QWORD PTR [r13+rbx*8+0x0]
    7538:	xor    eax,eax
    753a:	mov    rsi,r12
    753d:	mov    edi,0x1
    7542:	call   44f0 <__printf_chk@plt>
    7547:	cmp    ebx,0x1
    754a:	je     75a0 <volume_summary+0xb0>
    754c:	cmp    ebx,0x3
    754f:	jne    7520 <volume_summary+0x30>
    7551:	xor    r15d,r15d
    7554:	mov    rcx,QWORD PTR [rbp+r15*1+0x48]
    7559:	test   rcx,rcx
    755c:	jne    7572 <volume_summary+0x82>
    755e:	add    r15,0x8
    7562:	cmp    r15,0x18
    7566:	je     7525 <volume_summary+0x35>
    7568:	mov    rcx,QWORD PTR [rbp+r15*1+0x48]
    756d:	test   rcx,rcx
    7570:	je     755e <volume_summary+0x6e>
    7572:	mov    rdx,QWORD PTR [r14+r15*1]
    7576:	lea    rsi,[rip+0x15be5]        # 1d162 <_IO_stdin_used+0x1a2>
    757d:	mov    edi,0x1
    7582:	xor    eax,eax
    7584:	call   44f0 <__printf_chk@plt>
    7589:	jmp    755e <volume_summary+0x6e>
    758b:	nop    DWORD PTR [rax+rax*1+0x0]
    7590:	add    rsp,0x8
    7594:	pop    rbx
    7595:	pop    rbp
    7596:	pop    r12
    7598:	pop    r13
    759a:	pop    r14
    759c:	pop    r15
    759e:	ret    
    759f:	nop
    75a0:	mov    rdx,QWORD PTR [rbp+0x40]
    75a4:	test   rdx,rdx
    75a7:	je     7525 <volume_summary+0x35>
    75ad:	lea    rsi,[rip+0x15b9a]        # 1d14e <_IO_stdin_used+0x18e>
    75b4:	mov    edi,0x1
    75b9:	xor    eax,eax
    75bb:	call   44f0 <__printf_chk@plt>
    75c0:	jmp    7525 <volume_summary+0x35>
    75c5:	nop
    75c6:	nop    WORD PTR cs:[rax+rax*1+0x0]

00000000000075d0 <cpumask_init>:
    75d0:	mov    DWORD PTR [rdi],0x0
    75d6:	ret    
    75d7:	nop    WORD PTR [rax+rax*1+0x0]

00000000000075e0 <cpumask_clear>:
    75e0:	mov    rax,0xfffffffffffffffe
    75e7:	mov    ecx,esi
    75e9:	rol    rax,cl
    75ec:	and    DWORD PTR [rdi],eax
    75ee:	ret    
    75ef:	nop

00000000000075f0 <cpumask_set>:
    75f0:	mov    eax,0x1
    75f5:	mov    ecx,esi
    75f7:	shl    rax,cl
    75fa:	or     DWORD PTR [rdi],eax
    75fc:	ret    
    75fd:	nop    DWORD PTR [rax]

0000000000007600 <cpumask_isset>:
    7600:	mov    eax,DWORD PTR [rdi]
    7602:	mov    ecx,esi
    7604:	shr    rax,cl
    7607:	and    eax,0x1
    760a:	ret    
    760b:	nop    DWORD PTR [rax+rax*1+0x0]

0000000000007610 <cpumask_union>:
    7610:	mov    eax,DWORD PTR [rsi]
    7612:	or     DWORD PTR [rdi],eax
    7614:	ret    
    7615:	nop
    7616:	nop    WORD PTR cs:[rax+rax*1+0x0]

0000000000007620 <cycles_to_time>:
    7620:	sub    rdi,QWORD PTR [rip+0x225b99]        # 22d1c0 <P+0x20>
    7627:	xor    edx,edx
    7629:	movabs rcx,0x44b82fa09b5a53
    7633:	shl    rdi,0xa
    7637:	mov    rax,rdi
    763a:	div    QWORD PTR [rip+0x221a67]        # 2290a8 <opt+0x8>
    7641:	mov    rdx,rax
    7644:	mov    rdi,rax
    7647:	mov    QWORD PTR [rsi],rax
    764a:	shr    rdx,0x9
    764e:	mov    rax,rdx
    7651:	mul    rcx
    7654:	shr    rdx,0xb
    7658:	mov    DWORD PTR [rsi+0x8],edx
    765b:	imul   edx,edx,0x3b9aca00
    7661:	sub    edi,edx
    7663:	mov    DWORD PTR [rsi+0xc],edi
    7666:	ret    
    7667:	nop    WORD PTR [rax+rax*1+0x0]

0000000000007670 <abs_cycles_to_time>:
    7670:	mov    rax,QWORD PTR [rip+0x225b49]        # 22d1c0 <P+0x20>
    7677:	cmp    rax,rdi
    767a:	jb     7690 <abs_cycles_to_time+0x20>
    767c:	mov    QWORD PTR [rsi],0x0
    7683:	mov    QWORD PTR [rsi+0x8],0x0
    768b:	ret    
    768c:	nop    DWORD PTR [rax+0x0]
    7690:	sub    rdi,rax
    7693:	xor    edx,edx
    7695:	movabs rcx,0x44b82fa09b5a53
    769f:	shl    rdi,0xa
    76a3:	mov    rax,rdi
    76a6:	div    QWORD PTR [rip+0x2219fb]        # 2290a8 <opt+0x8>
    76ad:	mov    rdx,rax
    76b0:	mov    rdi,rax
    76b3:	mov    QWORD PTR [rsi],rax
    76b6:	shr    rdx,0x9
    76ba:	mov    rax,rdx
    76bd:	mul    rcx
    76c0:	shr    rdx,0xb
    76c4:	mov    DWORD PTR [rsi+0x8],edx
    76c7:	imul   edx,edx,0x3b9aca00
    76cd:	sub    edi,edx
    76cf:	mov    DWORD PTR [rsi+0xc],edi
    76d2:	ret    
    76d3:	nop    DWORD PTR [rax]
    76d6:	nop    WORD PTR cs:[rax+rax*1+0x0]

00000000000076e0 <abs_cycles_to_global>:
    76e0:	mov    rdx,QWORD PTR [rip+0x225ad9]        # 22d1c0 <P+0x20>
    76e7:	mov    rax,rdi
    76ea:	sub    rax,rdx
    76ed:	cmp    rdx,rdi
    76f0:	mov    edx,0x0
    76f5:	cmovae rax,rdx
    76f9:	ret    
    76fa:	nop    WORD PTR [rax+rax*1+0x0]

0000000000007700 <scatterplot_vs_time>:
    7700:	mov    rax,QWORD PTR [rip+0x225ab9]        # 22d1c0 <P+0x20>
    7707:	mov    r8,rsi
    770a:	cmp    rdi,rax
    770d:	jbe    7760 <scatterplot_vs_time+0x60>
    770f:	sub    rdi,rax
    7712:	xor    edx,edx
    7714:	mov    rcx,rdi
    7717:	shl    rcx,0xa
    771b:	mov    rax,rcx
    771e:	div    QWORD PTR [rip+0x221983]        # 2290a8 <opt+0x8>
    7725:	movabs rdx,0x44b82fa09b5a53
    772f:	mov    rcx,rax
    7732:	shr    rax,0x9
    7736:	mul    rdx
    7739:	mov    rax,rdx
    773c:	shr    rax,0xb
    7740:	mov    edx,eax
    7742:	imul   eax,eax,0x3b9aca00
    7748:	sub    ecx,eax
    774a:	lea    rsi,[rip+0x15d5e]        # 1d4af <_IO_stdin_used+0x4ef>
    7751:	mov    edi,0x1
    7756:	xor    eax,eax
    7758:	jmp    44f0 <__printf_chk@plt>
    775d:	nop    DWORD PTR [rax]
    7760:	xor    ecx,ecx
    7762:	xor    edx,edx
    7764:	jmp    774a <scatterplot_vs_time+0x4a>
    7766:	nop    WORD PTR cs:[rax+rax*1+0x0]

0000000000007770 <percentile>:
    7770:	test   esi,esi
    7772:	je     7780 <percentile+0x10>
    7774:	jmp    4b30 <percentile.part.6>
    7779:	nop    DWORD PTR [rax+0x0]
    7780:	xor    eax,eax
    7782:	ret    
    7783:	nop    DWORD PTR [rax]
    7786:	nop    WORD PTR cs:[rax+rax*1+0x0]

0000000000007790 <weighted_percentile>:
    7790:	push   r15
    7792:	push   r14
    7794:	push   r13
    7796:	push   r12
    7798:	push   rbp
    7799:	push   rbx
    779a:	sub    rsp,0x38
    779e:	test   edx,edx
    77a0:	jle    797d <weighted_percentile+0x1ed>
    77a6:	mov    r8,QWORD PTR [rsi]
    77a9:	test   r8,r8
    77ac:	je     7992 <weighted_percentile+0x202>
    77b2:	lea    rax,[rsi+0x8]
    77b6:	sub    edx,0x1
    77b9:	xor    r9d,r9d
    77bc:	mov    r10,rdx
    77bf:	lea    rdx,[rax+rdx*8]
    77c3:	jmp    77d9 <weighted_percentile+0x49>
    77c5:	nop    DWORD PTR [rax]
    77c8:	add    rax,0x8
    77cc:	mov    r8,QWORD PTR [rax-0x8]
    77d0:	test   r8,r8
    77d3:	je     7992 <weighted_percentile+0x202>
    77d9:	add    r9,r8
    77dc:	cmp    rdx,rax
    77df:	jne    77c8 <weighted_percentile+0x38>
    77e1:	movsxd rdx,ecx
    77e4:	movabs rcx,0x28f5c28f5c28f5c3
    77ee:	imul   rdx,r9
    77f2:	shr    rdx,0x2
    77f6:	mov    rax,rdx
    77f9:	mul    rcx
    77fc:	shr    rdx,0x2
    7800:	mov    QWORD PTR [rsp+0x18],rdx
    7805:	movsxd rdx,r10d
    7808:	sub    r9,QWORD PTR [rsi+rdx*8]
    780c:	test   edx,edx
    780e:	mov    r15,rdx
    7811:	mov    QWORD PTR [rsp+0x10],r9
    7816:	jle    796a <weighted_percentile+0x1da>
    781c:	mov    QWORD PTR [rsp+0x28],0x0
    7825:	xor    r13d,r13d
    7828:	mov    QWORD PTR [rsp+0x20],0x0
    7831:	nop    DWORD PTR [rax+0x0]
    7838:	lea    eax,[r15+r13*1]
    783c:	mov    r8,QWORD PTR [rsp+0x10]
    7841:	mov    rbx,QWORD PTR [rsp+0x28]
    7846:	movss  xmm0,DWORD PTR [rdi+rdx*4]
    784b:	mov    ecx,r15d
    784e:	sar    eax,1
    7850:	xor    r9d,r9d
    7853:	movsxd rdx,r15d
    7856:	cdqe   
    7858:	movss  xmm1,DWORD PTR [rdi+rax*4]
    785d:	mov    rax,QWORD PTR [rsp+0x20]
    7862:	lea    r12,[rdi+rax*4]
    7866:	lea    rbp,[rsi+rax*8]
    786a:	lea    eax,[r13+0x1]
    786e:	mov    DWORD PTR [rsp+0xc],eax
    7872:	nop    WORD PTR [rax+rax*1+0x0]
    7878:	movss  xmm2,DWORD PTR [r12+r9*4]
    787e:	mov    r14d,r9d
    7881:	lea    r11d,[r13+r9*1+0x0]
    7886:	ucomiss xmm1,xmm2
    7889:	ja     7900 <weighted_percentile+0x170>
    788b:	ucomiss xmm0,xmm1
    788e:	lea    rax,[rdi+rdx*4-0x4]
    7893:	jbe    7958 <weighted_percentile+0x1c8>
    7899:	nop    DWORD PTR [rax+0x0]
    78a0:	mov    r10,rax
    78a3:	sub    rax,0x4
    78a7:	sub    r8,QWORD PTR [rsi+rdx*8]
    78ab:	movss  xmm0,DWORD PTR [rax+0x4]
    78b0:	sub    ecx,0x1
    78b3:	sub    rdx,0x1
    78b7:	ucomiss xmm0,xmm1
    78ba:	ja     78a0 <weighted_percentile+0x110>
    78bc:	cmp    r11d,ecx
    78bf:	jle    7910 <weighted_percentile+0x180>
    78c1:	cmp    r8,QWORD PTR [rsp+0x18]
    78c6:	jae    78d8 <weighted_percentile+0x148>
    78c8:	movsxd rax,r11d
    78cb:	mov    QWORD PTR [rsp+0x28],rbx
    78d0:	mov    r13,rax
    78d3:	mov    QWORD PTR [rsp+0x20],rax
    78d8:	mov    rax,QWORD PTR [rsp+0x18]
    78dd:	cmp    rbx,rax
    78e0:	cmovbe r8,QWORD PTR [rsp+0x10]
    78e6:	cmova  r15d,ecx
    78ea:	cmp    r15d,r13d
    78ed:	mov    QWORD PTR [rsp+0x10],r8
    78f2:	jle    7961 <weighted_percentile+0x1d1>
    78f4:	movsxd rdx,r15d
    78f7:	jmp    7838 <weighted_percentile+0xa8>
    78fc:	nop    DWORD PTR [rax+0x0]
    7900:	add    rbx,QWORD PTR [rbp+r9*8+0x0]
    7905:	add    r9,0x1
    7909:	jmp    7878 <weighted_percentile+0xe8>
    790e:	xchg   ax,ax
    7910:	lea    rdx,[rsi+rdx*8]
    7914:	movss  DWORD PTR [r12+r9*4],xmm0
    791a:	sub    ecx,0x1
    791d:	movss  DWORD PTR [r10],xmm2
    7922:	mov    rax,QWORD PTR [rbp+r9*8+0x0]
    7927:	mov    r10,QWORD PTR [rdx]
    792a:	sub    r8,rax
    792d:	mov    QWORD PTR [rbp+r9*8+0x0],r10
    7932:	mov    QWORD PTR [rdx],rax
    7935:	mov    edx,DWORD PTR [rsp+0xc]
    7939:	add    rbx,QWORD PTR [rbp+r9*8+0x0]
    793e:	lea    r11d,[rdx+r14*1]
    7942:	cmp    ecx,r11d
    7945:	jl     78c1 <weighted_percentile+0x131>
    794b:	movsxd rdx,ecx
    794e:	movss  xmm0,DWORD PTR [rdi+rdx*4]
    7953:	jmp    7905 <weighted_percentile+0x175>
    7955:	nop    DWORD PTR [rax]
    7958:	lea    r10,[rdi+rdx*4]
    795c:	jmp    78bc <weighted_percentile+0x12c>
    7961:	mov    rax,QWORD PTR [rsp+0x20]
    7966:	lea    rdi,[rdi+rax*4]
    796a:	movss  xmm0,DWORD PTR [rdi]
    796e:	add    rsp,0x38
    7972:	pop    rbx
    7973:	pop    rbp
    7974:	pop    r12
    7976:	pop    r13
    7978:	pop    r14
    797a:	pop    r15
    797c:	ret    
    797d:	mov    QWORD PTR [rsp+0x18],0x0
    7986:	xor    r9d,r9d
    7989:	lea    r10d,[rdx-0x1]
    798d:	jmp    7805 <weighted_percentile+0x75>
    7992:	lea    rcx,[rip+0x1bef7]        # 23890 <__PRETTY_FUNCTION__.5713>
    7999:	lea    rsi,[rip+0x156e8]        # 1d088 <_IO_stdin_used+0xc8>
    79a0:	lea    rdi,[rip+0x157cc]        # 1d173 <_IO_stdin_used+0x1b3>
    79a7:	mov    edx,0x7fa
    79ac:	call   4400 <__assert_fail@plt>
    79b1:	nop    DWORD PTR [rax+rax*1+0x0]
    79b6:	nop    WORD PTR cs:[rax+rax*1+0x0]

00000000000079c0 <self_weighted_percentile>:
    79c0:	push   r15
    79c2:	push   r14
    79c4:	push   r13
    79c6:	push   r12
    79c8:	push   rbp
    79c9:	push   rbx
    79ca:	mov    rbx,rdi
    79cd:	sub    rsp,0x28
    79d1:	test   esi,esi
    79d3:	mov    DWORD PTR [rsp+0x8],edx
    79d7:	jle    7b9c <self_weighted_percentile+0x1dc>
    79dd:	lea    eax,[rsi-0x1]
    79e0:	mov    r15,rdi
    79e3:	xor    r14d,r14d
    79e6:	lea    r12,[rip+0x1be83]        # 23870 <__func__.5746>
    79ed:	mov    r13,rax
    79f0:	lea    rbp,[rdi+rax*8+0x8]
    79f5:	jmp    7a15 <self_weighted_percentile+0x55>
    79f7:	nop    WORD PTR [rax+rax*1+0x0]
    7a00:	test   r8,r8
    7a03:	je     7bb1 <self_weighted_percentile+0x1f1>
    7a09:	add    r15,0x8
    7a0d:	add    r14,r8
    7a10:	cmp    rbp,r15
    7a13:	je     7a3f <self_weighted_percentile+0x7f>
    7a15:	mov    r8,QWORD PTR [r15]
    7a18:	test   r8,r8
    7a1b:	jns    7a00 <self_weighted_percentile+0x40>
    7a1d:	mov    rdi,QWORD PTR [rip+0x25d834]        # 265258 <warn>
    7a24:	lea    rdx,[rip+0x17eed]        # 1f918 <_IO_stdin_used+0x2958>
    7a2b:	mov    rcx,r12
    7a2e:	mov    esi,0x1
    7a33:	xor    eax,eax
    7a35:	call   4560 <__fprintf_chk@plt>
    7a3a:	mov    r8,QWORD PTR [r15]
    7a3d:	jmp    7a00 <self_weighted_percentile+0x40>
    7a3f:	movsxd rbp,DWORD PTR [rsp+0x8]
    7a44:	movabs rdx,0xa3d70a3d70a3d70b
    7a4e:	imul   rbp,r14
    7a52:	mov    rax,rbp
    7a55:	imul   rdx
    7a58:	add    rdx,rbp
    7a5b:	sar    rbp,0x3f
    7a5f:	sar    rdx,0x6
    7a63:	sub    rdx,rbp
    7a66:	mov    QWORD PTR [rsp+0x8],rdx
    7a6b:	movsxd rax,r13d
    7a6e:	mov    rdx,QWORD PTR [rbx+rax*8]
    7a72:	sub    r14,rdx
    7a75:	test   r13d,r13d
    7a78:	jle    7b8a <self_weighted_percentile+0x1ca>
    7a7e:	mov    QWORD PTR [rsp+0x18],0x0
    7a87:	xor    r15d,r15d
    7a8a:	mov    QWORD PTR [rsp+0x10],0x0
    7a93:	nop    DWORD PTR [rax+rax*1+0x0]
    7a98:	lea    eax,[r15+r13*1]
    7a9c:	mov    rbp,QWORD PTR [rsp+0x18]
    7aa1:	mov    edi,r15d
    7aa4:	mov    rsi,r14
    7aa7:	mov    ecx,r13d
    7aaa:	sar    eax,1
    7aac:	cdqe   
    7aae:	mov    r8,QWORD PTR [rbx+rax*8]
    7ab2:	mov    rax,QWORD PTR [rsp+0x10]
    7ab7:	lea    r10,[rbx+rax*8]
    7abb:	movsxd rax,r13d
    7abe:	xchg   ax,ax
    7ac0:	mov    r11,QWORD PTR [r10]
    7ac3:	mov    r12d,edi
    7ac6:	cmp    r11,r8
    7ac9:	jl     7b38 <self_weighted_percentile+0x178>
    7acb:	cmp    r8,rdx
    7ace:	jge    7b78 <self_weighted_percentile+0x1b8>
    7ad4:	lea    rax,[rbx+rax*8-0x8]
    7ad9:	nop    DWORD PTR [rax+0x0]
    7ae0:	mov    r9,rax
    7ae3:	sub    rax,0x8
    7ae7:	sub    rsi,rdx
    7aea:	mov    rdx,QWORD PTR [rax+0x8]
    7aee:	sub    ecx,0x1
    7af1:	cmp    rdx,r8
    7af4:	jg     7ae0 <self_weighted_percentile+0x120>
    7af6:	cmp    edi,ecx
    7af8:	jle    7b50 <self_weighted_percentile+0x190>
    7afa:	cmp    rsi,QWORD PTR [rsp+0x8]
    7aff:	jge    7b11 <self_weighted_percentile+0x151>
    7b01:	movsxd rax,r12d
    7b04:	mov    QWORD PTR [rsp+0x18],rbp
    7b09:	mov    r15,rax
    7b0c:	mov    QWORD PTR [rsp+0x10],rax
    7b11:	mov    rax,QWORD PTR [rsp+0x8]
    7b16:	cmp    rbp,rax
    7b19:	cmovg  r13d,ecx
    7b1d:	cmovg  r14,rsi
    7b21:	cmp    r13d,r15d
    7b24:	jle    7b81 <self_weighted_percentile+0x1c1>
    7b26:	movsxd rax,r13d
    7b29:	mov    rdx,QWORD PTR [rbx+rax*8]
    7b2d:	jmp    7a98 <self_weighted_percentile+0xd8>
    7b32:	nop    WORD PTR [rax+rax*1+0x0]
    7b38:	add    rbp,r11
    7b3b:	add    edi,0x1
    7b3e:	add    r10,0x8
    7b42:	jmp    7ac0 <self_weighted_percentile+0x100>
    7b47:	nop    WORD PTR [rax+rax*1+0x0]
    7b50:	add    edi,0x1
    7b53:	sub    ecx,0x1
    7b56:	mov    QWORD PTR [r10],rdx
    7b59:	sub    rsi,r11
    7b5c:	mov    QWORD PTR [r9],r11
    7b5f:	add    rbp,QWORD PTR [r10]
    7b62:	cmp    ecx,edi
    7b64:	mov    r12d,edi
    7b67:	jl     7afa <self_weighted_percentile+0x13a>
    7b69:	movsxd rax,ecx
    7b6c:	mov    rdx,QWORD PTR [rbx+rax*8]
    7b70:	jmp    7b3e <self_weighted_percentile+0x17e>
    7b72:	nop    WORD PTR [rax+rax*1+0x0]
    7b78:	lea    r9,[rbx+rax*8]
    7b7c:	jmp    7af6 <self_weighted_percentile+0x136>
    7b81:	mov    rax,QWORD PTR [rsp+0x10]
    7b86:	lea    rbx,[rbx+rax*8]
    7b8a:	mov    rax,QWORD PTR [rbx]
    7b8d:	add    rsp,0x28
    7b91:	pop    rbx
    7b92:	pop    rbp
    7b93:	pop    r12
    7b95:	pop    r13
    7b97:	pop    r14
    7b99:	pop    r15
    7b9b:	ret    
    7b9c:	mov    QWORD PTR [rsp+0x8],0x0
    7ba5:	xor    r14d,r14d
    7ba8:	lea    r13d,[rsi-0x1]
    7bac:	jmp    7a6b <self_weighted_percentile+0xab>
    7bb1:	lea    rcx,[rip+0x1bc98]        # 23850 <__PRETTY_FUNCTION__.5747>
    7bb8:	lea    rsi,[rip+0x154c9]        # 1d088 <_IO_stdin_used+0xc8>
    7bbf:	lea    rdi,[rip+0x155b5]        # 1d17b <_IO_stdin_used+0x1bb>
    7bc6:	mov    edx,0x851
    7bcb:	call   4400 <__assert_fail@plt>

0000000000007bd0 <hvm_summary.part.19>:
    7bd0:	push   r15
    7bd2:	push   r14
    7bd4:	push   r13
    7bd6:	push   r12
    7bd8:	mov    r13,rdi
    7bdb:	push   rbp
    7bdc:	push   rbx
    7bdd:	lea    rdi,[rip+0x1559f]        # 1d183 <_IO_stdin_used+0x1c3>
    7be4:	sub    rsp,0x98
    7beb:	mov    rax,QWORD PTR fs:0x28
    7bf4:	mov    QWORD PTR [rsp+0x88],rax
    7bfc:	xor    eax,eax
    7bfe:	call   4380 <puts@plt>
    7c03:	mov    r15d,DWORD PTR [r13+0x20]
    7c07:	test   r15d,r15d
    7c0a:	jle    7d57 <hvm_summary.part.19+0x187>
    7c10:	lea    r12,[r13+0x2030]
    7c17:	xor    ebp,ebp
    7c19:	nop    DWORD PTR [rax+0x0]
    7c20:	mov    rax,QWORD PTR [r13+0x18]
    7c24:	mov    r9d,ebp
    7c27:	lea    r8,[rbp*8+0x0]
    7c2f:	mov    ecx,DWORD PTR [r12]
    7c33:	mov    rdx,QWORD PTR [rax+rbp*8]
    7c37:	test   rdx,rdx
    7c3a:	je     7f60 <hvm_summary.part.19+0x390>
    7c40:	test   ecx,ecx
    7c42:	je     7d25 <hvm_summary.part.19+0x155>
    7c48:	mov    r14d,DWORD PTR [rip+0x221489]        # 2290d8 <opt+0x38>
    7c4f:	test   r14d,r14d
    7c52:	je     818e <hvm_summary.part.19+0x5be>
    7c58:	mov    edx,DWORD PTR [r12+0x4]
    7c5d:	cmp    DWORD PTR [r12+0x8],edx
    7c62:	cmovle edx,DWORD PTR [r12+0x8]
    7c68:	test   edx,edx
    7c6a:	mov    r14d,edx
    7c6d:	jne    8257 <hvm_summary.part.19+0x687>
    7c73:	xor    r14d,r14d
    7c76:	xor    ebx,ebx
    7c78:	xor    r15d,r15d
    7c7b:	mov    rdx,QWORD PTR [rax+r8*1]
    7c7f:	lea    rsi,[rip+0x1550b]        # 1d191 <_IO_stdin_used+0x1d1>
    7c86:	xor    eax,eax
    7c88:	mov    edi,0x1
    7c8d:	call   44f0 <__printf_chk@plt>
    7c92:	mov    eax,DWORD PTR [r12+0x4]
    7c97:	mov    rsi,QWORD PTR [r12+0x10]
    7c9c:	test   eax,eax
    7c9e:	je     7fc1 <hvm_summary.part.19+0x3f1>
    7ca4:	movsxd rcx,eax
    7ca7:	xor    edx,edx
    7ca9:	mov    rax,rsi
    7cac:	div    rcx
    7caf:	mov    rcx,rax
    7cb2:	lea    rdx,[rsi+rsi*4]
    7cb6:	pxor   xmm1,xmm1
    7cba:	pxor   xmm0,xmm0
    7cbe:	lea    rdx,[rdx+rdx*4]
    7cc2:	shl    rdx,0x2
    7cc6:	test   rsi,rsi
    7cc9:	cvtsi2sd xmm0,QWORD PTR [rip+0x2254fe]        # 22d1d0 <P+0x30>
    7cd2:	cvtsi2sd xmm1,rdx
    7cd7:	divsd  xmm1,xmm0
    7cdb:	js     8170 <hvm_summary.part.19+0x5a0>
    7ce1:	pxor   xmm0,xmm0
    7ce5:	cvtsi2sd xmm0,rsi
    7cea:	pxor   xmm2,xmm2
    7cee:	sub    rsp,0x8
    7cf2:	lea    rsi,[rip+0x17adf]        # 1f7d8 <_IO_stdin_used+0x2818>
    7cf9:	push   r14
    7cfb:	mov    edx,DWORD PTR [r12]
    7cff:	mov    r9,r15
    7d02:	mov    r8,rbx
    7d05:	mov    edi,0x1
    7d0a:	mov    eax,0x2
    7d0f:	cvtsi2sd xmm2,QWORD PTR [rip+0x221398]        # 2290b0 <opt+0x10>
    7d18:	divsd  xmm0,xmm2
    7d1c:	call   44f0 <__printf_chk@plt>
    7d21:	pop    r10
    7d23:	pop    r11
    7d25:	mov    rbx,QWORD PTR [r13+rbp*8+0x28]
    7d2a:	test   rbx,rbx
    7d2d:	je     7d42 <hvm_summary.part.19+0x172>
    7d2f:	nop
    7d30:	mov    rsi,QWORD PTR [rbx+0x8]
    7d34:	mov    rdi,r13
    7d37:	call   QWORD PTR [rbx]
    7d39:	mov    rbx,QWORD PTR [rbx+0x10]
    7d3d:	test   rbx,rbx
    7d40:	jne    7d30 <hvm_summary.part.19+0x160>
    7d42:	lea    eax,[rbp+0x1]
    7d45:	add    r12,0x38
    7d49:	add    rbp,0x1
    7d4d:	cmp    DWORD PTR [r13+0x20],eax
    7d51:	jg     7c20 <hvm_summary.part.19+0x50>
    7d57:	lea    rdi,[rip+0x15442]        # 1d1a0 <_IO_stdin_used+0x1e0>
    7d5e:	lea    r15,[r13+0x12af8]
    7d65:	xor    ebx,ebx
    7d67:	lea    r14,[rsp+0x30]
    7d6c:	call   4380 <puts@plt>
    7d71:	mov    QWORD PTR [rsp+0x28],r13
    7d76:	mov    r13,r15
    7d79:	jmp    7d96 <hvm_summary.part.19+0x1c6>
    7d7b:	nop    DWORD PTR [rax+rax*1+0x0]
    7d80:	add    ebx,0x1
    7d83:	add    r13,0xf8
    7d8a:	cmp    ebx,0x15e
    7d90:	je     7fd0 <hvm_summary.part.19+0x400>
    7d96:	mov    ecx,DWORD PTR [r13+0x0]
    7d9a:	test   ecx,ecx
    7d9c:	je     7d80 <hvm_summary.part.19+0x1b0>
    7d9e:	lea    rsi,[rip+0x15413]        # 1d1b8 <_IO_stdin_used+0x1f8>
    7da5:	mov    edx,ebx
    7da7:	mov    edi,0x1
    7dac:	xor    eax,eax
    7dae:	lea    r12,[rip+0x221a8b]        # 229840 <guest_interrupt_case_name>
    7db5:	lea    r15,[r13+0x44]
    7db9:	call   44f0 <__printf_chk@plt>
    7dbe:	lea    rax,[r13+0xec]
    7dc5:	mov    DWORD PTR [rsp+0x24],ebx
    7dc9:	mov    QWORD PTR [rsp+0x8],rax
    7dce:	mov    r9,QWORD PTR [r12+0x8]
    7dd3:	lea    r8,[rip+0x153ea]        # 1d1c4 <_IO_stdin_used+0x204>
    7dda:	mov    ecx,0x50
    7ddf:	xor    eax,eax
    7de1:	mov    edx,0x1
    7de6:	mov    esi,0x50
    7deb:	mov    rdi,r14
    7dee:	call   4320 <__snprintf_chk@plt>
    7df3:	mov    ecx,DWORD PTR [r15]
    7df6:	test   ecx,ecx
    7df8:	je     7eba <hvm_summary.part.19+0x2ea>
    7dfe:	mov    rsi,QWORD PTR [r15+0xc]
    7e02:	xor    edx,edx
    7e04:	movsxd rdi,ecx
    7e07:	mov    r9d,DWORD PTR [rip+0x2212ca]        # 2290d8 <opt+0x38>
    7e0e:	mov    rax,rsi
    7e11:	div    rdi
    7e14:	test   r9d,r9d
    7e17:	mov    r8,rax
    7e1a:	je     7ee0 <hvm_summary.part.19+0x310>
    7e20:	cmp    DWORD PTR [r15+0x4],ecx
    7e24:	mov    rdi,QWORD PTR [r15+0x14]
    7e28:	mov    edx,0x32
    7e2d:	cmovle ecx,DWORD PTR [r15+0x4]
    7e32:	mov    QWORD PTR [rsp+0x18],rax
    7e37:	mov    esi,ecx
    7e39:	mov    ebp,ecx
    7e3b:	call   79c0 <self_weighted_percentile>
    7e40:	mov    rdi,QWORD PTR [r15+0x14]
    7e44:	mov    edx,0x5
    7e49:	mov    esi,ebp
    7e4b:	mov    rbx,rax
    7e4e:	call   79c0 <self_weighted_percentile>
    7e53:	mov    rdi,QWORD PTR [r15+0x14]
    7e57:	mov    edx,0x5f
    7e5c:	mov    esi,ebp
    7e5e:	mov    QWORD PTR [rsp+0x10],rax
    7e63:	call   79c0 <self_weighted_percentile>
    7e68:	mov    rdx,QWORD PTR [r15+0xc]
    7e6c:	mov    r9,QWORD PTR [rsp+0x10]
    7e71:	mov    r8,QWORD PTR [rsp+0x18]
    7e76:	test   rdx,rdx
    7e79:	js     7f20 <hvm_summary.part.19+0x350>
    7e7f:	pxor   xmm0,xmm0
    7e83:	cvtsi2sd xmm0,rdx
    7e88:	pxor   xmm1,xmm1
    7e8c:	push   rax
    7e8d:	push   rbx
    7e8e:	mov    ecx,DWORD PTR [r15]
    7e91:	lea    rsi,[rip+0x17aa0]        # 1f938 <_IO_stdin_used+0x2978>
    7e98:	mov    edi,0x1
    7e9d:	mov    rdx,r14
    7ea0:	mov    eax,0x1
    7ea5:	cvtsi2sd xmm1,QWORD PTR [rip+0x221202]        # 2290b0 <opt+0x10>
    7eae:	divsd  xmm0,xmm1
    7eb2:	call   44f0 <__printf_chk@plt>
    7eb7:	pop    rdi
    7eb8:	pop    r8
    7eba:	add    r12,0x8
    7ebe:	add    r15,0x38
    7ec2:	cmp    QWORD PTR [rsp+0x8],r15
    7ec7:	jne    7dce <hvm_summary.part.19+0x1fe>
    7ecd:	mov    ebx,DWORD PTR [rsp+0x24]
    7ed1:	jmp    7d80 <hvm_summary.part.19+0x1b0>
    7ed6:	nop    WORD PTR cs:[rax+rax*1+0x0]
    7ee0:	test   rsi,rsi
    7ee3:	js     7f40 <hvm_summary.part.19+0x370>
    7ee5:	pxor   xmm0,xmm0
    7ee9:	cvtsi2sd xmm0,rsi
    7eee:	pxor   xmm1,xmm1
    7ef2:	lea    rsi,[rip+0x152d3]        # 1d1cc <_IO_stdin_used+0x20c>
    7ef9:	mov    rdx,r14
    7efc:	mov    edi,0x1
    7f01:	mov    eax,0x1
    7f06:	cvtsi2sd xmm1,QWORD PTR [rip+0x2211a1]        # 2290b0 <opt+0x10>
    7f0f:	divsd  xmm0,xmm1
    7f13:	call   44f0 <__printf_chk@plt>
    7f18:	jmp    7eba <hvm_summary.part.19+0x2ea>
    7f1a:	nop    WORD PTR [rax+rax*1+0x0]
    7f20:	mov    rsi,rdx
    7f23:	pxor   xmm0,xmm0
    7f27:	shr    rsi,1
    7f2a:	and    edx,0x1
    7f2d:	or     rsi,rdx
    7f30:	cvtsi2sd xmm0,rsi
    7f35:	addsd  xmm0,xmm0
    7f39:	jmp    7e88 <hvm_summary.part.19+0x2b8>
    7f3e:	xchg   ax,ax
    7f40:	mov    rax,rsi
    7f43:	pxor   xmm0,xmm0
    7f47:	shr    rax,1
    7f4a:	and    esi,0x1
    7f4d:	or     rax,rsi
    7f50:	cvtsi2sd xmm0,rax
    7f55:	addsd  xmm0,xmm0
    7f59:	jmp    7eee <hvm_summary.part.19+0x31e>
    7f5b:	nop    DWORD PTR [rax+rax*1+0x0]
    7f60:	test   ecx,ecx
    7f62:	je     7d25 <hvm_summary.part.19+0x155>
    7f68:	mov    ebx,DWORD PTR [rip+0x22116a]        # 2290d8 <opt+0x38>
    7f6e:	test   ebx,ebx
    7f70:	je     821d <hvm_summary.part.19+0x64d>
    7f76:	mov    eax,DWORD PTR [r12+0x4]
    7f7b:	cmp    DWORD PTR [r12+0x8],eax
    7f80:	cmovle eax,DWORD PTR [r12+0x8]
    7f86:	test   eax,eax
    7f88:	mov    r14d,eax
    7f8b:	jne    836b <hvm_summary.part.19+0x79b>
    7f91:	xor    r14d,r14d
    7f94:	xor    ebx,ebx
    7f96:	xor    r15d,r15d
    7f99:	lea    rsi,[rip+0x151f9]        # 1d199 <_IO_stdin_used+0x1d9>
    7fa0:	xor    eax,eax
    7fa2:	mov    edx,r9d
    7fa5:	mov    edi,0x1
    7faa:	call   44f0 <__printf_chk@plt>
    7faf:	mov    eax,DWORD PTR [r12+0x4]
    7fb4:	mov    rsi,QWORD PTR [r12+0x10]
    7fb9:	test   eax,eax
    7fbb:	jne    7ca4 <hvm_summary.part.19+0xd4>
    7fc1:	xor    ecx,ecx
    7fc3:	jmp    7cb2 <hvm_summary.part.19+0xe2>
    7fc8:	nop    DWORD PTR [rax+rax*1+0x0]
    7fd0:	mov    r13,QWORD PTR [rsp+0x28]
    7fd5:	mov    ecx,DWORD PTR [r13+0x27e08]
    7fdc:	test   ecx,ecx
    7fde:	jne    834e <hvm_summary.part.19+0x77e>
    7fe4:	test   BYTE PTR [rip+0x2210b6],0x10        # 2290a1 <opt+0x1>
    7feb:	jne    82c7 <hvm_summary.part.19+0x6f7>
    7ff1:	mov    esi,DWORD PTR [r13+0x27f00]
    7ff8:	test   esi,esi
    7ffa:	je     80cc <hvm_summary.part.19+0x4fc>
    8000:	mov    ecx,DWORD PTR [rip+0x2210d2]        # 2290d8 <opt+0x38>
    8006:	test   ecx,ecx
    8008:	je     83ca <hvm_summary.part.19+0x7fa>
    800e:	mov    r12d,DWORD PTR [r13+0x27f04]
    8015:	cmp    DWORD PTR [r13+0x27f08],r12d
    801c:	cmovle r12d,DWORD PTR [r13+0x27f08]
    8024:	test   r12d,r12d
    8027:	jne    8477 <hvm_summary.part.19+0x8a7>
    802d:	xor    r12d,r12d
    8030:	xor    ebx,ebx
    8032:	xor    ebp,ebp
    8034:	lea    rdi,[rip+0x151de]        # 1d219 <_IO_stdin_used+0x259>
    803b:	call   4380 <puts@plt>
    8040:	mov    eax,DWORD PTR [r13+0x27f04]
    8047:	xor    ecx,ecx
    8049:	mov    rsi,QWORD PTR [r13+0x27f10]
    8050:	test   eax,eax
    8052:	jne    83b7 <hvm_summary.part.19+0x7e7>
    8058:	lea    rdx,[rsi+rsi*4]
    805c:	pxor   xmm1,xmm1
    8060:	pxor   xmm0,xmm0
    8064:	lea    rdx,[rdx+rdx*4]
    8068:	shl    rdx,0x2
    806c:	test   rsi,rsi
    806f:	cvtsi2sd xmm0,QWORD PTR [rip+0x225158]        # 22d1d0 <P+0x30>
    8078:	cvtsi2sd xmm1,rdx
    807d:	divsd  xmm1,xmm0
    8081:	js     8459 <hvm_summary.part.19+0x889>
    8087:	pxor   xmm0,xmm0
    808b:	cvtsi2sd xmm0,rsi
    8090:	pxor   xmm2,xmm2
    8094:	sub    rsp,0x8
    8098:	mov    edx,DWORD PTR [r13+0x27f00]
    809f:	lea    rsi,[rip+0x17732]        # 1f7d8 <_IO_stdin_used+0x2818>
    80a6:	push   r12
    80a8:	mov    r9,rbp
    80ab:	mov    r8,rbx
    80ae:	mov    edi,0x1
    80b3:	mov    eax,0x2
    80b8:	cvtsi2sd xmm2,QWORD PTR [rip+0x220fef]        # 2290b0 <opt+0x10>
    80c1:	divsd  xmm0,xmm2
    80c5:	call   44f0 <__printf_chk@plt>
    80ca:	pop    rax
    80cb:	pop    rdx
    80cc:	xor    ebx,ebx
    80ce:	lea    rbp,[rip+0x15151]        # 1d226 <_IO_stdin_used+0x266>
    80d5:	jmp    80ed <hvm_summary.part.19+0x51d>
    80d7:	nop    WORD PTR [rax+rax*1+0x0]
    80e0:	add    rbx,0x1
    80e4:	cmp    rbx,0x100
    80eb:	je     8117 <hvm_summary.part.19+0x547>
    80ed:	mov    ecx,DWORD PTR [r13+rbx*4+0x27f38]
    80f5:	test   ecx,ecx
    80f7:	je     80e0 <hvm_summary.part.19+0x510>
    80f9:	mov    edx,ebx
    80fb:	xor    eax,eax
    80fd:	mov    rsi,rbp
    8100:	mov    edi,0x1
    8105:	add    rbx,0x1
    8109:	call   44f0 <__printf_chk@plt>
    810e:	cmp    rbx,0x100
    8115:	jne    80ed <hvm_summary.part.19+0x51d>
    8117:	mov    rdi,QWORD PTR [r13+0x28340]
    811e:	test   rdi,rdi
    8121:	je     812f <hvm_summary.part.19+0x55f>
    8123:	lea    rsi,[rip+0x1510e]        # 1d238 <_IO_stdin_used+0x278>
    812a:	call   6850 <hvm_io_address_summary.part.14>
    812f:	mov    rdi,QWORD PTR [r13+0x28338]
    8136:	test   rdi,rdi
    8139:	je     8147 <hvm_summary.part.19+0x577>
    813b:	lea    rsi,[rip+0x150f4]        # 1d236 <_IO_stdin_used+0x276>
    8142:	call   6850 <hvm_io_address_summary.part.14>
    8147:	mov    rax,QWORD PTR [rsp+0x88]
    814f:	xor    rax,QWORD PTR fs:0x28
    8158:	jne    84ef <hvm_summary.part.19+0x91f>
    815e:	add    rsp,0x98
    8165:	pop    rbx
    8166:	pop    rbp
    8167:	pop    r12
    8169:	pop    r13
    816b:	pop    r14
    816d:	pop    r15
    816f:	ret    
    8170:	mov    rax,rsi
    8173:	pxor   xmm0,xmm0
    8177:	shr    rax,1
    817a:	and    esi,0x1
    817d:	or     rax,rsi
    8180:	cvtsi2sd xmm0,rax
    8185:	addsd  xmm0,xmm0
    8189:	jmp    7cea <hvm_summary.part.19+0x11a>
    818e:	lea    rsi,[rip+0x14ffc]        # 1d191 <_IO_stdin_used+0x1d1>
    8195:	xor    eax,eax
    8197:	mov    edi,0x1
    819c:	call   44f0 <__printf_chk@plt>
    81a1:	mov    eax,DWORD PTR [r12+0x4]
    81a6:	mov    rsi,QWORD PTR [r12+0x10]
    81ab:	test   eax,eax
    81ad:	jne    8244 <hvm_summary.part.19+0x674>
    81b3:	xor    ecx,ecx
    81b5:	lea    rdx,[rsi+rsi*4]
    81b9:	pxor   xmm1,xmm1
    81bd:	pxor   xmm0,xmm0
    81c1:	lea    rdx,[rdx+rdx*4]
    81c5:	shl    rdx,0x2
    81c9:	test   rsi,rsi
    81cc:	cvtsi2sd xmm0,QWORD PTR [rip+0x224ffb]        # 22d1d0 <P+0x30>
    81d5:	cvtsi2sd xmm1,rdx
    81da:	divsd  xmm1,xmm0
    81de:	js     82a9 <hvm_summary.part.19+0x6d9>
    81e4:	pxor   xmm0,xmm0
    81e8:	cvtsi2sd xmm0,rsi
    81ed:	pxor   xmm2,xmm2
    81f1:	mov    edx,DWORD PTR [r12]
    81f5:	lea    rsi,[rip+0x17614]        # 1f810 <_IO_stdin_used+0x2850>
    81fc:	mov    edi,0x1
    8201:	mov    eax,0x2
    8206:	cvtsi2sd xmm2,QWORD PTR [rip+0x220ea1]        # 2290b0 <opt+0x10>
    820f:	divsd  xmm0,xmm2
    8213:	call   44f0 <__printf_chk@plt>
    8218:	jmp    7d25 <hvm_summary.part.19+0x155>
    821d:	lea    rsi,[rip+0x14f75]        # 1d199 <_IO_stdin_used+0x1d9>
    8224:	xor    eax,eax
    8226:	mov    edx,ebp
    8228:	mov    edi,0x1
    822d:	call   44f0 <__printf_chk@plt>
    8232:	mov    eax,DWORD PTR [r12+0x4]
    8237:	mov    rsi,QWORD PTR [r12+0x10]
    823c:	test   eax,eax
    823e:	je     81b3 <hvm_summary.part.19+0x5e3>
    8244:	movsxd rcx,eax
    8247:	xor    edx,edx
    8249:	mov    rax,rsi
    824c:	div    rcx
    824f:	mov    rcx,rax
    8252:	jmp    81b5 <hvm_summary.part.19+0x5e5>
    8257:	mov    rdi,QWORD PTR [r12+0x18]
    825c:	mov    esi,r14d
    825f:	mov    edx,0x32
    8264:	mov    QWORD PTR [rsp+0x8],r8
    8269:	call   4b30 <percentile.part.6>
    826e:	mov    rdi,QWORD PTR [r12+0x18]
    8273:	mov    esi,r14d
    8276:	mov    edx,0x5
    827b:	mov    r15,rax
    827e:	call   4b30 <percentile.part.6>
    8283:	mov    rdi,QWORD PTR [r12+0x18]
    8288:	mov    esi,r14d
    828b:	mov    edx,0x5f
    8290:	mov    rbx,rax
    8293:	call   4b30 <percentile.part.6>
    8298:	mov    r8,QWORD PTR [rsp+0x8]
    829d:	mov    r14,rax
    82a0:	mov    rax,QWORD PTR [r13+0x18]
    82a4:	jmp    7c7b <hvm_summary.part.19+0xab>
    82a9:	mov    rax,rsi
    82ac:	pxor   xmm0,xmm0
    82b0:	shr    rax,1
    82b3:	and    esi,0x1
    82b6:	or     rax,rsi
    82b9:	cvtsi2sd xmm0,rax
    82be:	addsd  xmm0,xmm0
    82c2:	jmp    81ed <hvm_summary.part.19+0x61d>
    82c7:	xor    edx,edx
    82c9:	movabs rax,0x1000000000000
    82d3:	lea    rdi,[rip+0x14f15]        # 1d1ef <_IO_stdin_used+0x22f>
    82da:	div    QWORD PTR [rip+0x220de7]        # 2290c8 <opt+0x28>
    82e1:	mov    rbx,rax
    82e4:	call   4380 <puts@plt>
    82e9:	test   ebx,ebx
    82eb:	je     7ff1 <hvm_summary.part.19+0x421>
    82f1:	lea    r12d,[rbx-0x1]
    82f5:	xor    eax,eax
    82f7:	lea    rbp,[rip+0x14f0a]        # 1d208 <_IO_stdin_used+0x248>
    82fe:	add    r12,0x1
    8302:	jmp    8314 <hvm_summary.part.19+0x744>
    8304:	nop    DWORD PTR [rax+0x0]
    8308:	cmp    r12,rbx
    830b:	mov    rax,rbx
    830e:	je     7ff1 <hvm_summary.part.19+0x421>
    8314:	mov    rdx,QWORD PTR [r13+0x10470]
    831b:	lea    rbx,[rax+0x1]
    831f:	mov    r8d,DWORD PTR [rdx+rax*4]
    8323:	test   r8d,r8d
    8326:	je     8308 <hvm_summary.part.19+0x738>
    8328:	mov    rax,QWORD PTR [rip+0x220d99]        # 2290c8 <opt+0x28>
    832f:	mov    rdx,rbx
    8332:	mov    rsi,rbp
    8335:	mov    edi,0x1
    833a:	imul   rdx,rax
    833e:	lea    rcx,[rdx-0x1]
    8342:	sub    rdx,rax
    8345:	xor    eax,eax
    8347:	call   44f0 <__printf_chk@plt>
    834c:	jmp    8308 <hvm_summary.part.19+0x738>
    834e:	lea    rsi,[rip+0x14e8e]        # 1d1e3 <_IO_stdin_used+0x223>
    8355:	mov    edx,0x15e
    835a:	mov    edi,0x1
    835f:	xor    eax,eax
    8361:	call   44f0 <__printf_chk@plt>
    8366:	jmp    7fe4 <hvm_summary.part.19+0x414>
    836b:	mov    rdi,QWORD PTR [r12+0x18]
    8370:	mov    edx,0x32
    8375:	mov    esi,eax
    8377:	mov    DWORD PTR [rsp+0x8],ebp
    837b:	call   4b30 <percentile.part.6>
    8380:	mov    rdi,QWORD PTR [r12+0x18]
    8385:	mov    esi,r14d
    8388:	mov    edx,0x5
    838d:	mov    r15,rax
    8390:	call   4b30 <percentile.part.6>
    8395:	mov    rdi,QWORD PTR [r12+0x18]
    839a:	mov    esi,r14d
    839d:	mov    edx,0x5f
    83a2:	mov    rbx,rax
    83a5:	call   4b30 <percentile.part.6>
    83aa:	mov    r9d,DWORD PTR [rsp+0x8]
    83af:	mov    r14,rax
    83b2:	jmp    7f99 <hvm_summary.part.19+0x3c9>
    83b7:	movsxd rcx,eax
    83ba:	xor    edx,edx
    83bc:	mov    rax,rsi
    83bf:	div    rcx
    83c2:	mov    rcx,rax
    83c5:	jmp    8058 <hvm_summary.part.19+0x488>
    83ca:	lea    rdi,[rip+0x14e48]        # 1d219 <_IO_stdin_used+0x259>
    83d1:	call   4380 <puts@plt>
    83d6:	movsxd rcx,DWORD PTR [r13+0x27f04]
    83dd:	mov    rsi,QWORD PTR [r13+0x27f10]
    83e4:	test   ecx,ecx
    83e6:	jne    84c1 <hvm_summary.part.19+0x8f1>
    83ec:	xor    ecx,ecx
    83ee:	lea    rax,[rsi+rsi*4]
    83f2:	pxor   xmm1,xmm1
    83f6:	pxor   xmm0,xmm0
    83fa:	lea    rdx,[rax+rax*4]
    83fe:	shl    rdx,0x2
    8402:	test   rsi,rsi
    8405:	cvtsi2sd xmm0,QWORD PTR [rip+0x224dc2]        # 22d1d0 <P+0x30>
    840e:	cvtsi2sd xmm1,rdx
    8413:	divsd  xmm1,xmm0
    8417:	js     84d1 <hvm_summary.part.19+0x901>
    841d:	pxor   xmm0,xmm0
    8421:	cvtsi2sd xmm0,rsi
    8426:	pxor   xmm2,xmm2
    842a:	mov    edx,DWORD PTR [r13+0x27f00]
    8431:	lea    rsi,[rip+0x173d8]        # 1f810 <_IO_stdin_used+0x2850>
    8438:	mov    edi,0x1
    843d:	mov    eax,0x2
    8442:	cvtsi2sd xmm2,QWORD PTR [rip+0x220c65]        # 2290b0 <opt+0x10>
    844b:	divsd  xmm0,xmm2
    844f:	call   44f0 <__printf_chk@plt>
    8454:	jmp    80cc <hvm_summary.part.19+0x4fc>
    8459:	mov    rdx,rsi
    845c:	pxor   xmm0,xmm0
    8460:	shr    rdx,1
    8463:	and    esi,0x1
    8466:	or     rdx,rsi
    8469:	cvtsi2sd xmm0,rdx
    846e:	addsd  xmm0,xmm0
    8472:	jmp    8090 <hvm_summary.part.19+0x4c0>
    8477:	mov    rdi,QWORD PTR [r13+0x27f18]
    847e:	mov    esi,r12d
    8481:	mov    edx,0x32
    8486:	call   4b30 <percentile.part.6>
    848b:	mov    rdi,QWORD PTR [r13+0x27f18]
    8492:	mov    esi,r12d
    8495:	mov    edx,0x5
    849a:	mov    rbp,rax
    849d:	call   4b30 <percentile.part.6>
    84a2:	mov    rdi,QWORD PTR [r13+0x27f18]
    84a9:	mov    esi,r12d
    84ac:	mov    edx,0x5f
    84b1:	mov    rbx,rax
    84b4:	call   4b30 <percentile.part.6>
    84b9:	mov    r12,rax
    84bc:	jmp    8034 <hvm_summary.part.19+0x464>
    84c1:	mov    rax,rsi
    84c4:	xor    edx,edx
    84c6:	div    rcx
    84c9:	mov    rcx,rax
    84cc:	jmp    83ee <hvm_summary.part.19+0x81e>
    84d1:	mov    rdx,rsi
    84d4:	pxor   xmm0,xmm0
    84d8:	shr    rdx,1
    84db:	and    esi,0x1
    84de:	or     rdx,rsi
    84e1:	cvtsi2sd xmm0,rdx
    84e6:	addsd  xmm0,xmm0
    84ea:	jmp    8426 <hvm_summary.part.19+0x856>
    84ef:	call   43c0 <__stack_chk_fail@plt>
    84f4:	xchg   ax,ax
    84f6:	nop    WORD PTR cs:[rax+rax*1+0x0]

0000000000008500 <__interval_cycle_percent_output>:
    8500:	push   rbx
    8501:	mov    rax,QWORD PTR [rdi+0x8]
    8505:	mov    rbx,rdi
    8508:	pxor   xmm0,xmm0
    850c:	mov    edi,0x1
    8511:	pxor   xmm1,xmm1
    8515:	lea    rax,[rax+rax*4]
    8519:	lea    rax,[rax+rax*4]
    851d:	cvtsi2sd xmm1,rsi
    8522:	lea    rsi,[rip+0x14d23]        # 1d24c <_IO_stdin_used+0x28c>
    8529:	shl    rax,0x2
    852d:	cvtsi2sd xmm0,rax
    8532:	mov    eax,0x1
    8537:	divsd  xmm0,xmm1
    853b:	call   44f0 <__printf_chk@plt>
    8540:	mov    QWORD PTR [rbx+0x8],0x0
    8548:	mov    DWORD PTR [rbx],0x0
    854e:	mov    QWORD PTR [rbx+0x10],0x0
    8556:	pop    rbx
    8557:	ret    
    8558:	nop    DWORD PTR [rax+rax*1+0x0]

0000000000008560 <interval_cycle_percent_output>:
    8560:	push   rbx
    8561:	mov    rax,QWORD PTR [rdi+0x8]
    8565:	lea    rsi,[rip+0x14ce0]        # 1d24c <_IO_stdin_used+0x28c>
    856c:	pxor   xmm0,xmm0
    8570:	mov    rbx,rdi
    8573:	pxor   xmm1,xmm1
    8577:	mov    edi,0x1
    857c:	lea    rax,[rax+rax*4]
    8580:	lea    rax,[rax+rax*4]
    8584:	cvtsi2sd xmm1,QWORD PTR [rip+0x220b5b]        # 2290e8 <opt+0x48>
    858d:	shl    rax,0x2
    8591:	cvtsi2sd xmm0,rax
    8596:	mov    eax,0x1
    859b:	divsd  xmm0,xmm1
    859f:	call   44f0 <__printf_chk@plt>
    85a4:	mov    QWORD PTR [rbx+0x8],0x0
    85ac:	mov    DWORD PTR [rbx],0x0
    85b2:	mov    QWORD PTR [rbx+0x10],0x0
    85ba:	pop    rbx
    85bb:	ret    
    85bc:	nop    DWORD PTR [rax+0x0]

00000000000085c0 <interval_time_output>:
    85c0:	mov    rax,QWORD PTR [rip+0x25cc31]        # 2651f8 <P+0x38058>
    85c7:	mov    rdx,QWORD PTR [rip+0x224bf2]        # 22d1c0 <P+0x20>
    85ce:	cmp    rax,rdx
    85d1:	jbe    8628 <interval_time_output+0x68>
    85d3:	sub    rax,rdx
    85d6:	xor    edx,edx
    85d8:	mov    rcx,rax
    85db:	shl    rcx,0xa
    85df:	mov    rax,rcx
    85e2:	div    QWORD PTR [rip+0x220abf]        # 2290a8 <opt+0x8>
    85e9:	movabs rdx,0x44b82fa09b5a53
    85f3:	mov    rcx,rax
    85f6:	shr    rax,0x9
    85fa:	mul    rdx
    85fd:	mov    rax,rdx
    8600:	shr    rax,0xb
    8604:	mov    edx,eax
    8606:	imul   eax,eax,0x3b9aca00
    860c:	sub    ecx,eax
    860e:	lea    rsi,[rip+0x14c3f]        # 1d254 <_IO_stdin_used+0x294>
    8615:	mov    edi,0x1
    861a:	xor    eax,eax
    861c:	jmp    44f0 <__printf_chk@plt>
    8621:	nop    DWORD PTR [rax+0x0]
    8628:	xor    ecx,ecx
    862a:	xor    edx,edx
    862c:	jmp    860e <interval_time_output+0x4e>
    862e:	xchg   ax,ax

0000000000008630 <interval_table_output>:
    8630:	push   r12
    8632:	push   rbp
    8633:	push   rbx
    8634:	call   85c0 <interval_time_output>
    8639:	mov    eax,DWORD PTR [rip+0x220ab9]        # 2290f8 <opt+0x58>
    863f:	cmp    eax,0x1
    8642:	je     8690 <interval_table_output+0x60>
    8644:	cmp    eax,0x2
    8647:	je     8660 <interval_table_output+0x30>
    8649:	pop    rbx
    864a:	pop    rbp
    864b:	pop    r12
    864d:	mov    edi,0xa
    8652:	jmp    4340 <putchar@plt>
    8657:	nop    WORD PTR [rax+rax*1+0x0]
    8660:	mov    rbx,QWORD PTR [rip+0x25cb99]        # 265200 <P+0x38060>
    8667:	test   rbx,rbx
    866a:	je     8649 <interval_table_output+0x19>
    866c:	nop    DWORD PTR [rax+0x0]
    8670:	mov    rdi,QWORD PTR [rbx]
    8673:	call   8560 <interval_cycle_percent_output>
    8678:	mov    rbx,QWORD PTR [rbx+0x8]
    867c:	test   rbx,rbx
    867f:	jne    8670 <interval_table_output+0x40>
    8681:	pop    rbx
    8682:	pop    rbp
    8683:	pop    r12
    8685:	mov    edi,0xa
    868a:	jmp    4340 <putchar@plt>
    868f:	nop
    8690:	mov    eax,DWORD PTR [rip+0x25cb72]        # 265208 <P+0x38068>
    8696:	test   eax,eax
    8698:	jle    8649 <interval_table_output+0x19>
    869a:	xor    ebp,ebp
    869c:	xor    ebx,ebx
    869e:	lea    r12,[rip+0x14bb7]        # 1d25c <_IO_stdin_used+0x29c>
    86a5:	jmp    86c4 <interval_table_output+0x94>
    86a7:	nop    WORD PTR [rax+rax*1+0x0]
    86b0:	call   8560 <interval_cycle_percent_output>
    86b5:	add    ebx,0x1
    86b8:	add    rbp,0x8
    86bc:	cmp    DWORD PTR [rip+0x25cb46],ebx        # 265208 <P+0x38068>
    86c2:	jle    8649 <interval_table_output+0x19>
    86c4:	mov    rax,QWORD PTR [rip+0x25cb35]        # 265200 <P+0x38060>
    86cb:	mov    rdi,QWORD PTR [rax+rbp*1]
    86cf:	test   rdi,rdi
    86d2:	jne    86b0 <interval_table_output+0x80>
    86d4:	mov    rsi,r12
    86d7:	mov    edi,0x1
    86dc:	xor    eax,eax
    86de:	call   44f0 <__printf_chk@plt>
    86e3:	jmp    86b5 <interval_table_output+0x85>
    86e5:	nop
    86e6:	nop    WORD PTR cs:[rax+rax*1+0x0]

00000000000086f0 <interval_table_tail>:
    86f0:	push   rbp
    86f1:	push   rbx
    86f2:	lea    rsi,[rip+0x15b91]        # 1e28a <_IO_stdin_used+0x12ca>
    86f9:	xor    eax,eax
    86fb:	mov    edi,0x1
    8700:	sub    rsp,0x8
    8704:	call   44f0 <__printf_chk@plt>
    8709:	mov    rbx,QWORD PTR [rip+0x25caf0]        # 265200 <P+0x38060>
    8710:	test   rbx,rbx
    8713:	je     873c <interval_table_tail+0x4c>
    8715:	lea    rbp,[rip+0x14aac]        # 1d1c8 <_IO_stdin_used+0x208>
    871c:	nop    DWORD PTR [rax+0x0]
    8720:	lea    rdx,[rbx+0x10]
    8724:	xor    eax,eax
    8726:	mov    rsi,rbp
    8729:	mov    edi,0x1
    872e:	call   44f0 <__printf_chk@plt>
    8733:	mov    rbx,QWORD PTR [rbx+0x8]
    8737:	test   rbx,rbx
    873a:	jne    8720 <interval_table_tail+0x30>
    873c:	add    rsp,0x8
    8740:	mov    edi,0xa
    8745:	pop    rbx
    8746:	pop    rbp
    8747:	jmp    4340 <putchar@plt>
    874c:	nop    DWORD PTR [rax+0x0]

0000000000008750 <interval_table_alloc>:
    8750:	mov    DWORD PTR [rip+0x25cab2],edi        # 265208 <P+0x38068>
    8756:	movsxd rdi,edi
    8759:	push   rbx
    875a:	lea    rbx,[rdi*8+0x0]
    8762:	mov    rdi,rbx
    8765:	call   4490 <malloc@plt>
    876a:	test   rax,rax
    876d:	mov    QWORD PTR [rip+0x25ca8c],rax        # 265200 <P+0x38060>
    8774:	je     8788 <interval_table_alloc+0x38>
    8776:	mov    rdx,rbx
    8779:	xor    esi,esi
    877b:	mov    rdi,rax
    877e:	pop    rbx
    877f:	jmp    4420 <memset@plt>
    8784:	nop    DWORD PTR [rax+0x0]
    8788:	mov    rcx,QWORD PTR [rip+0x223cb1]        # 22c440 <stderr@@GLIBC_2.2.5>
    878f:	lea    rdi,[rip+0x14be3]        # 1d379 <_IO_stdin_used+0x3b9>
    8796:	mov    edx,0xf
    879b:	mov    esi,0x1
    87a0:	call   4550 <fwrite@plt>
    87a5:	cmp    DWORD PTR [rip+0x220934],0x7        # 2290e0 <opt+0x40>
    87ac:	jbe    87c3 <interval_table_alloc+0x73>
    87ae:	mov    rax,QWORD PTR [rip+0x25ca4b]        # 265200 <P+0x38060>
    87b5:	mov    rdx,rbx
    87b8:	xor    esi,esi
    87ba:	pop    rbx
    87bb:	mov    rdi,rax
    87be:	jmp    4420 <memset@plt>
    87c3:	mov    edi,0x1
    87c8:	call   4540 <exit@plt>
    87cd:	nop    DWORD PTR [rax]

00000000000087d0 <interval_list_add>:
    87d0:	push   r12
    87d2:	mov    r12,rdi
    87d5:	mov    rdi,QWORD PTR [rip+0x25ca7c]        # 265258 <warn>
    87dc:	push   rbp
    87dd:	lea    rcx,[rip+0x1b04c]        # 23830 <__func__.5855>
    87e4:	push   rbx
    87e5:	lea    rdx,[rip+0x14a75]        # 1d261 <_IO_stdin_used+0x2a1>
    87ec:	mov    r8,rsi
    87ef:	xor    eax,eax
    87f1:	mov    rbp,rsi
    87f4:	mov    esi,0x1
    87f9:	call   4560 <__fprintf_chk@plt>
    87fe:	mov    edi,0x30
    8803:	call   4490 <malloc@plt>
    8808:	test   rax,rax
    880b:	mov    rbx,rax
    880e:	je     8880 <interval_list_add+0xb0>
    8810:	pxor   xmm0,xmm0
    8814:	lea    rdi,[rbx+0x10]
    8818:	mov    edx,0x1f
    881d:	mov    rsi,rbp
    8820:	movups XMMWORD PTR [rbx+0x10],xmm0
    8824:	movups XMMWORD PTR [rdi+0x10],xmm0
    8828:	mov    QWORD PTR [rbx],r12
    882b:	call   4360 <strncpy@plt>
    8830:	cmp    QWORD PTR [rip+0x25c9c8],0x0        # 265200 <P+0x38060>
    8838:	mov    QWORD PTR [rbx+0x8],0x0
    8840:	je     8860 <interval_list_add+0x90>
    8842:	mov    rax,QWORD PTR [rip+0x25c9bf]        # 265208 <P+0x38068>
    8849:	mov    QWORD PTR [rax],rbx
    884c:	add    rbx,0x8
    8850:	mov    QWORD PTR [rip+0x25c9b1],rbx        # 265208 <P+0x38068>
    8857:	pop    rbx
    8858:	pop    rbp
    8859:	pop    r12
    885b:	ret    
    885c:	nop    DWORD PTR [rax+0x0]
    8860:	mov    QWORD PTR [rip+0x25c999],rbx        # 265200 <P+0x38060>
    8867:	add    rbx,0x8
    886b:	mov    QWORD PTR [rip+0x25c996],rbx        # 265208 <P+0x38068>
    8872:	pop    rbx
    8873:	pop    rbp
    8874:	pop    r12
    8876:	ret    
    8877:	nop    WORD PTR [rax+rax*1+0x0]
    8880:	mov    rcx,QWORD PTR [rip+0x223bb9]        # 22c440 <stderr@@GLIBC_2.2.5>
    8887:	lea    rdi,[rip+0x149ec]        # 1d27a <_IO_stdin_used+0x2ba>
    888e:	mov    edx,0x11
    8893:	mov    esi,0x1
    8898:	call   4550 <fwrite@plt>
    889d:	cmp    DWORD PTR [rip+0x22083c],0x7        # 2290e0 <opt+0x40>
    88a4:	ja     8810 <interval_list_add+0x40>
    88aa:	mov    edi,0x1
    88af:	call   4540 <exit@plt>
    88b4:	xchg   ax,ax
    88b6:	nop    WORD PTR cs:[rax+rax*1+0x0]

00000000000088c0 <interval_cr3_schedule_time_header>:
    88c0:	cmp    DWORD PTR [rip+0x220831],0x1        # 2290f8 <opt+0x58>
    88c7:	je     88d0 <interval_cr3_schedule_time_header+0x10>
    88c9:	repz ret 
    88cb:	nop    DWORD PTR [rax+rax*1+0x0]
    88d0:	push   r12
    88d2:	lea    rsi,[rip+0x159b1]        # 1e28a <_IO_stdin_used+0x12ca>
    88d9:	push   rbp
    88da:	push   rbx
    88db:	xor    eax,eax
    88dd:	mov    edi,0x1
    88e2:	call   44f0 <__printf_chk@plt>
    88e7:	mov    eax,DWORD PTR [rip+0x22081b]        # 229108 <opt+0x68>
    88ed:	test   eax,eax
    88ef:	jle    8929 <interval_cr3_schedule_time_header+0x69>
    88f1:	lea    r12,[rip+0x14aa9]        # 1d3a1 <_IO_stdin_used+0x3e1>
    88f8:	xor    ebp,ebp
    88fa:	xor    ebx,ebx
    88fc:	nop    DWORD PTR [rax+0x0]
    8900:	mov    rax,QWORD PTR [rip+0x2207f9]        # 229100 <opt+0x60>
    8907:	mov    rsi,r12
    890a:	mov    edi,0x1
    890f:	add    ebx,0x1
    8912:	mov    rdx,QWORD PTR [rax+rbp*1]
    8916:	xor    eax,eax
    8918:	add    rbp,0x8
    891c:	call   44f0 <__printf_chk@plt>
    8921:	cmp    DWORD PTR [rip+0x2207e1],ebx        # 229108 <opt+0x68>
    8927:	jg     8900 <interval_cr3_schedule_time_header+0x40>
    8929:	pop    rbx
    892a:	pop    rbp
    892b:	pop    r12
    892d:	mov    edi,0xa
    8932:	jmp    4340 <putchar@plt>
    8937:	nop    WORD PTR [rax+rax*1+0x0]

0000000000008940 <interval_cr3_value_check>:
    8940:	push   r13
    8942:	push   r12
    8944:	mov    r12,rdi
    8947:	push   rbp
    8948:	push   rbx
    8949:	sub    rsp,0x38
    894d:	mov    rax,QWORD PTR fs:0x28
    8956:	mov    QWORD PTR [rsp+0x28],rax
    895b:	xor    eax,eax
    895d:	mov    eax,DWORD PTR [rip+0x220795]        # 2290f8 <opt+0x58>
    8963:	cmp    eax,0x1
    8966:	je     89b0 <interval_cr3_value_check+0x70>
    8968:	cmp    eax,0x2
    896b:	mov    r9,QWORD PTR [rdi+0x10]
    896f:	je     8a58 <interval_cr3_value_check+0x118>
    8975:	mov    rax,QWORD PTR [rip+0x220784]        # 229100 <opt+0x60>
    897c:	cmp    QWORD PTR [rax],r9
    897f:	je     89a0 <interval_cr3_value_check+0x60>
    8981:	mov    rax,QWORD PTR [rsp+0x28]
    8986:	xor    rax,QWORD PTR fs:0x28
    898f:	jne    8a97 <interval_cr3_value_check+0x157>
    8995:	add    rsp,0x38
    8999:	pop    rbx
    899a:	pop    rbp
    899b:	pop    r12
    899d:	pop    r13
    899f:	ret    
    89a0:	mov    QWORD PTR [rip+0x25c859],rdi        # 265200 <P+0x38060>
    89a7:	jmp    8981 <interval_cr3_value_check+0x41>
    89a9:	nop    DWORD PTR [rax+0x0]
    89b0:	mov    eax,DWORD PTR [rip+0x220752]        # 229108 <opt+0x68>
    89b6:	xor    ebx,ebx
    89b8:	xor    ebp,ebp
    89ba:	lea    r13,[rdi+0x58]
    89be:	test   eax,eax
    89c0:	jg     89d7 <interval_cr3_value_check+0x97>
    89c2:	jmp    8981 <interval_cr3_value_check+0x41>
    89c4:	nop    DWORD PTR [rax+0x0]
    89c8:	add    ebp,0x1
    89cb:	add    rbx,0x8
    89cf:	cmp    ebp,DWORD PTR [rip+0x220733]        # 229108 <opt+0x68>
    89d5:	jge    8981 <interval_cr3_value_check+0x41>
    89d7:	mov    rax,QWORD PTR [rip+0x220722]        # 229100 <opt+0x60>
    89de:	mov    r8,QWORD PTR [r12+0x10]
    89e3:	cmp    r8,QWORD PTR [rax+rbx*1]
    89e7:	jne    89c8 <interval_cr3_value_check+0x88>
    89e9:	mov    rax,QWORD PTR [rip+0x25c810]        # 265200 <P+0x38060>
    89f0:	mov    rdi,QWORD PTR [rip+0x223a49]        # 22c440 <stderr@@GLIBC_2.2.5>
    89f7:	cmp    QWORD PTR [rax+rbx*1],0x0
    89fc:	je     8a29 <interval_cr3_value_check+0xe9>
    89fe:	lea    rdx,[rip+0x16f63]        # 1f968 <_IO_stdin_used+0x29a8>
    8a05:	xor    eax,eax
    8a07:	mov    rcx,r8
    8a0a:	mov    esi,0x1
    8a0f:	call   4560 <__fprintf_chk@plt>
    8a14:	cmp    DWORD PTR [rip+0x2206c5],0x6        # 2290e0 <opt+0x40>
    8a1b:	jbe    8a8d <interval_cr3_value_check+0x14d>
    8a1d:	mov    r8,QWORD PTR [r12+0x10]
    8a22:	mov    rdi,QWORD PTR [rip+0x223a17]        # 22c440 <stderr@@GLIBC_2.2.5>
    8a29:	lea    rcx,[rip+0x1ade0]        # 23810 <__func__.5867>
    8a30:	lea    rdx,[rip+0x14855]        # 1d28c <_IO_stdin_used+0x2cc>
    8a37:	mov    esi,0x1
    8a3c:	xor    eax,eax
    8a3e:	call   4560 <__fprintf_chk@plt>
    8a43:	mov    rax,QWORD PTR [rip+0x25c7b6]        # 265200 <P+0x38060>
    8a4a:	mov    QWORD PTR [rax+rbx*1],r13
    8a4e:	jmp    89c8 <interval_cr3_value_check+0x88>
    8a53:	nop    DWORD PTR [rax+rax*1+0x0]
    8a58:	mov    rbx,rsp
    8a5b:	lea    r8,[rip+0x14940]        # 1d3a2 <_IO_stdin_used+0x3e2>
    8a62:	mov    ecx,0x20
    8a67:	mov    rdi,rbx
    8a6a:	mov    edx,0x1
    8a6f:	mov    esi,0x20
    8a74:	xor    eax,eax
    8a76:	call   4320 <__snprintf_chk@plt>
    8a7b:	lea    rdi,[r12+0x58]
    8a80:	mov    rsi,rbx
    8a83:	call   87d0 <interval_list_add>
    8a88:	jmp    8981 <interval_cr3_value_check+0x41>
    8a8d:	mov    edi,0x1
    8a92:	call   4540 <exit@plt>
    8a97:	call   43c0 <__stack_chk_fail@plt>
    8a9c:	nop    DWORD PTR [rax+0x0]

0000000000008aa0 <interval_cr3_schedule_ordered_output>:
    8aa0:	push   r14
    8aa2:	push   r13
    8aa4:	push   r12
    8aa6:	push   rbp
    8aa7:	mov    rbp,QWORD PTR [rip+0x25c73a]        # 2651e8 <P+0x38048>
    8aae:	push   rbx
    8aaf:	test   rbp,rbp
    8ab2:	je     8bb0 <interval_cr3_schedule_ordered_output+0x110>
    8ab8:	mov    rax,rbp
    8abb:	xor    ebx,ebx
    8abd:	nop    DWORD PTR [rax]
    8ac0:	mov    rax,QWORD PTR [rax+0x8]
    8ac4:	add    ebx,0x1
    8ac7:	test   rax,rax
    8aca:	jne    8ac0 <interval_cr3_schedule_ordered_output+0x20>
    8acc:	movsxd r13,ebx
    8acf:	lea    rdi,[r13*8+0x0]
    8ad7:	call   4490 <malloc@plt>
    8adc:	mov    r12,rax
    8adf:	mov    r14,rax
    8ae2:	mov    QWORD PTR [rax],rbp
    8ae5:	mov    rbp,QWORD PTR [rbp+0x8]
    8ae9:	add    rax,0x8
    8aed:	test   rbp,rbp
    8af0:	jne    8ae2 <interval_cr3_schedule_ordered_output+0x42>
    8af2:	lea    rcx,[rip+0xffffffffffffbd97]        # 4890 <cr3_time_compare>
    8af9:	mov    rsi,r13
    8afc:	mov    edx,0x8
    8b01:	mov    rdi,r12
    8b04:	lea    r13,[rip+0x14796]        # 1d2a1 <_IO_stdin_used+0x2e1>
    8b0b:	call   4390 <qsort@plt>
    8b10:	call   85c0 <interval_time_output>
    8b15:	lea    eax,[rbx-0x1]
    8b18:	lea    rbp,[r12+rax*8+0x8]
    8b1d:	nop    DWORD PTR [rax]
    8b20:	mov    rbx,QWORD PTR [r14]
    8b23:	mov    rax,QWORD PTR [rbx+0x60]
    8b27:	test   rax,rax
    8b2a:	jle    8b7b <interval_cr3_schedule_ordered_output+0xdb>
    8b2c:	mov    rsi,QWORD PTR [rbx+0x20]
    8b30:	lea    rax,[rax+rax*4]
    8b34:	cmp    QWORD PTR [rip+0x25c6bd],rsi        # 2651f8 <P+0x38058>
    8b3b:	pxor   xmm0,xmm0
    8b3f:	mov    rdx,QWORD PTR [rbx+0x10]
    8b43:	lea    rax,[rax+rax*4]
    8b47:	pxor   xmm1,xmm1
    8b4b:	mov    rsi,r13
    8b4e:	mov    edi,0x1
    8b53:	sbb    ecx,ecx
    8b55:	shl    rax,0x2
    8b59:	cvtsi2sd xmm0,rax
    8b5e:	cvtsi2sd xmm1,QWORD PTR [rip+0x220581]        # 2290e8 <opt+0x48>
    8b67:	and    ecx,0xa
    8b6a:	add    ecx,0x20
    8b6d:	mov    eax,0x1
    8b72:	divsd  xmm0,xmm1
    8b76:	call   44f0 <__printf_chk@plt>
    8b7b:	add    r14,0x8
    8b7f:	mov    QWORD PTR [rbx+0x60],0x0
    8b87:	mov    DWORD PTR [rbx+0x58],0x0
    8b8e:	cmp    rbp,r14
    8b91:	mov    QWORD PTR [rbx+0x68],0x0
    8b99:	jne    8b20 <interval_cr3_schedule_ordered_output+0x80>
    8b9b:	pop    rbx
    8b9c:	mov    rdi,r12
    8b9f:	pop    rbp
    8ba0:	pop    r12
    8ba2:	pop    r13
    8ba4:	pop    r14
    8ba6:	jmp    4330 <free@plt>
    8bab:	nop    DWORD PTR [rax+rax*1+0x0]
    8bb0:	pop    rbx
    8bb1:	pop    rbp
    8bb2:	pop    r12
    8bb4:	pop    r13
    8bb6:	pop    r14
    8bb8:	ret    
    8bb9:	nop    DWORD PTR [rax+0x0]

0000000000008bc0 <interval_cr3_short_summary_header>:
    8bc0:	push   r12
    8bc2:	push   rbp
    8bc3:	lea    rsi,[rip+0x146ea]        # 1d2b4 <_IO_stdin_used+0x2f4>
    8bca:	push   rbx
    8bcb:	lea    rbx,[rip+0x22092e]        # 229500 <hvm_short_summary_name>
    8bd2:	lea    rbp,[rip+0x145ef]        # 1d1c8 <_IO_stdin_used+0x208>
    8bd9:	mov    edi,0x1
    8bde:	xor    eax,eax
    8be0:	lea    r12,[rbx+0x50]
    8be4:	call   44f0 <__printf_chk@plt>
    8be9:	nop    DWORD PTR [rax+0x0]
    8bf0:	mov    rdx,QWORD PTR [rbx]
    8bf3:	xor    eax,eax
    8bf5:	mov    rsi,rbp
    8bf8:	mov    edi,0x1
    8bfd:	add    rbx,0x8
    8c01:	call   44f0 <__printf_chk@plt>
    8c06:	cmp    rbx,r12
    8c09:	jne    8bf0 <interval_cr3_short_summary_header+0x30>
    8c0b:	pop    rbx
    8c0c:	pop    rbp
    8c0d:	pop    r12
    8c0f:	mov    edi,0xa
    8c14:	jmp    4340 <putchar@plt>
    8c19:	nop    DWORD PTR [rax+0x0]

0000000000008c20 <interval_cr3_short_summary_output>:
    8c20:	push   r13
    8c22:	push   r12
    8c24:	push   rbp
    8c25:	push   rbx
    8c26:	sub    rsp,0x8
    8c2a:	mov    rbp,QWORD PTR [rip+0x25c5cf]        # 265200 <P+0x38060>
    8c31:	test   rbp,rbp
    8c34:	je     8d20 <interval_cr3_short_summary_output+0x100>
    8c3a:	call   85c0 <interval_time_output>
    8c3f:	mov    rax,QWORD PTR [rbp+0x60]
    8c43:	pxor   xmm0,xmm0
    8c47:	pxor   xmm1,xmm1
    8c4b:	lea    rsi,[rip+0x145fa]        # 1d24c <_IO_stdin_used+0x28c>
    8c52:	lea    rbx,[rbp+0x108]
    8c59:	lea    r13,[rbp+0x338]
    8c60:	lea    r12,[rip+0x145e5]        # 1d24c <_IO_stdin_used+0x28c>
    8c67:	lea    rax,[rax+rax*4]
    8c6b:	mov    edi,0x1
    8c70:	cvtsi2sd xmm1,QWORD PTR [rip+0x22046f]        # 2290e8 <opt+0x48>
    8c79:	lea    rax,[rax+rax*4]
    8c7d:	shl    rax,0x2
    8c81:	cvtsi2sd xmm0,rax
    8c86:	mov    eax,0x1
    8c8b:	divsd  xmm0,xmm1
    8c8f:	call   44f0 <__printf_chk@plt>
    8c94:	nop    DWORD PTR [rax+0x0]
    8c98:	mov    rax,QWORD PTR [rbx+0x8]
    8c9c:	pxor   xmm0,xmm0
    8ca0:	pxor   xmm1,xmm1
    8ca4:	mov    rsi,r12
    8ca7:	mov    edi,0x1
    8cac:	add    rbx,0x38
    8cb0:	lea    rax,[rax+rax*4]
    8cb4:	cvtsi2sd xmm1,QWORD PTR [rbp+0x60]
    8cba:	lea    rax,[rax+rax*4]
    8cbe:	shl    rax,0x2
    8cc2:	cvtsi2sd xmm0,rax
    8cc7:	mov    eax,0x1
    8ccc:	divsd  xmm0,xmm1
    8cd0:	call   44f0 <__printf_chk@plt>
    8cd5:	mov    QWORD PTR [rbx-0x30],0x0
    8cdd:	mov    DWORD PTR [rbx-0x38],0x0
    8ce4:	mov    QWORD PTR [rbx-0x28],0x0
    8cec:	cmp    r13,rbx
    8cef:	jne    8c98 <interval_cr3_short_summary_output+0x78>
    8cf1:	mov    QWORD PTR [rbp+0x60],0x0
    8cf9:	mov    DWORD PTR [rbp+0x58],0x0
    8d00:	mov    edi,0xa
    8d05:	mov    QWORD PTR [rbp+0x68],0x0
    8d0d:	add    rsp,0x8
    8d11:	pop    rbx
    8d12:	pop    rbp
    8d13:	pop    r12
    8d15:	pop    r13
    8d17:	jmp    4340 <putchar@plt>
    8d1c:	nop    DWORD PTR [rax+0x0]
    8d20:	add    rsp,0x8
    8d24:	pop    rbx
    8d25:	pop    rbp
    8d26:	pop    r12
    8d28:	pop    r13
    8d2a:	ret    
    8d2b:	nop    DWORD PTR [rax+rax*1+0x0]

0000000000008d30 <interval_domain_value_check>:
    8d30:	push   r13
    8d32:	push   r12
    8d34:	mov    r12,rdi
    8d37:	push   rbp
    8d38:	push   rbx
    8d39:	sub    rsp,0x38
    8d3d:	mov    rax,QWORD PTR fs:0x28
    8d46:	mov    QWORD PTR [rsp+0x28],rax
    8d4b:	xor    eax,eax
    8d4d:	mov    eax,DWORD PTR [rip+0x2203a5]        # 2290f8 <opt+0x58>
    8d53:	cmp    eax,0x1
    8d56:	je     8da0 <interval_domain_value_check+0x70>
    8d58:	cmp    eax,0x2
    8d5b:	movsxd r9,DWORD PTR [rdi+0x8]
    8d5f:	je     8e30 <interval_domain_value_check+0x100>
    8d65:	mov    rax,QWORD PTR [rip+0x220394]        # 229100 <opt+0x60>
    8d6c:	cmp    r9,QWORD PTR [rax]
    8d6f:	je     8d90 <interval_domain_value_check+0x60>
    8d71:	mov    rax,QWORD PTR [rsp+0x28]
    8d76:	xor    rax,QWORD PTR fs:0x28
    8d7f:	jne    8e72 <interval_domain_value_check+0x142>
    8d85:	add    rsp,0x38
    8d89:	pop    rbx
    8d8a:	pop    rbp
    8d8b:	pop    r12
    8d8d:	pop    r13
    8d8f:	ret    
    8d90:	mov    QWORD PTR [rip+0x25c469],rdi        # 265200 <P+0x38060>
    8d97:	jmp    8d71 <interval_domain_value_check+0x41>
    8d99:	nop    DWORD PTR [rax+0x0]
    8da0:	mov    eax,DWORD PTR [rip+0x220362]        # 229108 <opt+0x68>
    8da6:	xor    ebx,ebx
    8da8:	xor    ebp,ebp
    8daa:	lea    r13,[rdi+0x840]
    8db1:	test   eax,eax
    8db3:	jg     8dcf <interval_domain_value_check+0x9f>
    8db5:	jmp    8d71 <interval_domain_value_check+0x41>
    8db7:	nop    WORD PTR [rax+rax*1+0x0]
    8dc0:	add    ebp,0x1
    8dc3:	add    rbx,0x8
    8dc7:	cmp    ebp,DWORD PTR [rip+0x22033b]        # 229108 <opt+0x68>
    8dcd:	jge    8d71 <interval_domain_value_check+0x41>
    8dcf:	mov    rax,QWORD PTR [rip+0x22032a]        # 229100 <opt+0x60>
    8dd6:	movsxd rdx,DWORD PTR [r12+0x8]
    8ddb:	cmp    rdx,QWORD PTR [rax+rbx*1]
    8ddf:	mov    rcx,rdx
    8de2:	jne    8dc0 <interval_domain_value_check+0x90>
    8de4:	mov    rax,QWORD PTR [rip+0x25c415]        # 265200 <P+0x38060>
    8deb:	add    rax,rbx
    8dee:	cmp    QWORD PTR [rax],0x0
    8df2:	je     8e21 <interval_domain_value_check+0xf1>
    8df4:	mov    rdi,QWORD PTR [rip+0x223645]        # 22c440 <stderr@@GLIBC_2.2.5>
    8dfb:	lea    rdx,[rip+0x16b8e]        # 1f990 <_IO_stdin_used+0x29d0>
    8e02:	xor    eax,eax
    8e04:	mov    esi,0x1
    8e09:	call   4560 <__fprintf_chk@plt>
    8e0e:	cmp    DWORD PTR [rip+0x2202cb],0x6        # 2290e0 <opt+0x40>
    8e15:	jbe    8e68 <interval_domain_value_check+0x138>
    8e17:	mov    rax,QWORD PTR [rip+0x25c3e2]        # 265200 <P+0x38060>
    8e1e:	add    rax,rbx
    8e21:	mov    QWORD PTR [rax],r13
    8e24:	jmp    8dc0 <interval_domain_value_check+0x90>
    8e26:	nop    WORD PTR cs:[rax+rax*1+0x0]
    8e30:	mov    rbx,rsp
    8e33:	lea    r8,[rip+0x146e8]        # 1d522 <_IO_stdin_used+0x562>
    8e3a:	mov    ecx,0x20
    8e3f:	mov    rdi,rbx
    8e42:	mov    edx,0x1
    8e47:	mov    esi,0x20
    8e4c:	xor    eax,eax
    8e4e:	call   4320 <__snprintf_chk@plt>
    8e53:	lea    rdi,[r12+0x840]
    8e5b:	mov    rsi,rbx
    8e5e:	call   87d0 <interval_list_add>
    8e63:	jmp    8d71 <interval_domain_value_check+0x41>
    8e68:	mov    edi,0x1
    8e6d:	call   4540 <exit@plt>
    8e72:	call   43c0 <__stack_chk_fail@plt>
    8e77:	nop    WORD PTR [rax+rax*1+0x0]

0000000000008e80 <interval_domain_short_summary_header>:
    8e80:	push   r12
    8e82:	push   rbp
    8e83:	lea    rsi,[rip+0x14435]        # 1d2bf <_IO_stdin_used+0x2ff>
    8e8a:	push   rbx
    8e8b:	lea    rbx,[rip+0x22066e]        # 229500 <hvm_short_summary_name>
    8e92:	lea    rbp,[rip+0x1432f]        # 1d1c8 <_IO_stdin_used+0x208>
    8e99:	mov    edi,0x1
    8e9e:	xor    eax,eax
    8ea0:	lea    r12,[rbx+0x50]
    8ea4:	call   44f0 <__printf_chk@plt>
    8ea9:	nop    DWORD PTR [rax+0x0]
    8eb0:	mov    rdx,QWORD PTR [rbx]
    8eb3:	xor    eax,eax
    8eb5:	mov    rsi,rbp
    8eb8:	mov    edi,0x1
    8ebd:	add    rbx,0x8
    8ec1:	call   44f0 <__printf_chk@plt>
    8ec6:	cmp    rbx,r12
    8ec9:	jne    8eb0 <interval_domain_short_summary_header+0x30>
    8ecb:	pop    rbx
    8ecc:	pop    rbp
    8ecd:	pop    r12
    8ecf:	mov    edi,0xa
    8ed4:	jmp    4340 <putchar@plt>
    8ed9:	nop    DWORD PTR [rax+0x0]

0000000000008ee0 <interval_domain_short_summary_output>:
    8ee0:	push   rbp
    8ee1:	push   rbx
    8ee2:	sub    rsp,0x8
    8ee6:	mov    rbp,QWORD PTR [rip+0x25c313]        # 265200 <P+0x38060>
    8eed:	test   rbp,rbp
    8ef0:	je     8f40 <interval_domain_short_summary_output+0x60>
    8ef2:	call   85c0 <interval_time_output>
    8ef7:	lea    rdi,[rbp+0x840]
    8efe:	lea    rbx,[rbp+0xf98]
    8f05:	add    rbp,0x11c8
    8f0c:	call   8560 <interval_cycle_percent_output>
    8f11:	nop    DWORD PTR [rax+0x0]
    8f18:	mov    rdi,rbx
    8f1b:	add    rbx,0x38
    8f1f:	call   8560 <interval_cycle_percent_output>
    8f24:	cmp    rbx,rbp
    8f27:	jne    8f18 <interval_domain_short_summary_output+0x38>
    8f29:	add    rsp,0x8
    8f2d:	mov    edi,0xa
    8f32:	pop    rbx
    8f33:	pop    rbp
    8f34:	jmp    4340 <putchar@plt>
    8f39:	nop    DWORD PTR [rax+0x0]
    8f40:	add    rsp,0x8
    8f44:	pop    rbx
    8f45:	pop    rbp
    8f46:	ret    
    8f47:	nop    WORD PTR [rax+rax*1+0x0]

0000000000008f50 <interval_domain_guest_interrupt>:
    8f50:	mov    rax,QWORD PTR [rdi+0x10]
    8f54:	lea    rcx,[rip+0x25c2ad]        # 265208 <P+0x38068>
    8f5b:	mov    r8,QWORD PTR [rax+0x8]
    8f5f:	xor    eax,eax
    8f61:	nop    DWORD PTR [rax+0x0]
    8f68:	mov    edx,DWORD PTR [rcx+rax*4]
    8f6b:	movsxd rdi,eax
    8f6e:	test   edx,edx
    8f70:	je     8fb8 <interval_domain_guest_interrupt+0x68>
    8f72:	cmp    edx,esi
    8f74:	je     8fc6 <interval_domain_guest_interrupt+0x76>
    8f76:	add    rax,0x1
    8f7a:	cmp    rax,0xa
    8f7e:	jne    8f68 <interval_domain_guest_interrupt+0x18>
    8f80:	sub    rsp,0x8
    8f84:	mov    rdi,QWORD PTR [rip+0x2234b5]        # 22c440 <stderr@@GLIBC_2.2.5>
    8f8b:	lea    rdx,[rip+0x16a26]        # 1f9b8 <_IO_stdin_used+0x29f8>
    8f92:	xor    eax,eax
    8f94:	mov    ecx,0xa
    8f99:	mov    esi,0x1
    8f9e:	call   4560 <__fprintf_chk@plt>
    8fa3:	cmp    DWORD PTR [rip+0x220136],0x5        # 2290e0 <opt+0x40>
    8faa:	jbe    8fd3 <interval_domain_guest_interrupt+0x83>
    8fac:	add    rsp,0x8
    8fb0:	ret    
    8fb1:	nop    DWORD PTR [rax+0x0]
    8fb8:	lea    rax,[rip+0x2241e1]        # 22d1a0 <P>
    8fbf:	mov    DWORD PTR [rax+rdi*4+0x38068],esi
    8fc6:	movsxd rsi,esi
    8fc9:	add    DWORD PTR [r8+rsi*4+0x9f8],0x1
    8fd2:	ret    
    8fd3:	mov    edi,0x1
    8fd8:	call   4540 <exit@plt>
    8fdd:	nop    DWORD PTR [rax]

0000000000008fe0 <interval_domain_guest_interrupt_tail>:
    8fe0:	push   r12
    8fe2:	push   rbp
    8fe3:	lea    rsi,[rip+0x142d5]        # 1d2bf <_IO_stdin_used+0x2ff>
    8fea:	push   rbx
    8feb:	lea    rbx,[rip+0x25c216]        # 265208 <P+0x38068>
    8ff2:	lea    rbp,[rip+0x14528]        # 1d521 <_IO_stdin_used+0x561>
    8ff9:	mov    edi,0x1
    8ffe:	xor    eax,eax
    9000:	lea    r12,[rbx+0x28]
    9004:	call   44f0 <__printf_chk@plt>
    9009:	nop    DWORD PTR [rax+0x0]
    9010:	mov    edx,DWORD PTR [rbx]
    9012:	test   edx,edx
    9014:	je     902e <interval_domain_guest_interrupt_tail+0x4e>
    9016:	xor    eax,eax
    9018:	mov    rsi,rbp
    901b:	mov    edi,0x1
    9020:	add    rbx,0x4
    9024:	call   44f0 <__printf_chk@plt>
    9029:	cmp    rbx,r12
    902c:	jne    9010 <interval_domain_guest_interrupt_tail+0x30>
    902e:	pop    rbx
    902f:	pop    rbp
    9030:	pop    r12
    9032:	mov    edi,0xa
    9037:	jmp    4340 <putchar@plt>
    903c:	nop    DWORD PTR [rax+0x0]

0000000000009040 <interval_domain_guest_interrupt_output>:
    9040:	push   r14
    9042:	push   r13
    9044:	push   r12
    9046:	push   rbp
    9047:	mov    rbp,QWORD PTR [rip+0x25c1b2]        # 265200 <P+0x38060>
    904e:	push   rbx
    904f:	test   rbp,rbp
    9052:	je     90c0 <interval_domain_guest_interrupt_output+0x80>
    9054:	lea    rbx,[rip+0x25c1ad]        # 265208 <P+0x38068>
    905b:	lea    r12,[rip+0x144bf]        # 1d521 <_IO_stdin_used+0x561>
    9062:	call   85c0 <interval_time_output>
    9067:	lea    r13,[rbx+0x28]
    906b:	nop    DWORD PTR [rax+rax*1+0x0]
    9070:	movsxd rax,DWORD PTR [rbx]
    9073:	test   eax,eax
    9075:	je     90a6 <interval_domain_guest_interrupt_output+0x66>
    9077:	lea    r14,[rbp+rax*4+0x0]
    907c:	mov    rsi,r12
    907f:	xor    eax,eax
    9081:	mov    edi,0x1
    9086:	add    rbx,0x4
    908a:	mov    edx,DWORD PTR [r14+0x9f8]
    9091:	call   44f0 <__printf_chk@plt>
    9096:	cmp    rbx,r13
    9099:	mov    DWORD PTR [r14+0x9f8],0x0
    90a4:	jne    9070 <interval_domain_guest_interrupt_output+0x30>
    90a6:	pop    rbx
    90a7:	pop    rbp
    90a8:	pop    r12
    90aa:	pop    r13
    90ac:	pop    r14
    90ae:	mov    edi,0xa
    90b3:	jmp    4340 <putchar@plt>
    90b8:	nop    DWORD PTR [rax+rax*1+0x0]
    90c0:	pop    rbx
    90c1:	pop    rbp
    90c2:	pop    r12
    90c4:	pop    r13
    90c6:	pop    r14
    90c8:	ret    
    90c9:	nop    DWORD PTR [rax+0x0]

00000000000090d0 <interval_domain_grant_maps_output>:
    90d0:	push   rbx
    90d1:	mov    rbx,QWORD PTR [rip+0x25c128]        # 265200 <P+0x38060>
    90d8:	test   rbx,rbx
    90db:	je     9110 <interval_domain_grant_maps_output+0x40>
    90dd:	call   85c0 <interval_time_output>
    90e2:	mov    edx,DWORD PTR [rbx+0x1290]
    90e8:	lea    rsi,[rip+0x14432]        # 1d521 <_IO_stdin_used+0x561>
    90ef:	mov    edi,0x1
    90f4:	xor    eax,eax
    90f6:	call   44f0 <__printf_chk@plt>
    90fb:	mov    DWORD PTR [rbx+0x1290],0x0
    9105:	mov    edi,0xa
    910a:	pop    rbx
    910b:	jmp    4340 <putchar@plt>
    9110:	pop    rbx
    9111:	ret    
    9112:	nop    DWORD PTR [rax+0x0]
    9116:	nop    WORD PTR cs:[rax+rax*1+0x0]

0000000000009120 <interval_callback>:
    9120:	mov    eax,DWORD PTR [rip+0x21ffd2]        # 2290f8 <opt+0x58>
    9126:	sub    eax,0x1
    9129:	cmp    eax,0x1
    912c:	jbe    9150 <interval_callback+0x30>
    912e:	cmp    DWORD PTR [rip+0x21ffbf],0x6        # 2290f4 <opt+0x54>
    9135:	ja     9180 <interval_callback+0x60>
    9137:	mov    eax,DWORD PTR [rip+0x21ffb7]        # 2290f4 <opt+0x54>
    913d:	lea    rdx,[rip+0x19dfc]        # 22f40 <_IO_stdin_used+0x5f80>
    9144:	movsxd rax,DWORD PTR [rdx+rax*4]
    9148:	add    rax,rdx
    914b:	jmp    rax
    914d:	nop    DWORD PTR [rax]
    9150:	jmp    8630 <interval_table_output>
    9155:	nop    DWORD PTR [rax]
    9158:	jmp    90d0 <interval_domain_grant_maps_output>
    915d:	nop    DWORD PTR [rax]
    9160:	jmp    8aa0 <interval_cr3_schedule_ordered_output>
    9165:	nop    DWORD PTR [rax]
    9168:	jmp    8c20 <interval_cr3_short_summary_output>
    916d:	nop    DWORD PTR [rax]
    9170:	jmp    8ee0 <interval_domain_short_summary_output>
    9175:	nop    DWORD PTR [rax]
    9178:	jmp    9040 <interval_domain_guest_interrupt_output>
    917d:	nop    DWORD PTR [rax]
    9180:	repz ret 
    9182:	nop    DWORD PTR [rax+0x0]
    9186:	nop    WORD PTR cs:[rax+rax*1+0x0]

0000000000009190 <interval_header>:
    9190:	mov    eax,DWORD PTR [rip+0x21ff5e]        # 2290f4 <opt+0x54>
    9196:	cmp    eax,0x2
    9199:	je     91b0 <interval_header+0x20>
    919b:	cmp    eax,0x4
    919e:	jne    91a8 <interval_header+0x18>
    91a0:	jmp    8e80 <interval_domain_short_summary_header>
    91a5:	nop    DWORD PTR [rax]
    91a8:	repz ret 
    91aa:	nop    WORD PTR [rax+rax*1+0x0]
    91b0:	jmp    8bc0 <interval_cr3_short_summary_header>
    91b5:	nop
    91b6:	nop    WORD PTR cs:[rax+rax*1+0x0]

00000000000091c0 <interval_tail>:
    91c0:	cmp    DWORD PTR [rip+0x21ff31],0x2        # 2290f8 <opt+0x58>
    91c7:	je     91e0 <interval_tail+0x20>
    91c9:	cmp    DWORD PTR [rip+0x21ff24],0x5        # 2290f4 <opt+0x54>
    91d0:	je     91d8 <interval_tail+0x18>
    91d2:	repz ret 
    91d4:	nop    DWORD PTR [rax+0x0]
    91d8:	jmp    8fe0 <interval_domain_guest_interrupt_tail>
    91dd:	nop    DWORD PTR [rax]
    91e0:	jmp    86f0 <interval_table_tail>
    91e5:	nop
    91e6:	nop    WORD PTR cs:[rax+rax*1+0x0]

00000000000091f0 <update_eip>:
    91f0:	push   r15
    91f2:	push   r14
    91f4:	movsxd r15,ecx
    91f7:	push   r13
    91f9:	push   r12
    91fb:	mov    r14,rdx
    91fe:	push   rbp
    91ff:	push   rbx
    9200:	mov    rbp,rdi
    9203:	mov    r12,rsi
    9206:	sub    rsp,0x18
    920a:	mov    rbx,QWORD PTR [rdi]
    920d:	test   rbx,rbx
    9210:	je     9238 <update_eip+0x48>
    9212:	mov    rax,QWORD PTR [rbx+0x8]
    9216:	cmp    rsi,rax
    9219:	ja     922d <update_eip+0x3d>
    921b:	jmp    92b8 <update_eip+0xc8>
    9220:	mov    rax,QWORD PTR [rbx+0x8]
    9224:	cmp    rax,r12
    9227:	jae    92b8 <update_eip+0xc8>
    922d:	mov    rbp,rbx
    9230:	mov    rbx,QWORD PTR [rbx]
    9233:	test   rbx,rbx
    9236:	jne    9220 <update_eip+0x30>
    9238:	mov    edi,0x58
    923d:	mov    QWORD PTR [rsp+0x8],r8
    9242:	call   4490 <malloc@plt>
    9247:	test   rax,rax
    924a:	mov    r13,rax
    924d:	mov    rbx,rax
    9250:	mov    r8,QWORD PTR [rsp+0x8]
    9255:	je     93b8 <update_eip+0x1c8>
    925b:	xor    eax,eax
    925d:	mov    ecx,0xb
    9262:	mov    rdi,r13
    9265:	rep stos QWORD PTR es:[rdi],rax
    9268:	lea    rdx,[r15+r15*2]
    926c:	lea    rax,[rip+0x25bfcd]        # 265240 <eip_list_type>
    9273:	mov    QWORD PTR [r13+0x8],r12
    9277:	mov    DWORD PTR [r13+0x48],r15d
    927b:	mov    rax,QWORD PTR [rax+rdx*8+0x8]
    9280:	test   rax,rax
    9283:	je     928d <update_eip+0x9d>
    9285:	mov    rsi,r8
    9288:	mov    rdi,r13
    928b:	call   rax
    928d:	mov    rax,QWORD PTR [rbp+0x0]
    9291:	mov    QWORD PTR [r13+0x0],rax
    9295:	mov    QWORD PTR [rbp+0x0],r13
    9299:	add    DWORD PTR [rbx+0x10],0x1
    929d:	test   r14,r14
    92a0:	jne    92f8 <update_eip+0x108>
    92a2:	add    rsp,0x18
    92a6:	pop    rbx
    92a7:	pop    rbp
    92a8:	pop    r12
    92aa:	pop    r13
    92ac:	pop    r14
    92ae:	pop    r15
    92b0:	ret    
    92b1:	nop    DWORD PTR [rax+0x0]
    92b8:	cmp    r12,rax
    92bb:	jne    9238 <update_eip+0x48>
    92c1:	mov    ecx,DWORD PTR [rbx+0x48]
    92c4:	cmp    ecx,r15d
    92c7:	jne    93e0 <update_eip+0x1f0>
    92cd:	lea    rdx,[r15+r15*2]
    92d1:	lea    rax,[rip+0x25bf68]        # 265240 <eip_list_type>
    92d8:	mov    rax,QWORD PTR [rax+rdx*8]
    92dc:	test   rax,rax
    92df:	je     9299 <update_eip+0xa9>
    92e1:	mov    rsi,r8
    92e4:	mov    rdi,rbx
    92e7:	call   rax
    92e9:	add    DWORD PTR [rbx+0x10],0x1
    92ed:	test   r14,r14
    92f0:	je     92a2 <update_eip+0xb2>
    92f2:	nop    WORD PTR [rax+rax*1+0x0]
    92f8:	mov    edx,DWORD PTR [rip+0x21fdda]        # 2290d8 <opt+0x38>
    92fe:	movsxd rcx,DWORD PTR [rbx+0x14]
    9302:	test   edx,edx
    9304:	mov    eax,ecx
    9306:	je     9390 <update_eip+0x1a0>
    930c:	mov    eax,DWORD PTR [rbx+0x18]
    930f:	cmp    eax,ecx
    9311:	jg     9408 <update_eip+0x218>
    9317:	test   ecx,ecx
    9319:	mov    ebp,DWORD PTR [rip+0x21fdbd]        # 2290dc <opt+0x3c>
    931f:	jne    9428 <update_eip+0x238>
    9325:	add    eax,eax
    9327:	cmovne edx,eax
    932a:	test   ebp,ebp
    932c:	je     9447 <update_eip+0x257>
    9332:	cmp    edx,ebp
    9334:	jle    9447 <update_eip+0x257>
    933a:	mov    rdi,QWORD PTR [rbx+0x28]
    933e:	movsxd rsi,ebp
    9341:	shl    rsi,0x3
    9345:	call   44c0 <realloc@plt>
    934a:	test   rax,rax
    934d:	je     943f <update_eip+0x24f>
    9353:	mov    QWORD PTR [rbx+0x28],rax
    9357:	mov    DWORD PTR [rbx+0x18],ebp
    935a:	movsxd rcx,DWORD PTR [rbx+0x14]
    935e:	cmp    ecx,ebp
    9360:	jl     9408 <update_eip+0x218>
    9366:	mov    eax,ecx
    9368:	cdq    
    9369:	idiv   ebp
    936b:	lea    esi,[rax+0x1]
    936e:	movsxd rdi,edx
    9371:	mov    edx,0x55555556
    9376:	mov    eax,esi
    9378:	imul   edx
    937a:	mov    eax,esi
    937c:	sar    eax,0x1f
    937f:	sub    eax,edx
    9381:	add    eax,edi
    9383:	cdq    
    9384:	idiv   esi
    9386:	mov    eax,ecx
    9388:	test   edx,edx
    938a:	je     9418 <update_eip+0x228>
    9390:	add    eax,0x1
    9393:	add    QWORD PTR [rbx+0x20],r14
    9397:	add    DWORD PTR [rbx+0x30],0x1
    939b:	mov    DWORD PTR [rbx+0x14],eax
    939e:	add    QWORD PTR [rbx+0x38],r14
    93a2:	add    rsp,0x18
    93a6:	pop    rbx
    93a7:	pop    rbp
    93a8:	pop    r12
    93aa:	pop    r13
    93ac:	pop    r14
    93ae:	pop    r15
    93b0:	ret    
    93b1:	nop    DWORD PTR [rax+0x0]
    93b8:	lea    rdi,[rip+0x13f0d]        # 1d2cc <_IO_stdin_used+0x30c>
    93bf:	call   4530 <perror@plt>
    93c4:	cmp    DWORD PTR [rip+0x21fd15],0x7        # 2290e0 <opt+0x40>
    93cb:	mov    r8,QWORD PTR [rsp+0x8]
    93d0:	ja     925b <update_eip+0x6b>
    93d6:	mov    edi,0x1
    93db:	call   4540 <exit@plt>
    93e0:	mov    rdi,QWORD PTR [rip+0x223059]        # 22c440 <stderr@@GLIBC_2.2.5>
    93e7:	lea    rdx,[rip+0x13eec]        # 1d2da <_IO_stdin_used+0x31a>
    93ee:	mov    r8d,r15d
    93f1:	mov    esi,0x1
    93f6:	xor    eax,eax
    93f8:	call   4560 <__fprintf_chk@plt>
    93fd:	jmp    9299 <update_eip+0xa9>
    9402:	nop    WORD PTR [rax+rax*1+0x0]
    9408:	mov    rax,QWORD PTR [rbx+0x28]
    940c:	mov    QWORD PTR [rax+rcx*8],r14
    9410:	mov    eax,DWORD PTR [rbx+0x14]
    9413:	jmp    9390 <update_eip+0x1a0>
    9418:	mov    rax,QWORD PTR [rbx+0x28]
    941c:	mov    QWORD PTR [rax+rdi*8],r14
    9420:	mov    eax,DWORD PTR [rbx+0x14]
    9423:	jmp    9390 <update_eip+0x1a0>
    9428:	test   ebp,ebp
    942a:	je     9325 <update_eip+0x135>
    9430:	cmp    eax,ebp
    9432:	jl     9325 <update_eip+0x135>
    9438:	mov    ebp,eax
    943a:	jmp    9366 <update_eip+0x176>
    943f:	mov    ebp,DWORD PTR [rbx+0x18]
    9442:	jmp    935a <update_eip+0x16a>
    9447:	mov    ebp,edx
    9449:	jmp    933a <update_eip+0x14a>
    944e:	xchg   ax,ax

0000000000009450 <dump_eip>:
    9450:	test   rdi,rdi
    9453:	je     9688 <dump_eip+0x238>
    9459:	push   r15
    945b:	push   r14
    945d:	mov    rax,rdi
    9460:	push   r13
    9462:	push   r12
    9464:	mov    r14,rdi
    9467:	push   rbp
    9468:	push   rbx
    9469:	xor    r13d,r13d
    946c:	xor    edx,edx
    946e:	sub    rsp,0x28
    9472:	nop    WORD PTR [rax+rax*1+0x0]
    9478:	mov    ebx,DWORD PTR [rax+0x14]
    947b:	mov    rax,QWORD PTR [rax]
    947e:	add    r13d,0x1
    9482:	add    ebx,edx
    9484:	test   rax,rax
    9487:	mov    edx,ebx
    9489:	jne    9478 <dump_eip+0x28>
    948b:	movsxd r15,r13d
    948e:	lea    rdi,[r15*8+0x0]
    9496:	call   4490 <malloc@plt>
    949b:	mov    r12,rax
    949e:	mov    rbp,rax
    94a1:	mov    QWORD PTR [rax],r14
    94a4:	mov    r14,QWORD PTR [r14]
    94a7:	add    rax,0x8
    94ab:	test   r14,r14
    94ae:	jne    94a1 <dump_eip+0x51>
    94b0:	lea    rcx,[rip+0xffffffffffffb419]        # 48d0 <eip_compare>
    94b7:	mov    edx,0x8
    94bc:	mov    rsi,r15
    94bf:	mov    rdi,r12
    94c2:	call   4390 <qsort@plt>
    94c7:	lea    rsi,[rip+0x13e29]        # 1d2f7 <_IO_stdin_used+0x337>
    94ce:	mov    edx,ebx
    94d0:	mov    edi,0x1
    94d5:	xor    eax,eax
    94d7:	call   44f0 <__printf_chk@plt>
    94dc:	lea    eax,[r13-0x1]
    94e0:	lea    r13,[rip+0x25bd59]        # 265240 <eip_list_type>
    94e7:	lea    r14,[r12+rax*8+0x8]
    94ec:	jmp    9618 <dump_eip+0x1c8>
    94f1:	nop    DWORD PTR [rax+0x0]
    94f8:	mov    esi,DWORD PTR [r15+0x10]
    94fc:	test   esi,esi
    94fe:	je     95f8 <dump_eip+0x1a8>
    9504:	mov    ecx,DWORD PTR [rip+0x21fbce]        # 2290d8 <opt+0x38>
    950a:	test   ecx,ecx
    950c:	je     96b0 <dump_eip+0x260>
    9512:	mov    ecx,DWORD PTR [r15+0x14]
    9516:	cmp    DWORD PTR [r15+0x18],ecx
    951a:	cmovle ecx,DWORD PTR [r15+0x18]
    951f:	test   ecx,ecx
    9521:	jne    97a0 <dump_eip+0x350>
    9527:	xor    r10d,r10d
    952a:	xor    r8d,r8d
    952d:	xor    r9d,r9d
    9530:	mov    rdi,QWORD PTR [r15+0x8]
    9534:	mov    QWORD PTR [rsp+0x18],r8
    9539:	mov    QWORD PTR [rsp+0x10],r9
    953e:	mov    QWORD PTR [rsp+0x8],r10
    9543:	call   73e0 <find_symbol>
    9548:	mov    rdx,QWORD PTR [r15+0x8]
    954c:	lea    rsi,[rip+0x13dba]        # 1d30d <_IO_stdin_used+0x34d>
    9553:	mov    rcx,rax
    9556:	mov    edi,0x1
    955b:	xor    eax,eax
    955d:	call   44f0 <__printf_chk@plt>
    9562:	mov    eax,DWORD PTR [r15+0x14]
    9566:	xor    ecx,ecx
    9568:	mov    rsi,QWORD PTR [r15+0x20]
    956c:	mov    r10,QWORD PTR [rsp+0x8]
    9571:	mov    r9,QWORD PTR [rsp+0x10]
    9576:	mov    r8,QWORD PTR [rsp+0x18]
    957b:	test   eax,eax
    957d:	je     958d <dump_eip+0x13d>
    957f:	movsxd rcx,eax
    9582:	xor    edx,edx
    9584:	mov    rax,rsi
    9587:	div    rcx
    958a:	mov    rcx,rax
    958d:	lea    rax,[rsi+rsi*4]
    9591:	pxor   xmm1,xmm1
    9595:	pxor   xmm0,xmm0
    9599:	lea    rdx,[rax+rax*4]
    959d:	shl    rdx,0x2
    95a1:	test   rsi,rsi
    95a4:	cvtsi2sd xmm0,QWORD PTR [rip+0x223c23]        # 22d1d0 <P+0x30>
    95ad:	cvtsi2sd xmm1,rdx
    95b2:	divsd  xmm1,xmm0
    95b6:	js     9780 <dump_eip+0x330>
    95bc:	pxor   xmm0,xmm0
    95c0:	cvtsi2sd xmm0,rsi
    95c5:	pxor   xmm2,xmm2
    95c9:	sub    rsp,0x8
    95cd:	mov    edx,DWORD PTR [r15+0x10]
    95d1:	lea    rsi,[rip+0x16200]        # 1f7d8 <_IO_stdin_used+0x2818>
    95d8:	push   r10
    95da:	mov    edi,0x1
    95df:	mov    eax,0x2
    95e4:	cvtsi2sd xmm2,QWORD PTR [rip+0x21fac3]        # 2290b0 <opt+0x10>
    95ed:	divsd  xmm0,xmm2
    95f1:	call   44f0 <__printf_chk@plt>
    95f6:	pop    rax
    95f7:	pop    rdx
    95f8:	movsxd rax,DWORD PTR [r15+0x48]
    95fc:	lea    rax,[rax+rax*2]
    9600:	mov    rax,QWORD PTR [r13+rax*8+0x10]
    9605:	test   rax,rax
    9608:	je     960f <dump_eip+0x1bf>
    960a:	mov    rdi,r15
    960d:	call   rax
    960f:	add    rbp,0x8
    9613:	cmp    r14,rbp
    9616:	je     9690 <dump_eip+0x240>
    9618:	mov    r15,QWORD PTR [rbp+0x0]
    961c:	cmp    QWORD PTR [r15+0x20],0x0
    9621:	jne    94f8 <dump_eip+0xa8>
    9627:	mov    rdi,QWORD PTR [r15+0x8]
    962b:	call   73e0 <find_symbol>
    9630:	mov    rdx,QWORD PTR [r15+0x8]
    9634:	lea    rsi,[rip+0x13cd2]        # 1d30d <_IO_stdin_used+0x34d>
    963b:	mov    rcx,rax
    963e:	mov    edi,0x1
    9643:	xor    eax,eax
    9645:	call   44f0 <__printf_chk@plt>
    964a:	mov    edx,DWORD PTR [r15+0x14]
    964e:	pxor   xmm0,xmm0
    9652:	pxor   xmm1,xmm1
    9656:	lea    rsi,[rip+0x13cc1]        # 1d31e <_IO_stdin_used+0x35e>
    965d:	mov    edi,0x1
    9662:	mov    eax,0x1
    9667:	cvtsi2sd xmm0,edx
    966b:	cvtsi2sd xmm1,ebx
    966f:	mulsd  xmm0,QWORD PTR [rip+0x1a231]        # 238a8 <__PRETTY_FUNCTION__.5713+0x18>
    9677:	divsd  xmm0,xmm1
    967b:	call   44f0 <__printf_chk@plt>
    9680:	jmp    95f8 <dump_eip+0x1a8>
    9685:	nop    DWORD PTR [rax]
    9688:	repz ret 
    968a:	nop    WORD PTR [rax+rax*1+0x0]
    9690:	add    rsp,0x28
    9694:	mov    rdi,r12
    9697:	pop    rbx
    9698:	pop    rbp
    9699:	pop    r12
    969b:	pop    r13
    969d:	pop    r14
    969f:	pop    r15
    96a1:	jmp    4330 <free@plt>
    96a6:	nop    WORD PTR cs:[rax+rax*1+0x0]
    96b0:	mov    rdi,QWORD PTR [r15+0x8]
    96b4:	call   73e0 <find_symbol>
    96b9:	mov    rdx,QWORD PTR [r15+0x8]
    96bd:	lea    rsi,[rip+0x13c49]        # 1d30d <_IO_stdin_used+0x34d>
    96c4:	mov    rcx,rax
    96c7:	mov    edi,0x1
    96cc:	xor    eax,eax
    96ce:	call   44f0 <__printf_chk@plt>
    96d3:	mov    eax,DWORD PTR [r15+0x14]
    96d7:	xor    ecx,ecx
    96d9:	mov    rsi,QWORD PTR [r15+0x20]
    96dd:	test   eax,eax
    96df:	jne    9748 <dump_eip+0x2f8>
    96e1:	lea    rdx,[rsi+rsi*4]
    96e5:	pxor   xmm1,xmm1
    96e9:	pxor   xmm0,xmm0
    96ed:	lea    rdx,[rdx+rdx*4]
    96f1:	shl    rdx,0x2
    96f5:	test   rsi,rsi
    96f8:	cvtsi2sd xmm0,QWORD PTR [rip+0x223acf]        # 22d1d0 <P+0x30>
    9701:	cvtsi2sd xmm1,rdx
    9706:	divsd  xmm1,xmm0
    970a:	js     9760 <dump_eip+0x310>
    970c:	pxor   xmm0,xmm0
    9710:	cvtsi2sd xmm0,rsi
    9715:	pxor   xmm2,xmm2
    9719:	mov    edx,DWORD PTR [r15+0x10]
    971d:	lea    rsi,[rip+0x160ec]        # 1f810 <_IO_stdin_used+0x2850>
    9724:	mov    edi,0x1
    9729:	mov    eax,0x2
    972e:	cvtsi2sd xmm2,QWORD PTR [rip+0x21f979]        # 2290b0 <opt+0x10>
    9737:	divsd  xmm0,xmm2
    973b:	call   44f0 <__printf_chk@plt>
    9740:	jmp    95f8 <dump_eip+0x1a8>
    9745:	nop    DWORD PTR [rax]
    9748:	movsxd rcx,eax
    974b:	xor    edx,edx
    974d:	mov    rax,rsi
    9750:	div    rcx
    9753:	mov    rcx,rax
    9756:	jmp    96e1 <dump_eip+0x291>
    9758:	nop    DWORD PTR [rax+rax*1+0x0]
    9760:	mov    rax,rsi
    9763:	pxor   xmm0,xmm0
    9767:	shr    rax,1
    976a:	and    esi,0x1
    976d:	or     rax,rsi
    9770:	cvtsi2sd xmm0,rax
    9775:	addsd  xmm0,xmm0
    9779:	jmp    9715 <dump_eip+0x2c5>
    977b:	nop    DWORD PTR [rax+rax*1+0x0]
    9780:	mov    rax,rsi
    9783:	pxor   xmm0,xmm0
    9787:	shr    rax,1
    978a:	and    esi,0x1
    978d:	or     rax,rsi
    9790:	cvtsi2sd xmm0,rax
    9795:	addsd  xmm0,xmm0
    9799:	jmp    95c5 <dump_eip+0x175>
    979e:	xchg   ax,ax
    97a0:	mov    rdi,QWORD PTR [r15+0x28]
    97a4:	mov    esi,ecx
    97a6:	mov    edx,0x32
    97ab:	mov    DWORD PTR [rsp+0x8],ecx
    97af:	call   4b30 <percentile.part.6>
    97b4:	mov    ecx,DWORD PTR [rsp+0x8]
    97b8:	mov    rdi,QWORD PTR [r15+0x28]
    97bc:	mov    edx,0x5
    97c1:	mov    QWORD PTR [rsp+0x18],rax
    97c6:	mov    esi,ecx
    97c8:	mov    DWORD PTR [rsp+0x10],ecx
    97cc:	call   4b30 <percentile.part.6>
    97d1:	mov    ecx,DWORD PTR [rsp+0x10]
    97d5:	mov    rdi,QWORD PTR [r15+0x28]
    97d9:	mov    edx,0x5f
    97de:	mov    QWORD PTR [rsp+0x8],rax
    97e3:	mov    esi,ecx
    97e5:	call   4b30 <percentile.part.6>
    97ea:	mov    r8,QWORD PTR [rsp+0x8]
    97ef:	mov    r10,rax
    97f2:	mov    r9,QWORD PTR [rsp+0x18]
    97f7:	jmp    9530 <dump_eip+0xe0>
    97fc:	nop    DWORD PTR [rax+0x0]

0000000000009800 <hvm_update_short_summary>:
    9800:	push   r15
    9802:	push   r14
    9804:	push   r13
    9806:	push   r12
    9808:	push   rbp
    9809:	push   rbx
    980a:	mov    rbp,rdi
    980d:	movsxd rbx,esi
    9810:	sub    rsp,0x18
    9814:	mov    r14,QWORD PTR [rdi+0x10]
    9818:	mov    r12,QWORD PTR [rdi+0x283e8]
    981f:	mov    r13,QWORD PTR [r14+0x70]
    9823:	test   r13,r13
    9826:	je     984b <hvm_update_short_summary+0x4b>
    9828:	lea    rax,[rbx*8+0x0]
    9830:	sub    rax,rbx
    9833:	lea    rcx,[r13+rax*8+0x0]
    9838:	add    DWORD PTR [rcx+0xe8],0x1
    983f:	test   r12,r12
    9842:	jne    9888 <hvm_update_short_summary+0x88>
    9844:	mov    r12,QWORD PTR [rbp+0x283e8]
    984b:	mov    r13,QWORD PTR [r14+0x8]
    984f:	lea    rax,[rbx*8+0x0]
    9857:	sub    rax,rbx
    985a:	lea    rcx,[r13+rax*8+0x0]
    985f:	add    DWORD PTR [rcx+0xf78],0x1
    9866:	test   r12,r12
    9869:	jne    99b8 <hvm_update_short_summary+0x1b8>
    986f:	or     BYTE PTR [rbp+0x28408],0x1
    9876:	add    rsp,0x18
    987a:	pop    rbx
    987b:	pop    rbp
    987c:	pop    r12
    987e:	pop    r13
    9880:	pop    r14
    9882:	pop    r15
    9884:	ret    
    9885:	nop    DWORD PTR [rax]
    9888:	mov    edx,DWORD PTR [rip+0x21f84a]        # 2290d8 <opt+0x38>
    988e:	movsxd rax,DWORD PTR [rcx+0xec]
    9895:	test   edx,edx
    9897:	je     9980 <hvm_update_short_summary+0x180>
    989d:	mov    ecx,DWORD PTR [rcx+0xf0]
    98a3:	cmp    ecx,eax
    98a5:	jg     9b08 <hvm_update_short_summary+0x308>
    98ab:	test   eax,eax
    98ad:	mov    r15d,DWORD PTR [rip+0x21f828]        # 2290dc <opt+0x3c>
    98b4:	je     98c8 <hvm_update_short_summary+0xc8>
    98b6:	test   r15d,r15d
    98b9:	je     98c8 <hvm_update_short_summary+0xc8>
    98bb:	cmp    ecx,r15d
    98be:	jl     98c8 <hvm_update_short_summary+0xc8>
    98c0:	mov    r15d,ecx
    98c3:	jmp    993f <hvm_update_short_summary+0x13f>
    98c5:	nop    DWORD PTR [rax]
    98c8:	add    ecx,ecx
    98ca:	cmovne edx,ecx
    98cd:	test   r15d,r15d
    98d0:	je     9b60 <hvm_update_short_summary+0x360>
    98d6:	cmp    edx,r15d
    98d9:	jle    9b60 <hvm_update_short_summary+0x360>
    98df:	lea    rax,[rbx*8+0x0]
    98e7:	movsxd rsi,r15d
    98ea:	shl    rsi,0x3
    98ee:	sub    rax,rbx
    98f1:	lea    rdx,[r13+rax*8+0x0]
    98f6:	mov    rdi,QWORD PTR [rdx+0x100]
    98fd:	mov    QWORD PTR [rsp+0x8],rdx
    9902:	call   44c0 <realloc@plt>
    9907:	test   rax,rax
    990a:	mov    rdx,QWORD PTR [rsp+0x8]
    990f:	je     9bb0 <hvm_update_short_summary+0x3b0>
    9915:	mov    QWORD PTR [rdx+0x100],rax
    991c:	mov    DWORD PTR [rdx+0xf0],r15d
    9923:	lea    rax,[rbx*8+0x0]
    992b:	sub    rax,rbx
    992e:	movsxd rax,DWORD PTR [r13+rax*8+0xec]
    9936:	cmp    eax,r15d
    9939:	jl     9b08 <hvm_update_short_summary+0x308>
    993f:	cdq    
    9940:	idiv   r15d
    9943:	lea    ecx,[rax+0x1]
    9946:	mov    esi,edx
    9948:	mov    edx,0x55555556
    994d:	mov    eax,ecx
    994f:	imul   edx
    9951:	mov    eax,ecx
    9953:	sar    eax,0x1f
    9956:	sub    eax,edx
    9958:	add    eax,esi
    995a:	cdq    
    995b:	idiv   ecx
    995d:	lea    rax,[rbx*8+0x0]
    9965:	sub    rax,rbx
    9968:	test   edx,edx
    996a:	je     9b70 <hvm_update_short_summary+0x370>
    9970:	mov    eax,DWORD PTR [r13+rax*8+0xec]
    9978:	nop    DWORD PTR [rax+rax*1+0x0]
    9980:	lea    rdx,[rbx*8+0x0]
    9988:	add    eax,0x1
    998b:	sub    rdx,rbx
    998e:	lea    rdx,[r13+rdx*8+0x0]
    9993:	mov    DWORD PTR [rdx+0xec],eax
    9999:	add    QWORD PTR [rdx+0xf8],r12
    99a0:	add    DWORD PTR [rdx+0x108],0x1
    99a7:	add    QWORD PTR [rdx+0x110],r12
    99ae:	jmp    9844 <hvm_update_short_summary+0x44>
    99b3:	nop    DWORD PTR [rax+rax*1+0x0]
    99b8:	mov    edx,DWORD PTR [rip+0x21f71a]        # 2290d8 <opt+0x38>
    99be:	movsxd rax,DWORD PTR [rcx+0xf7c]
    99c5:	test   edx,edx
    99c7:	je     9aa8 <hvm_update_short_summary+0x2a8>
    99cd:	mov    ecx,DWORD PTR [rcx+0xf80]
    99d3:	cmp    ecx,eax
    99d5:	jg     9ae0 <hvm_update_short_summary+0x2e0>
    99db:	test   eax,eax
    99dd:	mov    r14d,DWORD PTR [rip+0x21f6f8]        # 2290dc <opt+0x3c>
    99e4:	jne    9b40 <hvm_update_short_summary+0x340>
    99ea:	add    ecx,ecx
    99ec:	cmovne edx,ecx
    99ef:	cmp    edx,r14d
    99f2:	jle    9ba0 <hvm_update_short_summary+0x3a0>
    99f8:	test   r14d,r14d
    99fb:	je     9ba0 <hvm_update_short_summary+0x3a0>
    9a01:	lea    rax,[rbx*8+0x0]
    9a09:	movsxd rsi,r14d
    9a0c:	shl    rsi,0x3
    9a10:	sub    rax,rbx
    9a13:	lea    r15,[r13+rax*8+0x0]
    9a18:	mov    rdi,QWORD PTR [r15+0xf90]
    9a1f:	call   44c0 <realloc@plt>
    9a24:	test   rax,rax
    9a27:	je     9b90 <hvm_update_short_summary+0x390>
    9a2d:	mov    QWORD PTR [r15+0xf90],rax
    9a34:	mov    DWORD PTR [r15+0xf80],r14d
    9a3b:	lea    rax,[rbx*8+0x0]
    9a43:	sub    rax,rbx
    9a46:	movsxd rax,DWORD PTR [r13+rax*8+0xf7c]
    9a4e:	cmp    eax,r14d
    9a51:	jl     9ae0 <hvm_update_short_summary+0x2e0>
    9a57:	cdq    
    9a58:	idiv   r14d
    9a5b:	lea    ecx,[rax+0x1]
    9a5e:	mov    esi,edx
    9a60:	mov    edx,0x55555556
    9a65:	mov    eax,ecx
    9a67:	imul   edx
    9a69:	mov    eax,ecx
    9a6b:	sar    eax,0x1f
    9a6e:	sub    eax,edx
    9a70:	add    eax,esi
    9a72:	cdq    
    9a73:	idiv   ecx
    9a75:	lea    rax,[rbx*8+0x0]
    9a7d:	sub    rax,rbx
    9a80:	test   edx,edx
    9a82:	jne    9b30 <hvm_update_short_summary+0x330>
    9a88:	lea    rdx,[r13+rax*8+0x0]
    9a8d:	movsxd rax,esi
    9a90:	mov    rcx,QWORD PTR [rdx+0xf90]
    9a97:	mov    QWORD PTR [rcx+rax*8],r12
    9a9b:	mov    eax,DWORD PTR [rdx+0xf7c]
    9aa1:	nop    DWORD PTR [rax+0x0]
    9aa8:	lea    rdx,[rbx*8+0x0]
    9ab0:	add    eax,0x1
    9ab3:	sub    rdx,rbx
    9ab6:	lea    rdx,[r13+rdx*8+0x0]
    9abb:	mov    DWORD PTR [rdx+0xf7c],eax
    9ac1:	add    QWORD PTR [rdx+0xf88],r12
    9ac8:	add    DWORD PTR [rdx+0xf98],0x1
    9acf:	add    QWORD PTR [rdx+0xfa0],r12
    9ad6:	jmp    986f <hvm_update_short_summary+0x6f>
    9adb:	nop    DWORD PTR [rax+rax*1+0x0]
    9ae0:	lea    rdx,[rbx*8+0x0]
    9ae8:	sub    rdx,rbx
    9aeb:	lea    rdx,[r13+rdx*8+0x0]
    9af0:	mov    rcx,QWORD PTR [rdx+0xf90]
    9af7:	mov    QWORD PTR [rcx+rax*8],r12
    9afb:	mov    eax,DWORD PTR [rdx+0xf7c]
    9b01:	jmp    9aa8 <hvm_update_short_summary+0x2a8>
    9b03:	nop    DWORD PTR [rax+rax*1+0x0]
    9b08:	lea    rdx,[rbx*8+0x0]
    9b10:	sub    rdx,rbx
    9b13:	lea    rdx,[r13+rdx*8+0x0]
    9b18:	mov    rcx,QWORD PTR [rdx+0x100]
    9b1f:	mov    QWORD PTR [rcx+rax*8],r12
    9b23:	mov    eax,DWORD PTR [rdx+0xec]
    9b29:	jmp    9980 <hvm_update_short_summary+0x180>
    9b2e:	xchg   ax,ax
    9b30:	mov    eax,DWORD PTR [r13+rax*8+0xf7c]
    9b38:	jmp    9aa8 <hvm_update_short_summary+0x2a8>
    9b3d:	nop    DWORD PTR [rax]
    9b40:	test   r14d,r14d
    9b43:	je     99ea <hvm_update_short_summary+0x1ea>
    9b49:	cmp    ecx,r14d
    9b4c:	jl     99ea <hvm_update_short_summary+0x1ea>
    9b52:	mov    r14d,ecx
    9b55:	jmp    9a57 <hvm_update_short_summary+0x257>
    9b5a:	nop    WORD PTR [rax+rax*1+0x0]
    9b60:	mov    r15d,edx
    9b63:	jmp    98df <hvm_update_short_summary+0xdf>
    9b68:	nop    DWORD PTR [rax+rax*1+0x0]
    9b70:	lea    rdx,[r13+rax*8+0x0]
    9b75:	movsxd rax,esi
    9b78:	mov    rcx,QWORD PTR [rdx+0x100]
    9b7f:	mov    QWORD PTR [rcx+rax*8],r12
    9b83:	mov    eax,DWORD PTR [rdx+0xec]
    9b89:	jmp    9980 <hvm_update_short_summary+0x180>
    9b8e:	xchg   ax,ax
    9b90:	mov    r14d,DWORD PTR [r15+0xf80]
    9b97:	jmp    9a3b <hvm_update_short_summary+0x23b>
    9b9c:	nop    DWORD PTR [rax+0x0]
    9ba0:	mov    r14d,edx
    9ba3:	jmp    9a01 <hvm_update_short_summary+0x201>
    9ba8:	nop    DWORD PTR [rax+rax*1+0x0]
    9bb0:	mov    r15d,DWORD PTR [rdx+0xf0]
    9bb7:	jmp    9923 <hvm_update_short_summary+0x123>
    9bbc:	nop    DWORD PTR [rax+0x0]

0000000000009bc0 <shadow_fixup_postprocess>:
    9bc0:	mov    eax,DWORD PTR [rip+0x21f4de]        # 2290a4 <opt+0x4>
    9bc6:	push   r12
    9bc8:	push   rbp
    9bc9:	push   rbx
    9bca:	mov    rbx,rdi
    9bcd:	test   eax,eax
    9bcf:	je     9e55 <shadow_fixup_postprocess+0x295>
    9bd5:	mov    rbp,QWORD PTR [rdi+0x283e8]
    9bdc:	add    DWORD PTR [rdi+0x10a28],0x1
    9be3:	test   rbp,rbp
    9be6:	jne    9ff8 <shadow_fixup_postprocess+0x438>
    9bec:	test   BYTE PTR [rbx+0x28408],0x2
    9bf3:	je     9c0c <shadow_fixup_postprocess+0x4c>
    9bf5:	mov    rbp,QWORD PTR [rbx+0x283e8]
    9bfc:	add    DWORD PTR [rbx+0x110f0],0x1
    9c03:	test   rbp,rbp
    9c06:	jne    a2e8 <shadow_fixup_postprocess+0x728>
    9c0c:	movzx  edx,BYTE PTR [rbx+0x28352]
    9c13:	test   dl,0x4
    9c16:	mov    eax,edx
    9c18:	je     9c4a <shadow_fixup_postprocess+0x8a>
    9c1a:	mov    rbp,QWORD PTR [rbx+0x283e8]
    9c21:	add    DWORD PTR [rbx+0x11160],0x1
    9c28:	test   rbp,rbp
    9c2b:	jne    a3d8 <shadow_fixup_postprocess+0x818>
    9c31:	movsxd rcx,DWORD PTR [rbx+0x283d0]
    9c38:	cmp    ecx,0x1
    9c3b:	jle    a530 <shadow_fixup_postprocess+0x970>
    9c41:	add    DWORD PTR [rbx+0x11358],0x1
    9c48:	mov    eax,edx
    9c4a:	test   al,0x8
    9c4c:	je     9c65 <shadow_fixup_postprocess+0xa5>
    9c4e:	mov    rbp,QWORD PTR [rbx+0x283e8]
    9c55:	add    DWORD PTR [rbx+0x11198],0x1
    9c5c:	test   rbp,rbp
    9c5f:	jne    a108 <shadow_fixup_postprocess+0x548>
    9c65:	test   al,0x10
    9c67:	je     9c80 <shadow_fixup_postprocess+0xc0>
    9c69:	mov    rbp,QWORD PTR [rbx+0x283e8]
    9c70:	add    DWORD PTR [rbx+0x111d0],0x1
    9c77:	test   rbp,rbp
    9c7a:	jne    a1f8 <shadow_fixup_postprocess+0x638>
    9c80:	movzx  eax,BYTE PTR [rbx+0x28351]
    9c87:	test   al,0x2
    9c89:	mov    edx,eax
    9c8b:	je     9db6 <shadow_fixup_postprocess+0x1f6>
    9c91:	mov    rbp,QWORD PTR [rbx+0x283e8]
    9c98:	add    DWORD PTR [rbx+0x11208],0x1
    9c9f:	test   rbp,rbp
    9ca2:	jne    9cd0 <shadow_fixup_postprocess+0x110>
    9ca4:	test   al,0x4
    9ca6:	je     9dbe <shadow_fixup_postprocess+0x1fe>
    9cac:	add    DWORD PTR [rbx+0x11278],0x1
    9cb3:	test   al,0x10
    9cb5:	je     a518 <shadow_fixup_postprocess+0x958>
    9cbb:	add    DWORD PTR [rbx+0x112b0],0x1
    9cc2:	jmp    9def <shadow_fixup_postprocess+0x22f>
    9cc7:	nop    WORD PTR [rax+rax*1+0x0]
    9cd0:	mov    edi,DWORD PTR [rip+0x21f402]        # 2290d8 <opt+0x38>
    9cd6:	movsxd rcx,DWORD PTR [rbx+0x1120c]
    9cdd:	test   edi,edi
    9cdf:	mov    esi,ecx
    9ce1:	je     9d98 <shadow_fixup_postprocess+0x1d8>
    9ce7:	mov    eax,DWORD PTR [rbx+0x11210]
    9ced:	cmp    eax,ecx
    9cef:	jg     a650 <shadow_fixup_postprocess+0xa90>
    9cf5:	test   ecx,ecx
    9cf7:	mov    r12d,DWORD PTR [rip+0x21f3de]        # 2290dc <opt+0x3c>
    9cfe:	je     9d0e <shadow_fixup_postprocess+0x14e>
    9d00:	test   r12d,r12d
    9d03:	je     9d0e <shadow_fixup_postprocess+0x14e>
    9d05:	cmp    eax,r12d
    9d08:	jge    a79f <shadow_fixup_postprocess+0xbdf>
    9d0e:	add    eax,eax
    9d10:	cmovne edi,eax
    9d13:	test   r12d,r12d
    9d16:	je     a77f <shadow_fixup_postprocess+0xbbf>
    9d1c:	cmp    edi,r12d
    9d1f:	jle    a77f <shadow_fixup_postprocess+0xbbf>
    9d25:	mov    rdi,QWORD PTR [rbx+0x11220]
    9d2c:	movsxd rsi,r12d
    9d2f:	shl    rsi,0x3
    9d33:	call   44c0 <realloc@plt>
    9d38:	test   rax,rax
    9d3b:	je     a713 <shadow_fixup_postprocess+0xb53>
    9d41:	mov    QWORD PTR [rbx+0x11220],rax
    9d48:	mov    DWORD PTR [rbx+0x11210],r12d
    9d4f:	movsxd rcx,DWORD PTR [rbx+0x1120c]
    9d56:	cmp    ecx,r12d
    9d59:	jl     a650 <shadow_fixup_postprocess+0xa90>
    9d5f:	mov    eax,ecx
    9d61:	cdq    
    9d62:	idiv   r12d
    9d65:	lea    esi,[rax+0x1]
    9d68:	movsxd rdi,edx
    9d6b:	mov    edx,0x55555556
    9d70:	mov    eax,esi
    9d72:	imul   edx
    9d74:	mov    eax,esi
    9d76:	sar    eax,0x1f
    9d79:	sub    eax,edx
    9d7b:	add    eax,edi
    9d7d:	cdq    
    9d7e:	idiv   esi
    9d80:	test   edx,edx
    9d82:	je     a6e0 <shadow_fixup_postprocess+0xb20>
    9d88:	movzx  eax,BYTE PTR [rbx+0x28351]
    9d8f:	mov    esi,ecx
    9d91:	mov    edx,eax
    9d93:	nop    DWORD PTR [rax+rax*1+0x0]
    9d98:	add    QWORD PTR [rbx+0x11218],rbp
    9d9f:	add    DWORD PTR [rbx+0x11228],0x1
    9da6:	add    esi,0x1
    9da9:	mov    DWORD PTR [rbx+0x1120c],esi
    9daf:	add    QWORD PTR [rbx+0x11230],rbp
    9db6:	test   al,0x4
    9db8:	jne    9ec8 <shadow_fixup_postprocess+0x308>
    9dbe:	test   al,0x10
    9dc0:	jne    9dcb <shadow_fixup_postprocess+0x20b>
    9dc2:	test   BYTE PTR [rbx+0x28408],0x4
    9dc9:	je     9def <shadow_fixup_postprocess+0x22f>
    9dcb:	mov    rcx,QWORD PTR [rip+0x25b486]        # 265258 <warn>
    9dd2:	lea    rdi,[rip+0x15c0f]        # 1f9e8 <_IO_stdin_used+0x2a28>
    9dd9:	mov    edx,0x21
    9dde:	mov    esi,0x1
    9de3:	call   4550 <fwrite@plt>
    9de8:	movzx  edx,BYTE PTR [rbx+0x28351]
    9def:	movzx  eax,BYTE PTR [rbx+0x28352]
    9df6:	and    eax,0x4
    9df9:	and    edx,0x2
    9dfc:	jne    9e40 <shadow_fixup_postprocess+0x280>
    9dfe:	test   BYTE PTR [rbx+0x28408],0x2
    9e05:	jne    9e40 <shadow_fixup_postprocess+0x280>
    9e07:	test   al,al
    9e09:	jne    9e48 <shadow_fixup_postprocess+0x288>
    9e0b:	mov    rsi,QWORD PTR [rbx+0x283e8]
    9e12:	add    DWORD PTR [rbx+0x11240],0x1
    9e19:	test   rsi,rsi
    9e1c:	je     a500 <shadow_fixup_postprocess+0x940>
    9e22:	lea    rdi,[rbx+0x11240]
    9e29:	call   4a20 <update_cycles.part.5>
    9e2e:	movzx  eax,BYTE PTR [rbx+0x28352]
    9e35:	and    eax,0x4
    9e38:	nop    DWORD PTR [rax+rax*1+0x0]
    9e40:	test   al,al
    9e42:	je     a500 <shadow_fixup_postprocess+0x940>
    9e48:	mov    esi,0x1
    9e4d:	mov    rdi,rbx
    9e50:	call   9800 <hvm_update_short_summary>
    9e55:	test   BYTE PTR [rip+0x21f244],0x2        # 2290a0 <opt>
    9e5c:	je     9ea0 <shadow_fixup_postprocess+0x2e0>
    9e5e:	test   BYTE PTR [rbx+0x28408],0x2
    9e65:	jne    9ea8 <shadow_fixup_postprocess+0x2e8>
    9e67:	test   BYTE PTR [rbx+0x28351],0x2
    9e6e:	je     9ea0 <shadow_fixup_postprocess+0x2e0>
    9e70:	test   BYTE PTR [rip+0x21f22b],0x20        # 2290a2 <opt+0x2>
    9e77:	je     a0f0 <shadow_fixup_postprocess+0x530>
    9e7d:	mov    rax,QWORD PTR [rbx+0x10]
    9e81:	mov    rax,QWORD PTR [rax+0x70]
    9e85:	test   rax,rax
    9e88:	je     9ea0 <shadow_fixup_postprocess+0x2e0>
    9e8a:	mov    rdi,QWORD PTR [rbx+0x283e0]
    9e91:	movsxd rsi,DWORD PTR [rax+0x18]
    9e95:	pop    rbx
    9e96:	pop    rbp
    9e97:	pop    r12
    9e99:	jmp    7700 <scatterplot_vs_time>
    9e9e:	xchg   ax,ax
    9ea0:	pop    rbx
    9ea1:	pop    rbp
    9ea2:	pop    r12
    9ea4:	ret    
    9ea5:	nop    DWORD PTR [rax]
    9ea8:	mov    rdi,QWORD PTR [rbx+0x283e0]
    9eaf:	xor    esi,esi
    9eb1:	call   7700 <scatterplot_vs_time>
    9eb6:	test   BYTE PTR [rbx+0x28351],0x2
    9ebd:	jne    9e70 <shadow_fixup_postprocess+0x2b0>
    9ebf:	jmp    9ea0 <shadow_fixup_postprocess+0x2e0>
    9ec1:	nop    DWORD PTR [rax+0x0]
    9ec8:	mov    rbp,QWORD PTR [rbx+0x283e8]
    9ecf:	add    DWORD PTR [rbx+0x11278],0x1
    9ed6:	test   rbp,rbp
    9ed9:	je     9cb3 <shadow_fixup_postprocess+0xf3>
    9edf:	mov    esi,DWORD PTR [rip+0x21f1f3]        # 2290d8 <opt+0x38>
    9ee5:	movsxd rcx,DWORD PTR [rbx+0x1127c]
    9eec:	test   esi,esi
    9eee:	mov    edx,ecx
    9ef0:	je     9fa0 <shadow_fixup_postprocess+0x3e0>
    9ef6:	mov    eax,DWORD PTR [rbx+0x11280]
    9efc:	cmp    eax,ecx
    9efe:	jg     a630 <shadow_fixup_postprocess+0xa70>
    9f04:	test   ecx,ecx
    9f06:	mov    r12d,DWORD PTR [rip+0x21f1cf]        # 2290dc <opt+0x3c>
    9f0d:	je     9f1d <shadow_fixup_postprocess+0x35d>
    9f0f:	test   r12d,r12d
    9f12:	je     9f1d <shadow_fixup_postprocess+0x35d>
    9f14:	cmp    eax,r12d
    9f17:	jge    a7af <shadow_fixup_postprocess+0xbef>
    9f1d:	add    eax,eax
    9f1f:	cmovne esi,eax
    9f22:	cmp    esi,r12d
    9f25:	jle    a76f <shadow_fixup_postprocess+0xbaf>
    9f2b:	test   r12d,r12d
    9f2e:	je     a76f <shadow_fixup_postprocess+0xbaf>
    9f34:	mov    rdi,QWORD PTR [rbx+0x11290]
    9f3b:	movsxd rsi,r12d
    9f3e:	shl    rsi,0x3
    9f42:	call   44c0 <realloc@plt>
    9f47:	test   rax,rax
    9f4a:	je     a743 <shadow_fixup_postprocess+0xb83>
    9f50:	mov    QWORD PTR [rbx+0x11290],rax
    9f57:	mov    DWORD PTR [rbx+0x11280],r12d
    9f5e:	movsxd rcx,DWORD PTR [rbx+0x1127c]
    9f65:	cmp    ecx,r12d
    9f68:	jl     a630 <shadow_fixup_postprocess+0xa70>
    9f6e:	mov    eax,ecx
    9f70:	cdq    
    9f71:	idiv   r12d
    9f74:	lea    esi,[rax+0x1]
    9f77:	movsxd rdi,edx
    9f7a:	mov    edx,0x55555556
    9f7f:	mov    eax,esi
    9f81:	imul   edx
    9f83:	mov    eax,esi
    9f85:	sar    eax,0x1f
    9f88:	sub    eax,edx
    9f8a:	add    eax,edi
    9f8c:	cdq    
    9f8d:	idiv   esi
    9f8f:	test   edx,edx
    9f91:	je     a680 <shadow_fixup_postprocess+0xac0>
    9f97:	movzx  eax,BYTE PTR [rbx+0x28351]
    9f9e:	mov    edx,ecx
    9fa0:	add    edx,0x1
    9fa3:	add    QWORD PTR [rbx+0x11288],rbp
    9faa:	add    DWORD PTR [rbx+0x11298],0x1
    9fb1:	mov    DWORD PTR [rbx+0x1127c],edx
    9fb7:	add    QWORD PTR [rbx+0x112a0],rbp
    9fbe:	test   al,0x10
    9fc0:	je     a550 <shadow_fixup_postprocess+0x990>
    9fc6:	mov    rsi,QWORD PTR [rbx+0x283e8]
    9fcd:	add    DWORD PTR [rbx+0x112b0],0x1
    9fd4:	test   rsi,rsi
    9fd7:	je     a528 <shadow_fixup_postprocess+0x968>
    9fdd:	lea    rdi,[rbx+0x112b0]
    9fe4:	call   4a20 <update_cycles.part.5>
    9fe9:	movzx  edx,BYTE PTR [rbx+0x28351]
    9ff0:	jmp    9def <shadow_fixup_postprocess+0x22f>
    9ff5:	nop    DWORD PTR [rax]
    9ff8:	mov    edx,DWORD PTR [rip+0x21f0da]        # 2290d8 <opt+0x38>
    9ffe:	movsxd rcx,DWORD PTR [rdi+0x10a2c]
    a005:	test   edx,edx
    a007:	mov    eax,ecx
    a009:	je     a0c0 <shadow_fixup_postprocess+0x500>
    a00f:	mov    eax,DWORD PTR [rdi+0x10a30]
    a015:	cmp    eax,ecx
    a017:	jg     a568 <shadow_fixup_postprocess+0x9a8>
    a01d:	test   ecx,ecx
    a01f:	mov    r12d,DWORD PTR [rip+0x21f0b6]        # 2290dc <opt+0x3c>
    a026:	je     a036 <shadow_fixup_postprocess+0x476>
    a028:	cmp    eax,r12d
    a02b:	jl     a036 <shadow_fixup_postprocess+0x476>
    a02d:	test   r12d,r12d
    a030:	jne    a74f <shadow_fixup_postprocess+0xb8f>
    a036:	add    eax,eax
    a038:	cmovne edx,eax
    a03b:	cmp    edx,r12d
    a03e:	jle    a6ff <shadow_fixup_postprocess+0xb3f>
    a044:	test   r12d,r12d
    a047:	je     a6ff <shadow_fixup_postprocess+0xb3f>
    a04d:	mov    rdi,QWORD PTR [rbx+0x10a40]
    a054:	movsxd rsi,r12d
    a057:	shl    rsi,0x3
    a05b:	call   44c0 <realloc@plt>
    a060:	test   rax,rax
    a063:	je     a670 <shadow_fixup_postprocess+0xab0>
    a069:	mov    QWORD PTR [rbx+0x10a40],rax
    a070:	mov    DWORD PTR [rbx+0x10a30],r12d
    a077:	movsxd rcx,DWORD PTR [rbx+0x10a2c]
    a07e:	cmp    ecx,r12d
    a081:	jl     a568 <shadow_fixup_postprocess+0x9a8>
    a087:	mov    eax,ecx
    a089:	cdq    
    a08a:	idiv   r12d
    a08d:	lea    esi,[rax+0x1]
    a090:	movsxd rdi,edx
    a093:	mov    edx,0x55555556
    a098:	mov    eax,esi
    a09a:	imul   edx
    a09c:	mov    eax,esi
    a09e:	sar    eax,0x1f
    a0a1:	sub    eax,edx
    a0a3:	add    eax,edi
    a0a5:	cdq    
    a0a6:	idiv   esi
    a0a8:	mov    eax,ecx
    a0aa:	test   edx,edx
    a0ac:	jne    a0c0 <shadow_fixup_postprocess+0x500>
    a0ae:	mov    rax,QWORD PTR [rbx+0x10a40]
    a0b5:	mov    QWORD PTR [rax+rdi*8],rbp
    a0b9:	mov    eax,DWORD PTR [rbx+0x10a2c]
    a0bf:	nop
    a0c0:	add    eax,0x1
    a0c3:	add    QWORD PTR [rbx+0x10a38],rbp
    a0ca:	add    DWORD PTR [rbx+0x10a48],0x1
    a0d1:	mov    DWORD PTR [rbx+0x10a2c],eax
    a0d7:	add    QWORD PTR [rbx+0x10a50],rbp
    a0de:	test   BYTE PTR [rbx+0x28408],0x2
    a0e5:	je     9c0c <shadow_fixup_postprocess+0x4c>
    a0eb:	jmp    9bf5 <shadow_fixup_postprocess+0x35>
    a0f0:	mov    rdi,QWORD PTR [rbx+0x283e0]
    a0f7:	mov    esi,0x2
    a0fc:	pop    rbx
    a0fd:	pop    rbp
    a0fe:	pop    r12
    a100:	jmp    7700 <scatterplot_vs_time>
    a105:	nop    DWORD PTR [rax]
    a108:	mov    esi,DWORD PTR [rip+0x21efca]        # 2290d8 <opt+0x38>
    a10e:	movsxd rcx,DWORD PTR [rbx+0x1119c]
    a115:	test   esi,esi
    a117:	mov    edx,ecx
    a119:	je     a1d0 <shadow_fixup_postprocess+0x610>
    a11f:	mov    eax,DWORD PTR [rbx+0x111a0]
    a125:	cmp    eax,ecx
    a127:	jg     a5f0 <shadow_fixup_postprocess+0xa30>
    a12d:	test   ecx,ecx
    a12f:	mov    r12d,DWORD PTR [rip+0x21efa6]        # 2290dc <opt+0x3c>
    a136:	je     a146 <shadow_fixup_postprocess+0x586>
    a138:	test   r12d,r12d
    a13b:	je     a146 <shadow_fixup_postprocess+0x586>
    a13d:	cmp    eax,r12d
    a140:	jge    a78f <shadow_fixup_postprocess+0xbcf>
    a146:	add    eax,eax
    a148:	cmovne esi,eax
    a14b:	test   r12d,r12d
    a14e:	je     a75f <shadow_fixup_postprocess+0xb9f>
    a154:	cmp    esi,r12d
    a157:	jle    a75f <shadow_fixup_postprocess+0xb9f>
    a15d:	mov    rdi,QWORD PTR [rbx+0x111b0]
    a164:	movsxd rsi,r12d
    a167:	shl    rsi,0x3
    a16b:	call   44c0 <realloc@plt>
    a170:	test   rax,rax
    a173:	je     a72b <shadow_fixup_postprocess+0xb6b>
    a179:	mov    QWORD PTR [rbx+0x111b0],rax
    a180:	mov    DWORD PTR [rbx+0x111a0],r12d
    a187:	movsxd rcx,DWORD PTR [rbx+0x1119c]
    a18e:	cmp    ecx,r12d
    a191:	jl     a5f0 <shadow_fixup_postprocess+0xa30>
    a197:	mov    eax,ecx
    a199:	cdq    
    a19a:	idiv   r12d
    a19d:	lea    esi,[rax+0x1]
    a1a0:	movsxd rdi,edx
    a1a3:	mov    edx,0x55555556
    a1a8:	mov    eax,esi
    a1aa:	imul   edx
    a1ac:	mov    eax,esi
    a1ae:	sar    eax,0x1f
    a1b1:	sub    eax,edx
    a1b3:	add    eax,edi
    a1b5:	cdq    
    a1b6:	idiv   esi
    a1b8:	test   edx,edx
    a1ba:	je     a6a0 <shadow_fixup_postprocess+0xae0>
    a1c0:	movzx  eax,BYTE PTR [rbx+0x28352]
    a1c7:	mov    edx,ecx
    a1c9:	nop    DWORD PTR [rax+0x0]
    a1d0:	add    edx,0x1
    a1d3:	add    QWORD PTR [rbx+0x111a8],rbp
    a1da:	add    DWORD PTR [rbx+0x111b8],0x1
    a1e1:	mov    DWORD PTR [rbx+0x1119c],edx
    a1e7:	add    QWORD PTR [rbx+0x111c0],rbp
    a1ee:	jmp    9c65 <shadow_fixup_postprocess+0xa5>
    a1f3:	nop    DWORD PTR [rax+rax*1+0x0]
    a1f8:	mov    edx,DWORD PTR [rip+0x21eeda]        # 2290d8 <opt+0x38>
    a1fe:	movsxd rcx,DWORD PTR [rbx+0x111d4]
    a205:	test   edx,edx
    a207:	mov    eax,ecx
    a209:	je     a2c0 <shadow_fixup_postprocess+0x700>
    a20f:	mov    eax,DWORD PTR [rbx+0x111d8]
    a215:	cmp    eax,ecx
    a217:	jg     a610 <shadow_fixup_postprocess+0xa50>
    a21d:	test   ecx,ecx
    a21f:	mov    r12d,DWORD PTR [rip+0x21eeb6]        # 2290dc <opt+0x3c>
    a226:	je     a236 <shadow_fixup_postprocess+0x676>
    a228:	cmp    eax,r12d
    a22b:	jl     a236 <shadow_fixup_postprocess+0x676>
    a22d:	test   r12d,r12d
    a230:	jne    a7a7 <shadow_fixup_postprocess+0xbe7>
    a236:	add    eax,eax
    a238:	cmovne edx,eax
    a23b:	cmp    edx,r12d
    a23e:	jle    a757 <shadow_fixup_postprocess+0xb97>
    a244:	test   r12d,r12d
    a247:	je     a757 <shadow_fixup_postprocess+0xb97>
    a24d:	mov    rdi,QWORD PTR [rbx+0x111e8]
    a254:	movsxd rsi,r12d
    a257:	shl    rsi,0x3
    a25b:	call   44c0 <realloc@plt>
    a260:	test   rax,rax
    a263:	je     a71f <shadow_fixup_postprocess+0xb5f>
    a269:	mov    QWORD PTR [rbx+0x111e8],rax
    a270:	mov    DWORD PTR [rbx+0x111d8],r12d
    a277:	movsxd rcx,DWORD PTR [rbx+0x111d4]
    a27e:	cmp    ecx,r12d
    a281:	jl     a610 <shadow_fixup_postprocess+0xa50>
    a287:	mov    eax,ecx
    a289:	cdq    
    a28a:	idiv   r12d
    a28d:	lea    esi,[rax+0x1]
    a290:	movsxd rdi,edx
    a293:	mov    edx,0x55555556
    a298:	mov    eax,esi
    a29a:	imul   edx
    a29c:	mov    eax,esi
    a29e:	sar    eax,0x1f
    a2a1:	sub    eax,edx
    a2a3:	add    eax,edi
    a2a5:	cdq    
    a2a6:	idiv   esi
    a2a8:	mov    eax,ecx
    a2aa:	test   edx,edx
    a2ac:	jne    a2c0 <shadow_fixup_postprocess+0x700>
    a2ae:	mov    rax,QWORD PTR [rbx+0x111e8]
    a2b5:	mov    QWORD PTR [rax+rdi*8],rbp
    a2b9:	mov    eax,DWORD PTR [rbx+0x111d4]
    a2bf:	nop
    a2c0:	add    eax,0x1
    a2c3:	add    QWORD PTR [rbx+0x111e0],rbp
    a2ca:	add    DWORD PTR [rbx+0x111f0],0x1
    a2d1:	mov    DWORD PTR [rbx+0x111d4],eax
    a2d7:	add    QWORD PTR [rbx+0x111f8],rbp
    a2de:	jmp    9c80 <shadow_fixup_postprocess+0xc0>
    a2e3:	nop    DWORD PTR [rax+rax*1+0x0]
    a2e8:	mov    edx,DWORD PTR [rip+0x21edea]        # 2290d8 <opt+0x38>
    a2ee:	movsxd rcx,DWORD PTR [rbx+0x110f4]
    a2f5:	test   edx,edx
    a2f7:	mov    eax,ecx
    a2f9:	je     a3b0 <shadow_fixup_postprocess+0x7f0>
    a2ff:	mov    eax,DWORD PTR [rbx+0x110f8]
    a305:	cmp    eax,ecx
    a307:	jg     a5d0 <shadow_fixup_postprocess+0xa10>
    a30d:	test   ecx,ecx
    a30f:	mov    r12d,DWORD PTR [rip+0x21edc6]        # 2290dc <opt+0x3c>
    a316:	je     a326 <shadow_fixup_postprocess+0x766>
    a318:	cmp    eax,r12d
    a31b:	jl     a326 <shadow_fixup_postprocess+0x766>
    a31d:	test   r12d,r12d
    a320:	jne    a787 <shadow_fixup_postprocess+0xbc7>
    a326:	add    eax,eax
    a328:	cmovne edx,eax
    a32b:	test   r12d,r12d
    a32e:	je     a767 <shadow_fixup_postprocess+0xba7>
    a334:	cmp    edx,r12d
    a337:	jle    a767 <shadow_fixup_postprocess+0xba7>
    a33d:	mov    rdi,QWORD PTR [rbx+0x11108]
    a344:	movsxd rsi,r12d
    a347:	shl    rsi,0x3
    a34b:	call   44c0 <realloc@plt>
    a350:	test   rax,rax
    a353:	je     a737 <shadow_fixup_postprocess+0xb77>
    a359:	mov    QWORD PTR [rbx+0x11108],rax
    a360:	mov    DWORD PTR [rbx+0x110f8],r12d
    a367:	movsxd rcx,DWORD PTR [rbx+0x110f4]
    a36e:	cmp    ecx,r12d
    a371:	jl     a5d0 <shadow_fixup_postprocess+0xa10>
    a377:	mov    eax,ecx
    a379:	cdq    
    a37a:	idiv   r12d
    a37d:	lea    esi,[rax+0x1]
    a380:	movsxd rdi,edx
    a383:	mov    edx,0x55555556
    a388:	mov    eax,esi
    a38a:	imul   edx
    a38c:	mov    eax,esi
    a38e:	sar    eax,0x1f
    a391:	sub    eax,edx
    a393:	add    eax,edi
    a395:	cdq    
    a396:	idiv   esi
    a398:	mov    eax,ecx
    a39a:	test   edx,edx
    a39c:	jne    a3b0 <shadow_fixup_postprocess+0x7f0>
    a39e:	mov    rax,QWORD PTR [rbx+0x11108]
    a3a5:	mov    QWORD PTR [rax+rdi*8],rbp
    a3a9:	mov    eax,DWORD PTR [rbx+0x110f4]
    a3af:	nop
    a3b0:	add    eax,0x1
    a3b3:	add    QWORD PTR [rbx+0x11100],rbp
    a3ba:	add    DWORD PTR [rbx+0x11110],0x1
    a3c1:	mov    DWORD PTR [rbx+0x110f4],eax
    a3c7:	add    QWORD PTR [rbx+0x11118],rbp
    a3ce:	jmp    9c0c <shadow_fixup_postprocess+0x4c>
    a3d3:	nop    DWORD PTR [rax+rax*1+0x0]
    a3d8:	mov    edx,DWORD PTR [rip+0x21ecfa]        # 2290d8 <opt+0x38>
    a3de:	movsxd rcx,DWORD PTR [rbx+0x11164]
    a3e5:	mov    rsi,rbp
    a3e8:	test   edx,edx
    a3ea:	mov    eax,ecx
    a3ec:	je     a4a0 <shadow_fixup_postprocess+0x8e0>
    a3f2:	mov    eax,DWORD PTR [rbx+0x11168]
    a3f8:	cmp    eax,ecx
    a3fa:	jg     a5b0 <shadow_fixup_postprocess+0x9f0>
    a400:	test   ecx,ecx
    a402:	mov    r12d,DWORD PTR [rip+0x21ecd3]        # 2290dc <opt+0x3c>
    a409:	je     a419 <shadow_fixup_postprocess+0x859>
    a40b:	test   r12d,r12d
    a40e:	je     a419 <shadow_fixup_postprocess+0x859>
    a410:	cmp    eax,r12d
    a413:	jge    a797 <shadow_fixup_postprocess+0xbd7>
    a419:	add    eax,eax
    a41b:	cmovne edx,eax
    a41e:	test   r12d,r12d
    a421:	je     a777 <shadow_fixup_postprocess+0xbb7>
    a427:	cmp    edx,r12d
    a42a:	jle    a777 <shadow_fixup_postprocess+0xbb7>
    a430:	mov    rdi,QWORD PTR [rbx+0x11178]
    a437:	movsxd rsi,r12d
    a43a:	shl    rsi,0x3
    a43e:	call   44c0 <realloc@plt>
    a443:	test   rax,rax
    a446:	je     a707 <shadow_fixup_postprocess+0xb47>
    a44c:	mov    QWORD PTR [rbx+0x11178],rax
    a453:	mov    DWORD PTR [rbx+0x11168],r12d
    a45a:	movsxd rcx,DWORD PTR [rbx+0x11164]
    a461:	cmp    ecx,r12d
    a464:	jl     a5b0 <shadow_fixup_postprocess+0x9f0>
    a46a:	mov    eax,ecx
    a46c:	cdq    
    a46d:	idiv   r12d
    a470:	lea    esi,[rax+0x1]
    a473:	movsxd rdi,edx
    a476:	mov    edx,0x55555556
    a47b:	mov    eax,esi
    a47d:	imul   edx
    a47f:	mov    eax,esi
    a481:	sar    eax,0x1f
    a484:	sub    eax,edx
    a486:	add    eax,edi
    a488:	cdq    
    a489:	idiv   esi
    a48b:	test   edx,edx
    a48d:	je     a6c0 <shadow_fixup_postprocess+0xb00>
    a493:	mov    rsi,QWORD PTR [rbx+0x283e8]
    a49a:	mov    eax,ecx
    a49c:	nop    DWORD PTR [rax+0x0]
    a4a0:	add    eax,0x1
    a4a3:	add    QWORD PTR [rbx+0x11170],rbp
    a4aa:	add    DWORD PTR [rbx+0x11180],0x1
    a4b1:	mov    DWORD PTR [rbx+0x11164],eax
    a4b7:	movsxd rax,DWORD PTR [rbx+0x283d0]
    a4be:	add    QWORD PTR [rbx+0x11188],rbp
    a4c5:	cmp    eax,0x1
    a4c8:	jle    a580 <shadow_fixup_postprocess+0x9c0>
    a4ce:	add    DWORD PTR [rbx+0x11358],0x1
    a4d5:	test   rsi,rsi
    a4d8:	je     a7b7 <shadow_fixup_postprocess+0xbf7>
    a4de:	lea    rdi,[rbx+0x11358]
    a4e5:	call   4a20 <update_cycles.part.5>
    a4ea:	movzx  eax,BYTE PTR [rbx+0x28352]
    a4f1:	jmp    9c4a <shadow_fixup_postprocess+0x8a>
    a4f6:	nop    WORD PTR cs:[rax+rax*1+0x0]
    a500:	mov    esi,0x2
    a505:	mov    rdi,rbx
    a508:	call   9800 <hvm_update_short_summary>
    a50d:	jmp    9e55 <shadow_fixup_postprocess+0x295>
    a512:	nop    WORD PTR [rax+rax*1+0x0]
    a518:	test   BYTE PTR [rbx+0x28408],0x4
    a51f:	je     a528 <shadow_fixup_postprocess+0x968>
    a521:	add    DWORD PTR [rbx+0x112b0],0x1
    a528:	mov    edx,eax
    a52a:	jmp    9def <shadow_fixup_postprocess+0x22f>
    a52f:	nop
    a530:	lea    rdx,[rcx*8+0x0]
    a538:	sub    rdx,rcx
    a53b:	add    DWORD PTR [rbx+rdx*8+0x112e8],0x1
    a543:	jmp    9c4a <shadow_fixup_postprocess+0x8a>
    a548:	nop    DWORD PTR [rax+rax*1+0x0]
    a550:	test   BYTE PTR [rbx+0x28408],0x4
    a557:	jne    9fc6 <shadow_fixup_postprocess+0x406>
    a55d:	mov    edx,eax
    a55f:	jmp    9def <shadow_fixup_postprocess+0x22f>
    a564:	nop    DWORD PTR [rax+0x0]
    a568:	mov    rax,QWORD PTR [rbx+0x10a40]
    a56f:	mov    QWORD PTR [rax+rcx*8],rbp
    a573:	mov    eax,DWORD PTR [rbx+0x10a2c]
    a579:	jmp    a0c0 <shadow_fixup_postprocess+0x500>
    a57e:	xchg   ax,ax
    a580:	lea    rdx,[rax*8+0x0]
    a588:	sub    rdx,rax
    a58b:	mov    rax,rdx
    a58e:	shl    rax,0x3
    a592:	add    DWORD PTR [rbx+rax*1+0x112e8],0x1
    a59a:	test   rsi,rsi
    a59d:	lea    rdi,[rbx+rax*1+0x112e8]
    a5a5:	jne    a4e5 <shadow_fixup_postprocess+0x925>
    a5ab:	jmp    a4ea <shadow_fixup_postprocess+0x92a>
    a5b0:	mov    rax,QWORD PTR [rbx+0x11178]
    a5b7:	mov    QWORD PTR [rax+rcx*8],rbp
    a5bb:	mov    rsi,QWORD PTR [rbx+0x283e8]
    a5c2:	mov    eax,DWORD PTR [rbx+0x11164]
    a5c8:	jmp    a4a0 <shadow_fixup_postprocess+0x8e0>
    a5cd:	nop    DWORD PTR [rax]
    a5d0:	mov    rax,QWORD PTR [rbx+0x11108]
    a5d7:	mov    QWORD PTR [rax+rcx*8],rbp
    a5db:	mov    eax,DWORD PTR [rbx+0x110f4]
    a5e1:	jmp    a3b0 <shadow_fixup_postprocess+0x7f0>
    a5e6:	nop    WORD PTR cs:[rax+rax*1+0x0]
    a5f0:	mov    rax,QWORD PTR [rbx+0x111b0]
    a5f7:	mov    QWORD PTR [rax+rcx*8],rbp
    a5fb:	mov    edx,DWORD PTR [rbx+0x1119c]
    a601:	movzx  eax,BYTE PTR [rbx+0x28352]
    a608:	jmp    a1d0 <shadow_fixup_postprocess+0x610>
    a60d:	nop    DWORD PTR [rax]
    a610:	mov    rax,QWORD PTR [rbx+0x111e8]
    a617:	mov    QWORD PTR [rax+rcx*8],rbp
    a61b:	mov    eax,DWORD PTR [rbx+0x111d4]
    a621:	jmp    a2c0 <shadow_fixup_postprocess+0x700>
    a626:	nop    WORD PTR cs:[rax+rax*1+0x0]
    a630:	mov    rax,QWORD PTR [rbx+0x11290]
    a637:	mov    QWORD PTR [rax+rcx*8],rbp
    a63b:	movzx  eax,BYTE PTR [rbx+0x28351]
    a642:	mov    edx,DWORD PTR [rbx+0x1127c]
    a648:	jmp    9fa0 <shadow_fixup_postprocess+0x3e0>
    a64d:	nop    DWORD PTR [rax]
    a650:	mov    rax,QWORD PTR [rbx+0x11220]
    a657:	mov    QWORD PTR [rax+rcx*8],rbp
    a65b:	movzx  eax,BYTE PTR [rbx+0x28351]
    a662:	mov    esi,DWORD PTR [rbx+0x1120c]
    a668:	mov    edx,eax
    a66a:	jmp    9d98 <shadow_fixup_postprocess+0x1d8>
    a66f:	nop
    a670:	mov    r12d,DWORD PTR [rbx+0x10a30]
    a677:	jmp    a077 <shadow_fixup_postprocess+0x4b7>
    a67c:	nop    DWORD PTR [rax+0x0]
    a680:	mov    rax,QWORD PTR [rbx+0x11290]
    a687:	mov    QWORD PTR [rax+rdi*8],rbp
    a68b:	movzx  eax,BYTE PTR [rbx+0x28351]
    a692:	mov    edx,DWORD PTR [rbx+0x1127c]
    a698:	jmp    9fa0 <shadow_fixup_postprocess+0x3e0>
    a69d:	nop    DWORD PTR [rax]
    a6a0:	mov    rax,QWORD PTR [rbx+0x111b0]
    a6a7:	mov    QWORD PTR [rax+rdi*8],rbp
    a6ab:	mov    edx,DWORD PTR [rbx+0x1119c]
    a6b1:	movzx  eax,BYTE PTR [rbx+0x28352]
    a6b8:	jmp    a1d0 <shadow_fixup_postprocess+0x610>
    a6bd:	nop    DWORD PTR [rax]
    a6c0:	mov    rax,QWORD PTR [rbx+0x11178]
    a6c7:	mov    QWORD PTR [rax+rdi*8],rbp
    a6cb:	mov    rsi,QWORD PTR [rbx+0x283e8]
    a6d2:	mov    eax,DWORD PTR [rbx+0x11164]
    a6d8:	jmp    a4a0 <shadow_fixup_postprocess+0x8e0>
    a6dd:	nop    DWORD PTR [rax]
    a6e0:	mov    rax,QWORD PTR [rbx+0x11220]
    a6e7:	mov    QWORD PTR [rax+rdi*8],rbp
    a6eb:	movzx  eax,BYTE PTR [rbx+0x28351]
    a6f2:	mov    esi,DWORD PTR [rbx+0x1120c]
    a6f8:	mov    edx,eax
    a6fa:	jmp    9d98 <shadow_fixup_postprocess+0x1d8>
    a6ff:	mov    r12d,edx
    a702:	jmp    a04d <shadow_fixup_postprocess+0x48d>
    a707:	mov    r12d,DWORD PTR [rbx+0x11168]
    a70e:	jmp    a45a <shadow_fixup_postprocess+0x89a>
    a713:	mov    r12d,DWORD PTR [rbx+0x11210]
    a71a:	jmp    9d4f <shadow_fixup_postprocess+0x18f>
    a71f:	mov    r12d,DWORD PTR [rbx+0x111d8]
    a726:	jmp    a277 <shadow_fixup_postprocess+0x6b7>
    a72b:	mov    r12d,DWORD PTR [rbx+0x111a0]
    a732:	jmp    a187 <shadow_fixup_postprocess+0x5c7>
    a737:	mov    r12d,DWORD PTR [rbx+0x110f8]
    a73e:	jmp    a367 <shadow_fixup_postprocess+0x7a7>
    a743:	mov    r12d,DWORD PTR [rbx+0x11280]
    a74a:	jmp    9f5e <shadow_fixup_postprocess+0x39e>
    a74f:	mov    r12d,eax
    a752:	jmp    a087 <shadow_fixup_postprocess+0x4c7>
    a757:	mov    r12d,edx
    a75a:	jmp    a24d <shadow_fixup_postprocess+0x68d>
    a75f:	mov    r12d,esi
    a762:	jmp    a15d <shadow_fixup_postprocess+0x59d>
    a767:	mov    r12d,edx
    a76a:	jmp    a33d <shadow_fixup_postprocess+0x77d>
    a76f:	mov    r12d,esi
    a772:	jmp    9f34 <shadow_fixup_postprocess+0x374>
    a777:	mov    r12d,edx
    a77a:	jmp    a430 <shadow_fixup_postprocess+0x870>
    a77f:	mov    r12d,edi
    a782:	jmp    9d25 <shadow_fixup_postprocess+0x165>
    a787:	mov    r12d,eax
    a78a:	jmp    a377 <shadow_fixup_postprocess+0x7b7>
    a78f:	mov    r12d,eax
    a792:	jmp    a197 <shadow_fixup_postprocess+0x5d7>
    a797:	mov    r12d,eax
    a79a:	jmp    a46a <shadow_fixup_postprocess+0x8aa>
    a79f:	mov    r12d,eax
    a7a2:	jmp    9d5f <shadow_fixup_postprocess+0x19f>
    a7a7:	mov    r12d,eax
    a7aa:	jmp    a287 <shadow_fixup_postprocess+0x6c7>
    a7af:	mov    r12d,eax
    a7b2:	jmp    9f6e <shadow_fixup_postprocess+0x3ae>
    a7b7:	movzx  edx,BYTE PTR [rbx+0x28352]
    a7be:	mov    eax,edx
    a7c0:	jmp    9c4a <shadow_fixup_postprocess+0x8a>
    a7c5:	nop
    a7c6:	nop    WORD PTR cs:[rax+rax*1+0x0]

000000000000a7d0 <shadow_propagate_postprocess>:
    a7d0:	mov    eax,DWORD PTR [rip+0x21e8ce]        # 2290a4 <opt+0x4>
    a7d6:	test   eax,eax
    a7d8:	je     a830 <shadow_propagate_postprocess+0x60>
    a7da:	push   r14
    a7dc:	push   r13
    a7de:	push   r12
    a7e0:	push   rbp
    a7e1:	push   rbx
    a7e2:	movsxd rbp,DWORD PTR [rdi+0x28358]
    a7e9:	mov    rbx,rdi
    a7ec:	test   ebp,ebp
    a7ee:	je     a838 <shadow_propagate_postprocess+0x68>
    a7f0:	lea    rax,[rbp*8+0x0]
    a7f8:	mov    r12,QWORD PTR [rdi+0x283e8]
    a7ff:	sub    rax,rbp
    a802:	lea    rcx,[rdi+rax*8]
    a806:	add    DWORD PTR [rcx+0x108d8],0x1
    a80d:	test   r12,r12
    a810:	jne    a860 <shadow_propagate_postprocess+0x90>
    a812:	mov    rdi,rbx
    a815:	mov    esi,0x4
    a81a:	pop    rbx
    a81b:	pop    rbp
    a81c:	pop    r12
    a81e:	pop    r13
    a820:	pop    r14
    a822:	jmp    9800 <hvm_update_short_summary>
    a827:	nop    WORD PTR [rax+rax*1+0x0]
    a830:	repz ret 
    a832:	nop    WORD PTR [rax+rax*1+0x0]
    a838:	mov    rcx,QWORD PTR [rip+0x25aa19]        # 265258 <warn>
    a83f:	lea    rdi,[rip+0x12ae7]        # 1d32d <_IO_stdin_used+0x36d>
    a846:	mov    edx,0x14
    a84b:	mov    esi,0x1
    a850:	call   4550 <fwrite@plt>
    a855:	jmp    a812 <shadow_propagate_postprocess+0x42>
    a857:	nop    WORD PTR [rax+rax*1+0x0]
    a860:	mov    edx,DWORD PTR [rip+0x21e872]        # 2290d8 <opt+0x38>
    a866:	movsxd rax,DWORD PTR [rcx+0x108dc]
    a86d:	test   edx,edx
    a86f:	je     a940 <shadow_propagate_postprocess+0x170>
    a875:	mov    ecx,DWORD PTR [rcx+0x108e0]
    a87b:	cmp    ecx,eax
    a87d:	jg     a978 <shadow_propagate_postprocess+0x1a8>
    a883:	test   eax,eax
    a885:	mov    r13d,DWORD PTR [rip+0x21e850]        # 2290dc <opt+0x3c>
    a88c:	je     a89c <shadow_propagate_postprocess+0xcc>
    a88e:	cmp    ecx,r13d
    a891:	jl     a89c <shadow_propagate_postprocess+0xcc>
    a893:	test   r13d,r13d
    a896:	jne    a9ce <shadow_propagate_postprocess+0x1fe>
    a89c:	add    ecx,ecx
    a89e:	cmovne edx,ecx
    a8a1:	test   r13d,r13d
    a8a4:	je     a9c6 <shadow_propagate_postprocess+0x1f6>
    a8aa:	cmp    edx,r13d
    a8ad:	jle    a9c6 <shadow_propagate_postprocess+0x1f6>
    a8b3:	lea    rax,[rbp*8+0x0]
    a8bb:	movsxd rsi,r13d
    a8be:	shl    rsi,0x3
    a8c2:	sub    rax,rbp
    a8c5:	lea    r14,[rbx+rax*8]
    a8c9:	mov    rdi,QWORD PTR [r14+0x108f0]
    a8d0:	call   44c0 <realloc@plt>
    a8d5:	test   rax,rax
    a8d8:	je     a9ba <shadow_propagate_postprocess+0x1ea>
    a8de:	mov    QWORD PTR [r14+0x108f0],rax
    a8e5:	mov    DWORD PTR [r14+0x108e0],r13d
    a8ec:	lea    rax,[rbp*8+0x0]
    a8f4:	sub    rax,rbp
    a8f7:	movsxd rax,DWORD PTR [rbx+rax*8+0x108dc]
    a8ff:	cmp    eax,r13d
    a902:	jl     a978 <shadow_propagate_postprocess+0x1a8>
    a904:	cdq    
    a905:	idiv   r13d
    a908:	lea    ecx,[rax+0x1]
    a90b:	mov    esi,edx
    a90d:	mov    edx,0x55555556
    a912:	mov    eax,ecx
    a914:	imul   edx
    a916:	mov    eax,ecx
    a918:	sar    eax,0x1f
    a91b:	sub    eax,edx
    a91d:	add    eax,esi
    a91f:	cdq    
    a920:	idiv   ecx
    a922:	lea    rax,[rbp*8+0x0]
    a92a:	sub    rax,rbp
    a92d:	test   edx,edx
    a92f:	je     a9a0 <shadow_propagate_postprocess+0x1d0>
    a931:	mov    eax,DWORD PTR [rbx+rax*8+0x108dc]
    a938:	nop    DWORD PTR [rax+rax*1+0x0]
    a940:	lea    rdx,[rbp*8+0x0]
    a948:	add    eax,0x1
    a94b:	sub    rdx,rbp
    a94e:	lea    rdx,[rbx+rdx*8]
    a952:	mov    DWORD PTR [rdx+0x108dc],eax
    a958:	add    QWORD PTR [rdx+0x108e8],r12
    a95f:	add    DWORD PTR [rdx+0x108f8],0x1
    a966:	add    QWORD PTR [rdx+0x10900],r12
    a96d:	jmp    a812 <shadow_propagate_postprocess+0x42>
    a972:	nop    WORD PTR [rax+rax*1+0x0]
    a978:	lea    rdx,[rbp*8+0x0]
    a980:	sub    rdx,rbp
    a983:	lea    rdx,[rbx+rdx*8]
    a987:	mov    rcx,QWORD PTR [rdx+0x108f0]
    a98e:	mov    QWORD PTR [rcx+rax*8],r12
    a992:	mov    eax,DWORD PTR [rdx+0x108dc]
    a998:	jmp    a940 <shadow_propagate_postprocess+0x170>
    a99a:	nop    WORD PTR [rax+rax*1+0x0]
    a9a0:	lea    rdx,[rbx+rax*8]
    a9a4:	movsxd rax,esi
    a9a7:	mov    rcx,QWORD PTR [rdx+0x108f0]
    a9ae:	mov    QWORD PTR [rcx+rax*8],r12
    a9b2:	mov    eax,DWORD PTR [rdx+0x108dc]
    a9b8:	jmp    a940 <shadow_propagate_postprocess+0x170>
    a9ba:	mov    r13d,DWORD PTR [r14+0x108e0]
    a9c1:	jmp    a8ec <shadow_propagate_postprocess+0x11c>
    a9c6:	mov    r13d,edx
    a9c9:	jmp    a8b3 <shadow_propagate_postprocess+0xe3>
    a9ce:	mov    r13d,ecx
    a9d1:	jmp    a904 <shadow_propagate_postprocess+0x134>
    a9d6:	nop    WORD PTR cs:[rax+rax*1+0x0]

000000000000a9e0 <shadow_fault_generic_postprocess>:
    a9e0:	mov    r8d,DWORD PTR [rdi+0x28358]
    a9e7:	lea    eax,[r8-0x1]
    a9eb:	cmp    eax,0xa
    a9ee:	ja     aa48 <shadow_fault_generic_postprocess+0x68>
    a9f0:	mov    eax,DWORD PTR [rip+0x21e6ae]        # 2290a4 <opt+0x4>
    a9f6:	test   eax,eax
    a9f8:	je     aa40 <shadow_fault_generic_postprocess+0x60>
    a9fa:	push   r14
    a9fc:	push   r13
    a9fe:	push   r12
    aa00:	push   rbp
    aa01:	mov    rbp,rdi
    aa04:	push   rbx
    aa05:	movsxd rbx,r8d
    aa08:	mov    r12,QWORD PTR [rdi+0x283e8]
    aa0f:	lea    rax,[rbx*8+0x0]
    aa17:	sub    rax,rbx
    aa1a:	lea    rcx,[rdi+rax*8]
    aa1e:	add    DWORD PTR [rcx+0x108d8],0x1
    aa25:	test   r12,r12
    aa28:	jne    aa70 <shadow_fault_generic_postprocess+0x90>
    aa2a:	pop    rbx
    aa2b:	mov    rdi,rbp
    aa2e:	mov    esi,0x4
    aa33:	pop    rbp
    aa34:	pop    r12
    aa36:	pop    r13
    aa38:	pop    r14
    aa3a:	jmp    9800 <hvm_update_short_summary>
    aa3f:	nop
    aa40:	repz ret 
    aa42:	nop    WORD PTR [rax+rax*1+0x0]
    aa48:	mov    rdi,QWORD PTR [rip+0x25a809]        # 265258 <warn>
    aa4f:	lea    rcx,[rip+0x18a2a]        # 23480 <__func__.7131>
    aa56:	lea    rdx,[rip+0x14fb3]        # 1fa10 <_IO_stdin_used+0x2a50>
    aa5d:	mov    esi,0x1
    aa62:	xor    eax,eax
    aa64:	jmp    4560 <__fprintf_chk@plt>
    aa69:	nop    DWORD PTR [rax+0x0]
    aa70:	mov    edx,DWORD PTR [rip+0x21e662]        # 2290d8 <opt+0x38>
    aa76:	movsxd rax,DWORD PTR [rcx+0x108dc]
    aa7d:	test   edx,edx
    aa7f:	je     ab50 <shadow_fault_generic_postprocess+0x170>
    aa85:	mov    ecx,DWORD PTR [rcx+0x108e0]
    aa8b:	cmp    ecx,eax
    aa8d:	jg     ab88 <shadow_fault_generic_postprocess+0x1a8>
    aa93:	test   eax,eax
    aa95:	mov    r13d,DWORD PTR [rip+0x21e640]        # 2290dc <opt+0x3c>
    aa9c:	je     aaac <shadow_fault_generic_postprocess+0xcc>
    aa9e:	cmp    ecx,r13d
    aaa1:	jl     aaac <shadow_fault_generic_postprocess+0xcc>
    aaa3:	test   r13d,r13d
    aaa6:	jne    abdf <shadow_fault_generic_postprocess+0x1ff>
    aaac:	add    ecx,ecx
    aaae:	cmovne edx,ecx
    aab1:	test   r13d,r13d
    aab4:	je     abd7 <shadow_fault_generic_postprocess+0x1f7>
    aaba:	cmp    edx,r13d
    aabd:	jle    abd7 <shadow_fault_generic_postprocess+0x1f7>
    aac3:	lea    rax,[rbx*8+0x0]
    aacb:	movsxd rsi,r13d
    aace:	shl    rsi,0x3
    aad2:	sub    rax,rbx
    aad5:	lea    r14,[rbp+rax*8+0x0]
    aada:	mov    rdi,QWORD PTR [r14+0x108f0]
    aae1:	call   44c0 <realloc@plt>
    aae6:	test   rax,rax
    aae9:	je     abcb <shadow_fault_generic_postprocess+0x1eb>
    aaef:	mov    QWORD PTR [r14+0x108f0],rax
    aaf6:	mov    DWORD PTR [r14+0x108e0],r13d
    aafd:	lea    rax,[rbx*8+0x0]
    ab05:	sub    rax,rbx
    ab08:	movsxd rax,DWORD PTR [rbp+rax*8+0x108dc]
    ab10:	cmp    eax,r13d
    ab13:	jl     ab88 <shadow_fault_generic_postprocess+0x1a8>
    ab15:	cdq    
    ab16:	idiv   r13d
    ab19:	lea    ecx,[rax+0x1]
    ab1c:	mov    esi,edx
    ab1e:	mov    edx,0x55555556
    ab23:	mov    eax,ecx
    ab25:	imul   edx
    ab27:	mov    eax,ecx
    ab29:	sar    eax,0x1f
    ab2c:	sub    eax,edx
    ab2e:	add    eax,esi
    ab30:	cdq    
    ab31:	idiv   ecx
    ab33:	lea    rax,[rbx*8+0x0]
    ab3b:	sub    rax,rbx
    ab3e:	test   edx,edx
    ab40:	je     abb0 <shadow_fault_generic_postprocess+0x1d0>
    ab42:	mov    eax,DWORD PTR [rbp+rax*8+0x108dc]
    ab49:	nop    DWORD PTR [rax+0x0]
    ab50:	lea    rdx,[rbx*8+0x0]
    ab58:	add    eax,0x1
    ab5b:	sub    rdx,rbx
    ab5e:	lea    rdx,[rbp+rdx*8+0x0]
    ab63:	mov    DWORD PTR [rdx+0x108dc],eax
    ab69:	add    QWORD PTR [rdx+0x108e8],r12
    ab70:	add    DWORD PTR [rdx+0x108f8],0x1
    ab77:	add    QWORD PTR [rdx+0x10900],r12
    ab7e:	jmp    aa2a <shadow_fault_generic_postprocess+0x4a>
    ab83:	nop    DWORD PTR [rax+rax*1+0x0]
    ab88:	lea    rdx,[rbx*8+0x0]
    ab90:	sub    rdx,rbx
    ab93:	lea    rdx,[rbp+rdx*8+0x0]
    ab98:	mov    rcx,QWORD PTR [rdx+0x108f0]
    ab9f:	mov    QWORD PTR [rcx+rax*8],r12
    aba3:	mov    eax,DWORD PTR [rdx+0x108dc]
    aba9:	jmp    ab50 <shadow_fault_generic_postprocess+0x170>
    abab:	nop    DWORD PTR [rax+rax*1+0x0]
    abb0:	lea    rdx,[rbp+rax*8+0x0]
    abb5:	movsxd rax,esi
    abb8:	mov    rcx,QWORD PTR [rdx+0x108f0]
    abbf:	mov    QWORD PTR [rcx+rax*8],r12
    abc3:	mov    eax,DWORD PTR [rdx+0x108dc]
    abc9:	jmp    ab50 <shadow_fault_generic_postprocess+0x170>
    abcb:	mov    r13d,DWORD PTR [r14+0x108e0]
    abd2:	jmp    aafd <shadow_fault_generic_postprocess+0x11d>
    abd7:	mov    r13d,edx
    abda:	jmp    aac3 <shadow_fault_generic_postprocess+0xe3>
    abdf:	mov    r13d,ecx
    abe2:	jmp    ab15 <shadow_fault_generic_postprocess+0x135>
    abe7:	nop    WORD PTR [rax+rax*1+0x0]

000000000000abf0 <shadow_emulate_postprocess>:
    abf0:	push   r15
    abf2:	push   r14
    abf4:	push   r13
    abf6:	push   r12
    abf8:	push   rbp
    abf9:	push   rbx
    abfa:	mov    rbx,rdi
    abfd:	sub    rsp,0x8
    ac01:	mov    eax,DWORD PTR [rip+0x21e49d]        # 2290a4 <opt+0x4>
    ac07:	test   eax,eax
    ac09:	jne    ac80 <shadow_emulate_postprocess+0x90>
    ac0b:	test   BYTE PTR [rip+0x21e48e],0x2        # 2290a0 <opt>
    ac12:	je     ac70 <shadow_emulate_postprocess+0x80>
    ac14:	test   BYTE PTR [rbx+0x28351],0x20
    ac1b:	jne    adc0 <shadow_emulate_postprocess+0x1d0>
    ac21:	test   BYTE PTR [rbx+0x28408],0x2
    ac28:	jne    ade0 <shadow_emulate_postprocess+0x1f0>
    ac2e:	test   BYTE PTR [rbx+0x28351],0x2
    ac35:	je     ac70 <shadow_emulate_postprocess+0x80>
    ac37:	test   BYTE PTR [rip+0x21e464],0x20        # 2290a2 <opt+0x2>
    ac3e:	je     ae48 <shadow_emulate_postprocess+0x258>
    ac44:	mov    rax,QWORD PTR [rbx+0x10]
    ac48:	mov    rax,QWORD PTR [rax+0x70]
    ac4c:	test   rax,rax
    ac4f:	je     ac70 <shadow_emulate_postprocess+0x80>
    ac51:	movsxd rsi,DWORD PTR [rax+0x18]
    ac55:	mov    rdi,QWORD PTR [rbx+0x283e0]
    ac5c:	add    rsp,0x8
    ac60:	pop    rbx
    ac61:	pop    rbp
    ac62:	pop    r12
    ac64:	pop    r13
    ac66:	pop    r14
    ac68:	pop    r15
    ac6a:	jmp    7700 <scatterplot_vs_time>
    ac6f:	nop
    ac70:	add    rsp,0x8
    ac74:	pop    rbx
    ac75:	pop    rbp
    ac76:	pop    r12
    ac78:	pop    r13
    ac7a:	pop    r14
    ac7c:	pop    r15
    ac7e:	ret    
    ac7f:	nop
    ac80:	mov    rax,QWORD PTR [rdi+0x10]
    ac84:	mov    rdx,QWORD PTR [rdi+0x283e8]
    ac8b:	xor    r8d,r8d
    ac8e:	mov    rsi,QWORD PTR [rdi+0x283f8]
    ac95:	xor    ecx,ecx
    ac97:	mov    rdi,QWORD PTR [rax+0x8]
    ac9b:	add    rdi,0x9e8
    aca2:	call   91f0 <update_eip>
    aca7:	mov    rbp,QWORD PTR [rbx+0x283e8]
    acae:	add    DWORD PTR [rbx+0x10a98],0x1
    acb5:	test   rbp,rbp
    acb8:	jne    aee0 <shadow_emulate_postprocess+0x2f0>
    acbe:	movsxd rdx,DWORD PTR [rbx+0x283a0]
    acc5:	lea    rax,[rdx*8+0x0]
    accd:	sub    rax,rdx
    acd0:	add    DWORD PTR [rbx+rax*8+0x10be8],0x1
    acd8:	test   BYTE PTR [rbx+0x28408],0x2
    acdf:	jne    ae00 <shadow_emulate_postprocess+0x210>
    ace5:	xor    esi,esi
    ace7:	test   BYTE PTR [rbx+0x28352],0x2
    acee:	jne    ae90 <shadow_emulate_postprocess+0x2a0>
    acf4:	test   BYTE PTR [rbx+0x28351],0x20
    acfb:	je     ad20 <shadow_emulate_postprocess+0x130>
    acfd:	add    DWORD PTR [rbx+0x10d00],0x1
    ad04:	test   rsi,rsi
    ad07:	je     ae2a <shadow_emulate_postprocess+0x23a>
    ad0d:	lea    rdi,[rbx+0x10d00]
    ad14:	call   4a20 <update_cycles.part.5>
    ad19:	mov    rsi,QWORD PTR [rbx+0x283e8]
    ad20:	movzx  eax,BYTE PTR [rbx+0x28350]
    ad27:	test   al,0x20
    ad29:	je     aeb5 <shadow_emulate_postprocess+0x2c5>
    ad2f:	add    DWORD PTR [rbx+0x10d38],0x1
    ad36:	test   rsi,rsi
    ad39:	je     ad50 <shadow_emulate_postprocess+0x160>
    ad3b:	lea    rdi,[rbx+0x10d38]
    ad42:	call   4a20 <update_cycles.part.5>
    ad47:	movzx  eax,BYTE PTR [rbx+0x28350]
    ad4e:	xchg   ax,ax
    ad50:	test   al,0x40
    ad52:	je     ad6b <shadow_emulate_postprocess+0x17b>
    ad54:	mov    rsi,QWORD PTR [rbx+0x283e8]
    ad5b:	add    DWORD PTR [rbx+0x10da8],0x1
    ad62:	test   rsi,rsi
    ad65:	jne    b1a8 <shadow_emulate_postprocess+0x5b8>
    ad6b:	test   al,al
    ad6d:	js     ae60 <shadow_emulate_postprocess+0x270>
    ad73:	movzx  eax,BYTE PTR [rbx+0x28351]
    ad7a:	test   al,0x2
    ad7c:	je     ad95 <shadow_emulate_postprocess+0x1a5>
    ad7e:	mov    rsi,QWORD PTR [rbx+0x283e8]
    ad85:	add    DWORD PTR [rbx+0x10e18],0x1
    ad8c:	test   rsi,rsi
    ad8f:	jne    b1c0 <shadow_emulate_postprocess+0x5d0>
    ad95:	test   al,0x1
    ad97:	je     adb0 <shadow_emulate_postprocess+0x1c0>
    ad99:	mov    rsi,QWORD PTR [rbx+0x283e8]
    ada0:	add    DWORD PTR [rbx+0x10e50],0x1
    ada7:	test   rsi,rsi
    adaa:	jne    b190 <shadow_emulate_postprocess+0x5a0>
    adb0:	xor    esi,esi
    adb2:	mov    rdi,rbx
    adb5:	call   9800 <hvm_update_short_summary>
    adba:	jmp    ac0b <shadow_emulate_postprocess+0x1b>
    adbf:	nop
    adc0:	mov    rdi,QWORD PTR [rbx+0x283e0]
    adc7:	mov    rsi,0xfffffffffffffff6
    adce:	call   7700 <scatterplot_vs_time>
    add3:	test   BYTE PTR [rbx+0x28408],0x2
    adda:	je     ac2e <shadow_emulate_postprocess+0x3e>
    ade0:	mov    rdi,QWORD PTR [rbx+0x283e0]
    ade7:	xor    esi,esi
    ade9:	call   7700 <scatterplot_vs_time>
    adee:	test   BYTE PTR [rbx+0x28351],0x2
    adf5:	jne    ac37 <shadow_emulate_postprocess+0x47>
    adfb:	jmp    ac70 <shadow_emulate_postprocess+0x80>
    ae00:	add    DWORD PTR [rbx+0x10e88],0x1
    ae07:	test   BYTE PTR [rbx+0x28352],0x2
    ae0e:	jne    ae90 <shadow_emulate_postprocess+0x2a0>
    ae14:	xor    esi,esi
    ae16:	test   BYTE PTR [rbx+0x28351],0x20
    ae1d:	je     ad20 <shadow_emulate_postprocess+0x130>
    ae23:	add    DWORD PTR [rbx+0x10d00],0x1
    ae2a:	movzx  eax,BYTE PTR [rbx+0x28350]
    ae31:	test   al,0x20
    ae33:	jne    afb0 <shadow_emulate_postprocess+0x3c0>
    ae39:	add    DWORD PTR [rbx+0x10d70],0x1
    ae40:	jmp    ad50 <shadow_emulate_postprocess+0x160>
    ae45:	nop    DWORD PTR [rax]
    ae48:	mov    rdi,QWORD PTR [rbx+0x283e0]
    ae4f:	mov    esi,0x2
    ae54:	jmp    ac5c <shadow_emulate_postprocess+0x6c>
    ae59:	nop    DWORD PTR [rax+0x0]
    ae60:	mov    rsi,QWORD PTR [rbx+0x283e8]
    ae67:	add    DWORD PTR [rbx+0x10de0],0x1
    ae6e:	test   rsi,rsi
    ae71:	je     ad73 <shadow_emulate_postprocess+0x183>
    ae77:	lea    rdi,[rbx+0x10de0]
    ae7e:	call   4a20 <update_cycles.part.5>
    ae83:	jmp    ad73 <shadow_emulate_postprocess+0x183>
    ae88:	nop    DWORD PTR [rax+rax*1+0x0]
    ae90:	add    DWORD PTR [rbx+0x10ec0],0x1
    ae97:	test   BYTE PTR [rbx+0x28351],0x20
    ae9e:	jne    ae23 <shadow_emulate_postprocess+0x233>
    aea4:	movzx  eax,BYTE PTR [rbx+0x28350]
    aeab:	xor    esi,esi
    aead:	test   al,0x20
    aeaf:	jne    afb0 <shadow_emulate_postprocess+0x3c0>
    aeb5:	add    DWORD PTR [rbx+0x10d70],0x1
    aebc:	test   rsi,rsi
    aebf:	je     ad50 <shadow_emulate_postprocess+0x160>
    aec5:	lea    rdi,[rbx+0x10d70]
    aecc:	call   4a20 <update_cycles.part.5>
    aed1:	movzx  eax,BYTE PTR [rbx+0x28350]
    aed8:	jmp    ad50 <shadow_emulate_postprocess+0x160>
    aedd:	nop    DWORD PTR [rax]
    aee0:	mov    edx,DWORD PTR [rip+0x21e1f2]        # 2290d8 <opt+0x38>
    aee6:	movsxd rcx,DWORD PTR [rbx+0x10a9c]
    aeed:	test   edx,edx
    aeef:	mov    eax,ecx
    aef1:	je     afc0 <shadow_emulate_postprocess+0x3d0>
    aef7:	mov    eax,DWORD PTR [rbx+0x10aa0]
    aefd:	cmp    eax,ecx
    aeff:	jg     b210 <shadow_emulate_postprocess+0x620>
    af05:	test   ecx,ecx
    af07:	mov    r12d,DWORD PTR [rip+0x21e1ce]        # 2290dc <opt+0x3c>
    af0e:	je     af1e <shadow_emulate_postprocess+0x32e>
    af10:	cmp    eax,r12d
    af13:	jl     af1e <shadow_emulate_postprocess+0x32e>
    af15:	test   r12d,r12d
    af18:	jne    b2a0 <shadow_emulate_postprocess+0x6b0>
    af1e:	add    eax,eax
    af20:	cmovne edx,eax
    af23:	test   r12d,r12d
    af26:	je     b298 <shadow_emulate_postprocess+0x6a8>
    af2c:	cmp    edx,r12d
    af2f:	jle    b298 <shadow_emulate_postprocess+0x6a8>
    af35:	mov    rdi,QWORD PTR [rbx+0x10ab0]
    af3c:	movsxd rsi,r12d
    af3f:	shl    rsi,0x3
    af43:	call   44c0 <realloc@plt>
    af48:	test   rax,rax
    af4b:	je     b278 <shadow_emulate_postprocess+0x688>
    af51:	mov    QWORD PTR [rbx+0x10ab0],rax
    af58:	mov    DWORD PTR [rbx+0x10aa0],r12d
    af5f:	movsxd rcx,DWORD PTR [rbx+0x10a9c]
    af66:	cmp    ecx,r12d
    af69:	jl     b210 <shadow_emulate_postprocess+0x620>
    af6f:	mov    eax,ecx
    af71:	cdq    
    af72:	idiv   r12d
    af75:	lea    esi,[rax+0x1]
    af78:	movsxd rdi,edx
    af7b:	mov    edx,0x55555556
    af80:	mov    eax,esi
    af82:	imul   edx
    af84:	mov    eax,esi
    af86:	sar    eax,0x1f
    af89:	sub    eax,edx
    af8b:	add    eax,edi
    af8d:	cdq    
    af8e:	idiv   esi
    af90:	test   edx,edx
    af92:	je     b258 <shadow_emulate_postprocess+0x668>
    af98:	mov    r13,QWORD PTR [rbx+0x283e8]
    af9f:	mov    eax,ecx
    afa1:	mov    r12,r13
    afa4:	jmp    afc6 <shadow_emulate_postprocess+0x3d6>
    afa6:	nop    WORD PTR cs:[rax+rax*1+0x0]
    afb0:	add    DWORD PTR [rbx+0x10d38],0x1
    afb7:	jmp    ad50 <shadow_emulate_postprocess+0x160>
    afbc:	nop    DWORD PTR [rax+0x0]
    afc0:	mov    r12,rbp
    afc3:	mov    r13,rbp
    afc6:	add    QWORD PTR [rbx+0x10aa8],rbp
    afcd:	add    QWORD PTR [rbx+0x10ac0],rbp
    afd4:	add    eax,0x1
    afd7:	movsxd rbp,DWORD PTR [rbx+0x283a0]
    afde:	mov    DWORD PTR [rbx+0x10a9c],eax
    afe4:	add    DWORD PTR [rbx+0x10ab8],0x1
    afeb:	lea    rax,[rbp*8+0x0]
    aff3:	sub    rax,rbp
    aff6:	lea    rdx,[rbx+rax*8]
    affa:	add    DWORD PTR [rdx+0x10be8],0x1
    b001:	test   r12,r12
    b004:	je     b2b0 <shadow_emulate_postprocess+0x6c0>
    b00a:	mov    ecx,DWORD PTR [rip+0x21e0c8]        # 2290d8 <opt+0x38>
    b010:	movsxd rax,DWORD PTR [rdx+0x10bec]
    b017:	mov    rsi,r12
    b01a:	test   ecx,ecx
    b01c:	je     b0f8 <shadow_emulate_postprocess+0x508>
    b022:	mov    edx,DWORD PTR [rdx+0x10bf0]
    b028:	cmp    edx,eax
    b02a:	jg     b1e0 <shadow_emulate_postprocess+0x5f0>
    b030:	test   eax,eax
    b032:	mov    r14d,DWORD PTR [rip+0x21e0a3]        # 2290dc <opt+0x3c>
    b039:	je     b049 <shadow_emulate_postprocess+0x459>
    b03b:	test   r14d,r14d
    b03e:	je     b049 <shadow_emulate_postprocess+0x459>
    b040:	cmp    edx,r14d
    b043:	jge    b2a8 <shadow_emulate_postprocess+0x6b8>
    b049:	add    edx,edx
    b04b:	cmovne ecx,edx
    b04e:	cmp    ecx,r14d
    b051:	jle    b290 <shadow_emulate_postprocess+0x6a0>
    b057:	test   r14d,r14d
    b05a:	je     b290 <shadow_emulate_postprocess+0x6a0>
    b060:	lea    rax,[rbp*8+0x0]
    b068:	movsxd rsi,r14d
    b06b:	shl    rsi,0x3
    b06f:	sub    rax,rbp
    b072:	lea    r15,[rbx+rax*8]
    b076:	mov    rdi,QWORD PTR [r15+0x10c00]
    b07d:	call   44c0 <realloc@plt>
    b082:	test   rax,rax
    b085:	je     b284 <shadow_emulate_postprocess+0x694>
    b08b:	mov    QWORD PTR [r15+0x10c00],rax
    b092:	mov    DWORD PTR [r15+0x10bf0],r14d
    b099:	lea    rax,[rbp*8+0x0]
    b0a1:	sub    rax,rbp
    b0a4:	movsxd rax,DWORD PTR [rbx+rax*8+0x10bec]
    b0ac:	cmp    eax,r14d
    b0af:	jl     b1e0 <shadow_emulate_postprocess+0x5f0>
    b0b5:	cdq    
    b0b6:	idiv   r14d
    b0b9:	lea    ecx,[rax+0x1]
    b0bc:	mov    esi,edx
    b0be:	mov    edx,0x55555556
    b0c3:	mov    eax,ecx
    b0c5:	imul   edx
    b0c7:	mov    eax,ecx
    b0c9:	sar    eax,0x1f
    b0cc:	sub    eax,edx
    b0ce:	add    eax,esi
    b0d0:	cdq    
    b0d1:	idiv   ecx
    b0d3:	lea    rax,[rbp*8+0x0]
    b0db:	sub    rax,rbp
    b0de:	test   edx,edx
    b0e0:	je     b230 <shadow_emulate_postprocess+0x640>
    b0e6:	mov    eax,DWORD PTR [rbx+rax*8+0x10bec]
    b0ed:	mov    rsi,QWORD PTR [rbx+0x283e8]
    b0f4:	nop    DWORD PTR [rax+0x0]
    b0f8:	lea    rdx,[rbp*8+0x0]
    b100:	add    eax,0x1
    b103:	sub    rdx,rbp
    b106:	lea    rdx,[rbx+rdx*8]
    b10a:	add    QWORD PTR [rdx+0x10bf8],r13
