
xenstored:     file format elf64-x86-64


Disassembly of section .init:

00000000000026a8 <_init>:
    26a8:	sub    rsp,0x8
    26ac:	mov    rax,QWORD PTR [rip+0x213935]        # 215fe8 <__gmon_start__>
    26b3:	test   rax,rax
    26b6:	je     26ba <_init+0x12>
    26b8:	call   rax
    26ba:	add    rsp,0x8
    26be:	ret    

Disassembly of section .plt:

00000000000026c0 <.plt>:
    26c0:	push   QWORD PTR [rip+0x213622]        # 215ce8 <_GLOBAL_OFFSET_TABLE_+0x8>
    26c6:	jmp    QWORD PTR [rip+0x213624]        # 215cf0 <_GLOBAL_OFFSET_TABLE_+0x10>
    26cc:	nop    DWORD PTR [rax+0x0]

00000000000026d0 <getenv@plt>:
    26d0:	jmp    QWORD PTR [rip+0x213622]        # 215cf8 <getenv@GLIBC_2.2.5>
    26d6:	push   0x0
    26db:	jmp    26c0 <.plt>

00000000000026e0 <xenevtchn_open@plt>:
    26e0:	jmp    QWORD PTR [rip+0x21361a]        # 215d00 <xenevtchn_open@VERS_1.0>
    26e6:	push   0x1
    26eb:	jmp    26c0 <.plt>

00000000000026f0 <__snprintf_chk@plt>:
    26f0:	jmp    QWORD PTR [rip+0x213612]        # 215d08 <__snprintf_chk@GLIBC_2.3.4>
    26f6:	push   0x2
    26fb:	jmp    26c0 <.plt>

0000000000002700 <free@plt>:
    2700:	jmp    QWORD PTR [rip+0x21360a]        # 215d10 <free@GLIBC_2.2.5>
    2706:	push   0x3
    270b:	jmp    26c0 <.plt>

0000000000002710 <localtime@plt>:
    2710:	jmp    QWORD PTR [rip+0x213602]        # 215d18 <localtime@GLIBC_2.2.5>
    2716:	push   0x4
    271b:	jmp    26c0 <.plt>

0000000000002720 <__vfprintf_chk@plt>:
    2720:	jmp    QWORD PTR [rip+0x2135fa]        # 215d20 <__vfprintf_chk@GLIBC_2.3.4>
    2726:	push   0x5
    272b:	jmp    26c0 <.plt>

0000000000002730 <xenevtchn_notify@plt>:
    2730:	jmp    QWORD PTR [rip+0x2135f2]        # 215d28 <xenevtchn_notify@VERS_1.0>
    2736:	push   0x6
    273b:	jmp    26c0 <.plt>

0000000000002740 <abort@plt>:
    2740:	jmp    QWORD PTR [rip+0x2135ea]        # 215d30 <abort@GLIBC_2.2.5>
    2746:	push   0x7
    274b:	jmp    26c0 <.plt>

0000000000002750 <__errno_location@plt>:
    2750:	jmp    QWORD PTR [rip+0x2135e2]        # 215d38 <__errno_location@GLIBC_2.2.5>
    2756:	push   0x8
    275b:	jmp    26c0 <.plt>

0000000000002760 <unlink@plt>:
    2760:	jmp    QWORD PTR [rip+0x2135da]        # 215d40 <unlink@GLIBC_2.2.5>
    2766:	push   0x9
    276b:	jmp    26c0 <.plt>

0000000000002770 <strncmp@plt>:
    2770:	jmp    QWORD PTR [rip+0x2135d2]        # 215d48 <strncmp@GLIBC_2.2.5>
    2776:	push   0xa
    277b:	jmp    26c0 <.plt>

0000000000002780 <strcpy@plt>:
    2780:	jmp    QWORD PTR [rip+0x2135ca]        # 215d50 <strcpy@GLIBC_2.2.5>
    2786:	push   0xb
    278b:	jmp    26c0 <.plt>

0000000000002790 <mkdir@plt>:
    2790:	jmp    QWORD PTR [rip+0x2135c2]        # 215d58 <mkdir@GLIBC_2.2.5>
    2796:	push   0xc
    279b:	jmp    26c0 <.plt>

00000000000027a0 <fcntl@plt>:
    27a0:	jmp    QWORD PTR [rip+0x2135ba]        # 215d60 <fcntl@GLIBC_2.2.5>
    27a6:	push   0xd
    27ab:	jmp    26c0 <.plt>

00000000000027b0 <write@plt>:
    27b0:	jmp    QWORD PTR [rip+0x2135b2]        # 215d68 <write@GLIBC_2.2.5>
    27b6:	push   0xe
    27bb:	jmp    26c0 <.plt>

00000000000027c0 <getpid@plt>:
    27c0:	jmp    QWORD PTR [rip+0x2135aa]        # 215d70 <getpid@GLIBC_2.2.5>
    27c6:	push   0xf
    27cb:	jmp    26c0 <.plt>

00000000000027d0 <xc_interface_open@plt>:
    27d0:	jmp    QWORD PTR [rip+0x2135a2]        # 215d78 <xc_interface_open>
    27d6:	push   0x10
    27db:	jmp    26c0 <.plt>

00000000000027e0 <fclose@plt>:
    27e0:	jmp    QWORD PTR [rip+0x21359a]        # 215d80 <fclose@GLIBC_2.2.5>
    27e6:	push   0x11
    27eb:	jmp    26c0 <.plt>

00000000000027f0 <xc_domain_getinfo@plt>:
    27f0:	jmp    QWORD PTR [rip+0x213592]        # 215d88 <xc_domain_getinfo>
    27f6:	push   0x12
    27fb:	jmp    26c0 <.plt>

0000000000002800 <strlen@plt>:
    2800:	jmp    QWORD PTR [rip+0x21358a]        # 215d90 <strlen@GLIBC_2.2.5>
    2806:	push   0x13
    280b:	jmp    26c0 <.plt>

0000000000002810 <chdir@plt>:
    2810:	jmp    QWORD PTR [rip+0x213582]        # 215d98 <chdir@GLIBC_2.2.5>
    2816:	push   0x14
    281b:	jmp    26c0 <.plt>

0000000000002820 <__stack_chk_fail@plt>:
    2820:	jmp    QWORD PTR [rip+0x21357a]        # 215da0 <__stack_chk_fail@GLIBC_2.4>
    2826:	push   0x15
    282b:	jmp    26c0 <.plt>

0000000000002830 <xenevtchn_bind_interdomain@plt>:
    2830:	jmp    QWORD PTR [rip+0x213572]        # 215da8 <xenevtchn_bind_interdomain@VERS_1.0>
    2836:	push   0x16
    283b:	jmp    26c0 <.plt>

0000000000002840 <mmap@plt>:
    2840:	jmp    QWORD PTR [rip+0x21356a]        # 215db0 <mmap@GLIBC_2.2.5>
    2846:	push   0x17
    284b:	jmp    26c0 <.plt>

0000000000002850 <getopt_long@plt>:
    2850:	jmp    QWORD PTR [rip+0x213562]        # 215db8 <getopt_long@GLIBC_2.2.5>
    2856:	push   0x18
    285b:	jmp    26c0 <.plt>

0000000000002860 <dup2@plt>:
    2860:	jmp    QWORD PTR [rip+0x21355a]        # 215dc0 <dup2@GLIBC_2.2.5>
    2866:	push   0x19
    286b:	jmp    26c0 <.plt>

0000000000002870 <strchr@plt>:
    2870:	jmp    QWORD PTR [rip+0x213552]        # 215dc8 <strchr@GLIBC_2.2.5>
    2876:	push   0x1a
    287b:	jmp    26c0 <.plt>

0000000000002880 <xenevtchn_unmask@plt>:
    2880:	jmp    QWORD PTR [rip+0x21354a]        # 215dd0 <xenevtchn_unmask@VERS_1.0>
    2886:	push   0x1b
    288b:	jmp    26c0 <.plt>

0000000000002890 <strrchr@plt>:
    2890:	jmp    QWORD PTR [rip+0x213542]        # 215dd8 <strrchr@GLIBC_2.2.5>
    2896:	push   0x1c
    289b:	jmp    26c0 <.plt>

00000000000028a0 <ftruncate@plt>:
    28a0:	jmp    QWORD PTR [rip+0x21353a]        # 215de0 <ftruncate@GLIBC_2.2.5>
    28a6:	push   0x1d
    28ab:	jmp    26c0 <.plt>

00000000000028b0 <dup@plt>:
    28b0:	jmp    QWORD PTR [rip+0x213532]        # 215de8 <dup@GLIBC_2.2.5>
    28b6:	push   0x1e
    28bb:	jmp    26c0 <.plt>

00000000000028c0 <lseek@plt>:
    28c0:	jmp    QWORD PTR [rip+0x21352a]        # 215df0 <lseek@GLIBC_2.2.5>
    28c6:	push   0x1f
    28cb:	jmp    26c0 <.plt>

00000000000028d0 <__assert_fail@plt>:
    28d0:	jmp    QWORD PTR [rip+0x213522]        # 215df8 <__assert_fail@GLIBC_2.2.5>
    28d6:	push   0x20
    28db:	jmp    26c0 <.plt>

00000000000028e0 <xenevtchn_pending@plt>:
    28e0:	jmp    QWORD PTR [rip+0x21351a]        # 215e00 <xenevtchn_pending@VERS_1.0>
    28e6:	push   0x21
    28eb:	jmp    26c0 <.plt>

00000000000028f0 <xc_interface_close@plt>:
    28f0:	jmp    QWORD PTR [rip+0x213512]        # 215e08 <xc_interface_close>
    28f6:	push   0x22
    28fb:	jmp    26c0 <.plt>

0000000000002900 <xengnttab_open@plt>:
    2900:	jmp    QWORD PTR [rip+0x21350a]        # 215e10 <xengnttab_open@VERS_1.0>
    2906:	push   0x23
    290b:	jmp    26c0 <.plt>

0000000000002910 <lockf@plt>:
    2910:	jmp    QWORD PTR [rip+0x213502]        # 215e18 <lockf@GLIBC_2.2.5>
    2916:	push   0x24
    291b:	jmp    26c0 <.plt>

0000000000002920 <memset@plt>:
    2920:	jmp    QWORD PTR [rip+0x2134fa]        # 215e20 <memset@GLIBC_2.2.5>
    2926:	push   0x25
    292b:	jmp    26c0 <.plt>

0000000000002930 <close@plt>:
    2930:	jmp    QWORD PTR [rip+0x2134f2]        # 215e28 <close@GLIBC_2.2.5>
    2936:	push   0x26
    293b:	jmp    26c0 <.plt>

0000000000002940 <pipe@plt>:
    2940:	jmp    QWORD PTR [rip+0x2134ea]        # 215e30 <pipe@GLIBC_2.2.5>
    2946:	push   0x27
    294b:	jmp    26c0 <.plt>

0000000000002950 <setsid@plt>:
    2950:	jmp    QWORD PTR [rip+0x2134e2]        # 215e38 <setsid@GLIBC_2.2.5>
    2956:	push   0x28
    295b:	jmp    26c0 <.plt>

0000000000002960 <strspn@plt>:
    2960:	jmp    QWORD PTR [rip+0x2134da]        # 215e40 <strspn@GLIBC_2.2.5>
    2966:	push   0x29
    296b:	jmp    26c0 <.plt>

0000000000002970 <memchr@plt>:
    2970:	jmp    QWORD PTR [rip+0x2134d2]        # 215e48 <memchr@GLIBC_2.2.5>
    2976:	push   0x2a
    297b:	jmp    26c0 <.plt>

0000000000002980 <read@plt>:
    2980:	jmp    QWORD PTR [rip+0x2134ca]        # 215e50 <read@GLIBC_2.2.5>
    2986:	push   0x2b
    298b:	jmp    26c0 <.plt>

0000000000002990 <memcmp@plt>:
    2990:	jmp    QWORD PTR [rip+0x2134c2]        # 215e58 <memcmp@GLIBC_2.2.5>
    2996:	push   0x2c
    299b:	jmp    26c0 <.plt>

00000000000029a0 <calloc@plt>:
    29a0:	jmp    QWORD PTR [rip+0x2134ba]        # 215e60 <calloc@GLIBC_2.2.5>
    29a6:	push   0x2d
    29ab:	jmp    26c0 <.plt>

00000000000029b0 <xenevtchn_unbind@plt>:
    29b0:	jmp    QWORD PTR [rip+0x2134b2]        # 215e68 <xenevtchn_unbind@VERS_1.0>
    29b6:	push   0x2e
    29bb:	jmp    26c0 <.plt>

00000000000029c0 <strcmp@plt>:
    29c0:	jmp    QWORD PTR [rip+0x2134aa]        # 215e70 <strcmp@GLIBC_2.2.5>
    29c6:	push   0x2f
    29cb:	jmp    26c0 <.plt>

00000000000029d0 <xenevtchn_bind_virq@plt>:
    29d0:	jmp    QWORD PTR [rip+0x2134a2]        # 215e78 <xenevtchn_bind_virq@VERS_1.0>
    29d6:	push   0x30
    29db:	jmp    26c0 <.plt>

00000000000029e0 <signal@plt>:
    29e0:	jmp    QWORD PTR [rip+0x21349a]        # 215e80 <signal@GLIBC_2.2.5>
    29e6:	push   0x31
    29eb:	jmp    26c0 <.plt>

00000000000029f0 <__memcpy_chk@plt>:
    29f0:	jmp    QWORD PTR [rip+0x213492]        # 215e88 <__memcpy_chk@GLIBC_2.3.4>
    29f6:	push   0x32
    29fb:	jmp    26c0 <.plt>

0000000000002a00 <umask@plt>:
    2a00:	jmp    QWORD PTR [rip+0x21348a]        # 215e90 <umask@GLIBC_2.2.5>
    2a06:	push   0x33
    2a0b:	jmp    26c0 <.plt>

0000000000002a10 <strtol@plt>:
    2a10:	jmp    QWORD PTR [rip+0x213482]        # 215e98 <strtol@GLIBC_2.2.5>
    2a16:	push   0x34
    2a1b:	jmp    26c0 <.plt>

0000000000002a20 <memcpy@plt>:
    2a20:	jmp    QWORD PTR [rip+0x21347a]        # 215ea0 <memcpy@GLIBC_2.14>
    2a26:	push   0x35
    2a2b:	jmp    26c0 <.plt>

0000000000002a30 <time@plt>:
    2a30:	jmp    QWORD PTR [rip+0x213472]        # 215ea8 <time@GLIBC_2.2.5>
    2a36:	push   0x36
    2a3b:	jmp    26c0 <.plt>

0000000000002a40 <xengnttab_unmap@plt>:
    2a40:	jmp    QWORD PTR [rip+0x21346a]        # 215eb0 <xengnttab_unmap@VERS_1.0>
    2a46:	push   0x37
    2a4b:	jmp    26c0 <.plt>

0000000000002a50 <malloc@plt>:
    2a50:	jmp    QWORD PTR [rip+0x213462]        # 215eb8 <malloc@GLIBC_2.2.5>
    2a56:	push   0x38
    2a5b:	jmp    26c0 <.plt>

0000000000002a60 <fflush@plt>:
    2a60:	jmp    QWORD PTR [rip+0x21345a]        # 215ec0 <fflush@GLIBC_2.2.5>
    2a66:	push   0x39
    2a6b:	jmp    26c0 <.plt>

0000000000002a70 <__vasprintf_chk@plt>:
    2a70:	jmp    QWORD PTR [rip+0x213452]        # 215ec8 <__vasprintf_chk@GLIBC_2.8>
    2a76:	push   0x3a
    2a7b:	jmp    26c0 <.plt>

0000000000002a80 <__fxstat@plt>:
    2a80:	jmp    QWORD PTR [rip+0x21344a]        # 215ed0 <__fxstat@GLIBC_2.2.5>
    2a86:	push   0x3b
    2a8b:	jmp    26c0 <.plt>

0000000000002a90 <listen@plt>:
    2a90:	jmp    QWORD PTR [rip+0x213442]        # 215ed8 <listen@GLIBC_2.2.5>
    2a96:	push   0x3c
    2a9b:	jmp    26c0 <.plt>

0000000000002aa0 <clock_gettime@plt>:
    2aa0:	jmp    QWORD PTR [rip+0x21343a]        # 215ee0 <clock_gettime@GLIBC_2.2.5>
    2aa6:	push   0x3d
    2aab:	jmp    26c0 <.plt>

0000000000002ab0 <xenevtchn_fd@plt>:
    2ab0:	jmp    QWORD PTR [rip+0x213432]        # 215ee8 <xenevtchn_fd@VERS_1.0>
    2ab6:	push   0x3e
    2abb:	jmp    26c0 <.plt>

0000000000002ac0 <__vsnprintf_chk@plt>:
    2ac0:	jmp    QWORD PTR [rip+0x21342a]        # 215ef0 <__vsnprintf_chk@GLIBC_2.3.4>
    2ac6:	push   0x3f
    2acb:	jmp    26c0 <.plt>

0000000000002ad0 <realloc@plt>:
    2ad0:	jmp    QWORD PTR [rip+0x213422]        # 215ef8 <realloc@GLIBC_2.2.5>
    2ad6:	push   0x40
    2adb:	jmp    26c0 <.plt>

0000000000002ae0 <xengnttab_close@plt>:
    2ae0:	jmp    QWORD PTR [rip+0x21341a]        # 215f00 <xengnttab_close@VERS_1.0>
    2ae6:	push   0x41
    2aeb:	jmp    26c0 <.plt>

0000000000002af0 <fdopen@plt>:
    2af0:	jmp    QWORD PTR [rip+0x213412]        # 215f08 <fdopen@GLIBC_2.2.5>
    2af6:	push   0x42
    2afb:	jmp    26c0 <.plt>

0000000000002b00 <munmap@plt>:
    2b00:	jmp    QWORD PTR [rip+0x21340a]        # 215f10 <munmap@GLIBC_2.2.5>
    2b06:	push   0x43
    2b0b:	jmp    26c0 <.plt>

0000000000002b10 <__printf_chk@plt>:
    2b10:	jmp    QWORD PTR [rip+0x213402]        # 215f18 <__printf_chk@GLIBC_2.3.4>
    2b16:	push   0x44
    2b1b:	jmp    26c0 <.plt>

0000000000002b20 <poll@plt>:
    2b20:	jmp    QWORD PTR [rip+0x2133fa]        # 215f20 <poll@GLIBC_2.2.5>
    2b26:	push   0x45
    2b2b:	jmp    26c0 <.plt>

0000000000002b30 <chmod@plt>:
    2b30:	jmp    QWORD PTR [rip+0x2133f2]        # 215f28 <chmod@GLIBC_2.2.5>
    2b36:	push   0x46
    2b3b:	jmp    26c0 <.plt>

0000000000002b40 <bind@plt>:
    2b40:	jmp    QWORD PTR [rip+0x2133ea]        # 215f30 <bind@GLIBC_2.2.5>
    2b46:	push   0x47
    2b4b:	jmp    26c0 <.plt>

0000000000002b50 <memmove@plt>:
    2b50:	jmp    QWORD PTR [rip+0x2133e2]        # 215f38 <memmove@GLIBC_2.2.5>
    2b56:	push   0x48
    2b5b:	jmp    26c0 <.plt>

0000000000002b60 <__syslog_chk@plt>:
    2b60:	jmp    QWORD PTR [rip+0x2133da]        # 215f40 <__syslog_chk@GLIBC_2.4>
    2b66:	push   0x49
    2b6b:	jmp    26c0 <.plt>

0000000000002b70 <open@plt>:
    2b70:	jmp    QWORD PTR [rip+0x2133d2]        # 215f48 <open@GLIBC_2.2.5>
    2b76:	push   0x4a
    2b7b:	jmp    26c0 <.plt>

0000000000002b80 <access@plt>:
    2b80:	jmp    QWORD PTR [rip+0x2133ca]        # 215f50 <access@GLIBC_2.2.5>
    2b86:	push   0x4b
    2b8b:	jmp    26c0 <.plt>

0000000000002b90 <fopen@plt>:
    2b90:	jmp    QWORD PTR [rip+0x2133c2]        # 215f58 <fopen@GLIBC_2.2.5>
    2b96:	push   0x4c
    2b9b:	jmp    26c0 <.plt>

0000000000002ba0 <perror@plt>:
    2ba0:	jmp    QWORD PTR [rip+0x2133ba]        # 215f60 <perror@GLIBC_2.2.5>
    2ba6:	push   0x4d
    2bab:	jmp    26c0 <.plt>

0000000000002bb0 <accept@plt>:
    2bb0:	jmp    QWORD PTR [rip+0x2133b2]        # 215f68 <accept@GLIBC_2.2.5>
    2bb6:	push   0x4e
    2bbb:	jmp    26c0 <.plt>

0000000000002bc0 <strtoul@plt>:
    2bc0:	jmp    QWORD PTR [rip+0x2133aa]        # 215f70 <strtoul@GLIBC_2.2.5>
    2bc6:	push   0x4f
    2bcb:	jmp    26c0 <.plt>

0000000000002bd0 <__cxa_atexit@plt>:
    2bd0:	jmp    QWORD PTR [rip+0x2133a2]        # 215f78 <__cxa_atexit@GLIBC_2.2.5>
    2bd6:	push   0x50
    2bdb:	jmp    26c0 <.plt>

0000000000002be0 <openlog@plt>:
    2be0:	jmp    QWORD PTR [rip+0x21339a]        # 215f80 <openlog@GLIBC_2.2.5>
    2be6:	push   0x51
    2beb:	jmp    26c0 <.plt>

0000000000002bf0 <getpagesize@plt>:
    2bf0:	jmp    QWORD PTR [rip+0x213392]        # 215f88 <getpagesize@GLIBC_2.2.5>
    2bf6:	push   0x52
    2bfb:	jmp    26c0 <.plt>

0000000000002c00 <exit@plt>:
    2c00:	jmp    QWORD PTR [rip+0x21338a]        # 215f90 <exit@GLIBC_2.2.5>
    2c06:	push   0x53
    2c0b:	jmp    26c0 <.plt>

0000000000002c10 <fwrite@plt>:
    2c10:	jmp    QWORD PTR [rip+0x213382]        # 215f98 <fwrite@GLIBC_2.2.5>
    2c16:	push   0x54
    2c1b:	jmp    26c0 <.plt>

0000000000002c20 <__fprintf_chk@plt>:
    2c20:	jmp    QWORD PTR [rip+0x21337a]        # 215fa0 <__fprintf_chk@GLIBC_2.3.4>
    2c26:	push   0x55
    2c2b:	jmp    26c0 <.plt>

0000000000002c30 <strerror@plt>:
    2c30:	jmp    QWORD PTR [rip+0x213372]        # 215fa8 <strerror@GLIBC_2.2.5>
    2c36:	push   0x56
    2c3b:	jmp    26c0 <.plt>

0000000000002c40 <xc_map_foreign_range@plt>:
    2c40:	jmp    QWORD PTR [rip+0x21336a]        # 215fb0 <xc_map_foreign_range>
    2c46:	push   0x57
    2c4b:	jmp    26c0 <.plt>

0000000000002c50 <fork@plt>:
    2c50:	jmp    QWORD PTR [rip+0x213362]        # 215fb8 <fork@GLIBC_2.2.5>
    2c56:	push   0x58
    2c5b:	jmp    26c0 <.plt>

0000000000002c60 <strstr@plt>:
    2c60:	jmp    QWORD PTR [rip+0x21335a]        # 215fc0 <strstr@GLIBC_2.2.5>
    2c66:	push   0x59
    2c6b:	jmp    26c0 <.plt>

0000000000002c70 <xengnttab_map_grant_ref@plt>:
    2c70:	jmp    QWORD PTR [rip+0x213352]        # 215fc8 <xengnttab_map_grant_ref@VERS_1.0>
    2c76:	push   0x5a
    2c7b:	jmp    26c0 <.plt>

0000000000002c80 <socket@plt>:
    2c80:	jmp    QWORD PTR [rip+0x21334a]        # 215fd0 <socket@GLIBC_2.2.5>
    2c86:	push   0x5b
    2c8b:	jmp    26c0 <.plt>

Disassembly of section .plt.got:

0000000000002c90 <__cxa_finalize@plt>:
    2c90:	jmp    QWORD PTR [rip+0x213362]        # 215ff8 <__cxa_finalize@GLIBC_2.2.5>
    2c96:	xchg   ax,ax

Disassembly of section .text:

0000000000002ca0 <main>:
    2ca0:	push   r15
    2ca2:	push   r14
    2ca4:	mov    r14d,0x1
    2caa:	push   r13
    2cac:	push   r12
    2cae:	lea    r13,[rip+0xd7ab]        # 10460 <_IO_stdin_used+0xc00>
    2cb5:	push   rbp
    2cb6:	push   rbx
    2cb7:	mov    r12d,edi
    2cba:	mov    rbp,rsi
    2cbd:	xor    ebx,ebx
    2cbf:	sub    rsp,0xb8
    2cc6:	mov    rax,QWORD PTR fs:0x28
    2ccf:	mov    QWORD PTR [rsp+0xa8],rax
    2cd7:	xor    eax,eax
    2cd9:	mov    DWORD PTR [rsp+0x24],0xffffffff
    2ce1:	mov    DWORD PTR [rsp+0x28],0xffffffff
    2ce9:	mov    BYTE PTR [rsp+0x8],0x0
    2cee:	mov    BYTE PTR [rsp+0x10],0x0
    2cf3:	lea    rcx,[rip+0x213346]        # 216040 <options>
    2cfa:	lea    rdx,[rip+0xcd92]        # fa93 <_IO_stdin_used+0x233>
    2d01:	xor    r8d,r8d
    2d04:	mov    rsi,rbp
    2d07:	mov    edi,r12d
    2d0a:	call   2850 <getopt_long@plt>
    2d0f:	cmp    eax,0xffffffff
    2d12:	je     2ea0 <main+0x200>
    2d18:	sub    eax,0x44
    2d1b:	cmp    eax,0x30
    2d1e:	ja     2cf3 <main+0x53>
    2d20:	movsxd rax,DWORD PTR [r13+rax*4+0x0]
    2d25:	add    rax,r13
    2d28:	jmp    rax
    2d2a:	mov    rdi,QWORD PTR [rip+0x21357f]        # 2162b0 <optarg@@GLIBC_2.2.5>
    2d31:	mov    edx,0xa
    2d36:	xor    esi,esi
    2d38:	call   2a10 <strtol@plt>
    2d3d:	mov    DWORD PTR [rip+0x2132cd],eax        # 216010 <quota_max_transaction>
    2d43:	jmp    2cf3 <main+0x53>
    2d45:	mov    rdi,QWORD PTR [rip+0x213564]        # 2162b0 <optarg@@GLIBC_2.2.5>
    2d4c:	mov    edx,0xa
    2d51:	xor    esi,esi
    2d53:	call   2a10 <strtol@plt>
    2d58:	mov    DWORD PTR [rip+0x213572],eax        # 2162d0 <priv_domid>
    2d5e:	jmp    2cf3 <main+0x53>
    2d60:	mov    rdi,QWORD PTR [rip+0x213549]        # 2162b0 <optarg@@GLIBC_2.2.5>
    2d67:	mov    edx,0xa
    2d6c:	xor    esi,esi
    2d6e:	call   2a10 <strtol@plt>
    2d73:	mov    DWORD PTR [rip+0x21355f],eax        # 2162d8 <dom0_domid>
    2d79:	jmp    2cf3 <main+0x53>
    2d7e:	mov    rdi,QWORD PTR [rip+0x21352b]        # 2162b0 <optarg@@GLIBC_2.2.5>
    2d85:	mov    edx,0xa
    2d8a:	xor    esi,esi
    2d8c:	call   2a10 <strtol@plt>
    2d91:	mov    DWORD PTR [rip+0x21353d],eax        # 2162d4 <dom0_event>
    2d97:	jmp    2cf3 <main+0x53>
    2d9c:	mov    rdi,QWORD PTR [rip+0x21350d]        # 2162b0 <optarg@@GLIBC_2.2.5>
    2da3:	mov    edx,0xa
    2da8:	xor    esi,esi
    2daa:	call   2a10 <strtol@plt>
    2daf:	mov    DWORD PTR [rip+0x213263],eax        # 216018 <quota_nb_watch_per_domain>
    2db5:	jmp    2cf3 <main+0x53>
    2dba:	mov    BYTE PTR [rip+0x21353f],0x1        # 216300 <verbose>
    2dc1:	jmp    2cf3 <main+0x53>
    2dc6:	mov    rax,QWORD PTR [rip+0x2134e3]        # 2162b0 <optarg@@GLIBC_2.2.5>
    2dcd:	mov    QWORD PTR [rip+0x213514],rax        # 2162e8 <tracefile>
    2dd4:	jmp    2cf3 <main+0x53>
    2dd9:	mov    rdi,QWORD PTR [rip+0x2134d0]        # 2162b0 <optarg@@GLIBC_2.2.5>
    2de0:	mov    edx,0xa
    2de5:	xor    esi,esi
    2de7:	call   2a10 <strtol@plt>
    2dec:	mov    DWORD PTR [rip+0x213222],eax        # 216014 <quota_max_entry_size>
    2df2:	jmp    2cf3 <main+0x53>
    2df7:	mov    BYTE PTR [rip+0x213226],0x0        # 216024 <recovery>
    2dfe:	jmp    2cf3 <main+0x53>
    2e03:	mov    BYTE PTR [rsp+0x10],0x1
    2e08:	jmp    2cf3 <main+0x53>
    2e0d:	xor    r14d,r14d
    2e10:	jmp    2cf3 <main+0x53>
    2e15:	mov    DWORD PTR [rip+0x2134d1],0x6        # 2162f0 <tdb_flags>
    2e1f:	jmp    2cf3 <main+0x53>
    2e24:	mov    rcx,QWORD PTR [rip+0x213495]        # 2162c0 <stderr@@GLIBC_2.2.5>
    2e2b:	lea    rdi,[rip+0xd21e]        # 10050 <_IO_stdin_used+0x7f0>
    2e32:	mov    edx,0x3eb
    2e37:	mov    esi,0x1
    2e3c:	call   2c10 <fwrite@plt>
    2e41:	xor    eax,eax
    2e43:	mov    rcx,QWORD PTR [rsp+0xa8]
    2e4b:	xor    rcx,QWORD PTR fs:0x28
    2e54:	jne    3583 <main+0x8e3>
    2e5a:	add    rsp,0xb8
    2e61:	pop    rbx
    2e62:	pop    rbp
    2e63:	pop    r12
    2e65:	pop    r13
    2e67:	pop    r14
    2e69:	pop    r15
    2e6b:	ret    
    2e6c:	mov    rbx,QWORD PTR [rip+0x21343d]        # 2162b0 <optarg@@GLIBC_2.2.5>
    2e73:	jmp    2cf3 <main+0x53>
    2e78:	mov    rdi,QWORD PTR [rip+0x213431]        # 2162b0 <optarg@@GLIBC_2.2.5>
    2e7f:	mov    edx,0xa
    2e84:	xor    esi,esi
    2e86:	call   2a10 <strtol@plt>
    2e8b:	mov    DWORD PTR [rip+0x21318b],eax        # 21601c <quota_nb_entry_per_domain>
    2e91:	jmp    2cf3 <main+0x53>
    2e96:	mov    BYTE PTR [rsp+0x8],0x1
    2e9b:	jmp    2cf3 <main+0x53>
    2ea0:	cmp    DWORD PTR [rip+0x213401],r12d        # 2162a8 <optind@@GLIBC_2.2.5>
    2ea7:	jne    3659 <main+0x9b9>
    2ead:	call   4930 <reopen_log>
    2eb2:	call   9d10 <xs_daemon_rundir>
    2eb7:	mov    esi,0x1ed
    2ebc:	mov    rdi,rax
    2ebf:	call   2790 <mkdir@plt>
    2ec4:	call   9ce0 <xs_daemon_rootdir>
    2ec9:	mov    esi,0x1ed
    2ece:	mov    rdi,rax
    2ed1:	call   2790 <mkdir@plt>
    2ed6:	test   r14b,r14b
    2ed9:	jne    3555 <main+0x8b5>
    2edf:	test   rbx,rbx
    2ee2:	je     2eec <main+0x24c>
    2ee4:	mov    rdi,rbx
    2ee7:	call   f480 <write_pidfile>
    2eec:	call   b240 <talloc_enable_leak_report_full>
    2ef1:	mov    esi,0x1
    2ef6:	mov    edi,0xd
    2efb:	call   29e0 <signal@plt>
    2f00:	call   b1e0 <talloc_enable_null_tracking>
    2f05:	call   9d90 <xs_daemon_socket>
    2f0a:	mov    rbp,rax
    2f0d:	call   9dc0 <xs_daemon_socket_ro>
    2f12:	mov    rbx,rax
    2f15:	call   bb70 <talloc_autofree_context>
    2f1a:	lea    rdx,[rip+0xdaa4]        # 109c5 <__PRETTY_FUNCTION__.11970+0x65>
    2f21:	mov    esi,0x4
    2f26:	mov    rdi,rax
    2f29:	call   a240 <talloc_named_const>
    2f2e:	test   rax,rax
    2f31:	mov    r12,rax
    2f34:	je     364b <main+0x9ab>
    2f3a:	xor    edx,edx
    2f3c:	mov    esi,0x1
    2f41:	mov    edi,0x1
    2f46:	call   2c80 <socket@plt>
    2f4b:	test   eax,eax
    2f4d:	mov    DWORD PTR [r12],eax
    2f51:	js     363d <main+0x99d>
    2f57:	call   bb70 <talloc_autofree_context>
    2f5c:	lea    rdx,[rip+0xda62]        # 109c5 <__PRETTY_FUNCTION__.11970+0x65>
    2f63:	mov    esi,0x4
    2f68:	mov    rdi,rax
    2f6b:	call   a240 <talloc_named_const>
    2f70:	test   rax,rax
    2f73:	mov    r13,rax
    2f76:	je     364b <main+0x9ab>
    2f7c:	xor    edx,edx
    2f7e:	mov    esi,0x1
    2f83:	mov    edi,0x1
    2f88:	call   2c80 <socket@plt>
    2f8d:	test   eax,eax
    2f8f:	mov    DWORD PTR [r13+0x0],eax
    2f93:	js     363d <main+0x99d>
    2f99:	lea    rsi,[rip+0x870]        # 3810 <destroy_fd>
    2fa0:	mov    rdi,r12
    2fa3:	call   a1f0 <talloc_set_destructor>
    2fa8:	lea    rsi,[rip+0x861]        # 3810 <destroy_fd>
    2faf:	mov    rdi,r13
    2fb2:	call   a1f0 <talloc_set_destructor>
    2fb7:	mov    rdi,rbp
    2fba:	call   2760 <unlink@plt>
    2fbf:	mov    rdi,rbx
    2fc2:	call   2760 <unlink@plt>
    2fc7:	mov    esi,0x1
    2fcc:	mov    rdi,rbp
    2fcf:	mov    WORD PTR [rsp+0x30],si
    2fd4:	call   2800 <strlen@plt>
    2fd9:	cmp    rax,0x6b
    2fdd:	ja     362c <main+0x98c>
    2fe3:	lea    r15,[rsp+0x30]
    2fe8:	lea    rdx,[rax+0x1]
    2fec:	mov    ecx,0x6c
    2ff1:	mov    rsi,rbp
    2ff4:	lea    rax,[r15+0x2]
    2ff8:	mov    rdi,rax
    2ffb:	mov    QWORD PTR [rsp+0x18],rax
    3000:	call   29f0 <__memcpy_chk@plt>
    3005:	mov    edi,DWORD PTR [r12]
    3009:	mov    edx,0x6e
    300e:	mov    rsi,r15
    3011:	call   2b40 <bind@plt>
    3016:	test   eax,eax
    3018:	jne    361b <main+0x97b>
    301e:	mov    rdi,rbx
    3021:	call   2800 <strlen@plt>
    3026:	cmp    rax,0x6b
    302a:	ja     360a <main+0x96a>
    3030:	mov    rdi,QWORD PTR [rsp+0x18]
    3035:	lea    rdx,[rax+0x1]
    3039:	mov    ecx,0x6c
    303e:	mov    rsi,rbx
    3041:	call   29f0 <__memcpy_chk@plt>
    3046:	mov    edi,DWORD PTR [r13+0x0]
    304a:	mov    edx,0x6e
    304f:	mov    rsi,r15
    3052:	call   2b40 <bind@plt>
    3057:	test   eax,eax
    3059:	jne    35f9 <main+0x959>
    305f:	mov    esi,0x180
    3064:	mov    rdi,rbp
    3067:	call   2b30 <chmod@plt>
    306c:	test   eax,eax
    306e:	jne    35eb <main+0x94b>
    3074:	mov    esi,0x1b0
    3079:	mov    rdi,rbx
    307c:	call   2b30 <chmod@plt>
    3081:	test   eax,eax
    3083:	jne    35eb <main+0x94b>
    3089:	mov    edi,DWORD PTR [r12]
    308d:	mov    esi,0x1
    3092:	call   2a90 <listen@plt>
    3097:	test   eax,eax
    3099:	jne    35dd <main+0x93d>
    309f:	mov    edi,DWORD PTR [r13+0x0]
    30a3:	mov    esi,0x1
    30a8:	call   2a90 <listen@plt>
    30ad:	test   eax,eax
    30af:	jne    35dd <main+0x93d>
    30b5:	lea    rdi,[rip+0x21323c]        # 2162f8 <reopen_log_pipe>
    30bc:	call   f640 <init_pipe>
    30c1:	call   9d40 <xs_daemon_tdb>
    30c6:	mov    rbx,rax
    30c9:	call   bb70 <talloc_autofree_context>
    30ce:	mov    rsi,rbx
    30d1:	mov    rdi,rax
    30d4:	call   b2f0 <talloc_strdup>
    30d9:	test   rax,rax
    30dc:	mov    rbx,rax
    30df:	je     35cf <main+0x92f>
    30e5:	mov    ebp,DWORD PTR [rip+0x213205]        # 2162f0 <tdb_flags>
    30eb:	test   bpl,0x2
    30ef:	jne    30f9 <main+0x459>
    30f1:	mov    rdi,rax
    30f4:	call   2760 <unlink@plt>
    30f9:	sub    rsp,0x8
    30fd:	lea    r9,[rip+0x158c]        # 4690 <tdb_logger>
    3104:	mov    ecx,0xc2
    3109:	push   0x0
    310b:	mov    edx,ebp
    310d:	mov    r8d,0x1a0
    3113:	mov    esi,0x1eef
    3118:	mov    rdi,rbx
    311b:	call   e6d0 <tdb_open_ex>
    3120:	test   rax,rax
    3123:	mov    QWORD PTR [rip+0x2131b6],rax        # 2162e0 <tdb_ctx>
    312a:	pop    rdx
    312b:	pop    rcx
    312c:	je     35c0 <main+0x920>
    3132:	lea    rsi,[rip+0xca41]        # fb7a <_IO_stdin_used+0x31a>
    3139:	lea    rdi,[rip+0xc853]        # f993 <_IO_stdin_used+0x133>
    3140:	call   5e60 <manual_node>
    3145:	lea    rsi,[rip+0xd8bd]        # 10a09 <__PRETTY_FUNCTION__.11970+0xa9>
    314c:	lea    rdi,[rip+0xca26]        # fb79 <_IO_stdin_used+0x319>
    3153:	call   5e60 <manual_node>
    3158:	lea    rdi,[rip+0xca20]        # fb7f <_IO_stdin_used+0x31f>
    315f:	xor    esi,esi
    3161:	call   5e60 <manual_node>
    3166:	call   5b90 <check_store>
    316b:	cmp    BYTE PTR [rsp+0x8],0x0
    3170:	jne    3177 <main+0x4d7>
    3172:	call   85c0 <domain_init>
    3177:	call   7ec0 <restore_existing_connections>
    317c:	cmp    BYTE PTR [rsp+0x10],0x0
    3181:	je     31aa <main+0x50a>
    3183:	call   27c0 <getpid@plt>
    3188:	lea    rsi,[rip+0xca00]        # fb8f <_IO_stdin_used+0x32f>
    318f:	movsxd rdx,eax
    3192:	mov    edi,0x1
    3197:	xor    eax,eax
    3199:	call   2b10 <__printf_chk@plt>
    319e:	mov    rdi,QWORD PTR [rip+0x2130fb]        # 2162a0 <stdout@@GLIBC_2.2.5>
    31a5:	call   2a60 <fflush@plt>
    31aa:	test   r14b,r14b
    31ad:	je     31b4 <main+0x514>
    31af:	call   f5d0 <finish_daemonize>
    31b4:	lea    rsi,[rip+0x605]        # 37c0 <trigger_reopen_log>
    31bb:	mov    edi,0x1
    31c0:	call   29e0 <signal@plt>
    31c5:	mov    rsi,QWORD PTR [rip+0x21311c]        # 2162e8 <tracefile>
    31cc:	test   rsi,rsi
    31cf:	je     31df <main+0x53f>
    31d1:	xor    edi,edi
    31d3:	call   b2f0 <talloc_strdup>
    31d8:	mov    QWORD PTR [rip+0x213109],rax        # 2162e8 <tracefile>
    31df:	lea    rax,[rsp+0x24]
    31e4:	mov    edx,DWORD PTR [r13+0x0]
    31e8:	mov    edi,DWORD PTR [r12]
    31ec:	lea    r15,[rsp+0x2c]
    31f1:	lea    rcx,[rsp+0x28]
    31f6:	lea    rbp,[rip+0x213063]        # 216260 <connections>
    31fd:	mov    rsi,rax
    3200:	mov    QWORD PTR [rsp+0x8],rax
    3205:	mov    r8,r15
    3208:	mov    QWORD PTR [rsp+0x10],rcx
    320d:	call   3b70 <initialize_fds>
    3212:	call   f7a0 <xenbus_notify_running>
    3217:	lea    rax,[rsp+0x23]
    321c:	mov    QWORD PTR [rsp+0x18],rax
    3221:	nop    DWORD PTR [rax+0x0]
    3228:	mov    esi,DWORD PTR [rip+0x2130d6]        # 216304 <nr_fds>
    322e:	mov    edx,DWORD PTR [rsp+0x2c]
    3232:	mov    rdi,QWORD PTR [rip+0x2130d7]        # 216310 <fds>
    3239:	call   2b20 <poll@plt>
    323e:	test   eax,eax
    3240:	js     3460 <main+0x7c0>
    3246:	movsxd rax,DWORD PTR [rip+0x212dd3]        # 216020 <reopen_log_pipe0_pollfd_idx>
    324d:	cmp    eax,0xffffffff
    3250:	je     327b <main+0x5db>
    3252:	mov    rdx,QWORD PTR [rip+0x2130b7]        # 216310 <fds>
    3259:	movzx  eax,WORD PTR [rdx+rax*8+0x6]
    325e:	test   ax,0xfffe
    3262:	jne    3500 <main+0x860>
    3268:	test   ax,ax
    326b:	jne    3530 <main+0x890>
    3271:	mov    DWORD PTR [rip+0x212da5],0xffffffff        # 216020 <reopen_log_pipe0_pollfd_idx>
    327b:	movsxd rax,DWORD PTR [rsp+0x24]
    3280:	cmp    eax,0xffffffff
    3283:	je     32a4 <main+0x604>
    3285:	mov    rdx,QWORD PTR [rip+0x213084]        # 216310 <fds>
    328c:	movzx  eax,WORD PTR [rdx+rax*8+0x6]
    3291:	test   ax,0xfffe
    3295:	jne    35b2 <main+0x912>
    329b:	test   ax,ax
    329e:	jne    34c8 <main+0x828>
    32a4:	movsxd rax,DWORD PTR [rsp+0x28]
    32a9:	cmp    eax,0xffffffff
    32ac:	je     32cd <main+0x62d>
    32ae:	mov    rdx,QWORD PTR [rip+0x21305b]        # 216310 <fds>
    32b5:	movzx  eax,WORD PTR [rdx+rax*8+0x6]
    32ba:	test   ax,0xfffe
    32be:	jne    35a4 <main+0x904>
    32c4:	test   ax,ax
    32c7:	jne    34e8 <main+0x848>
    32cd:	movsxd rax,DWORD PTR [rip+0x212d58]        # 21602c <xce_pollfd_idx>
    32d4:	cmp    eax,0xffffffff
    32d7:	je     32f8 <main+0x658>
    32d9:	mov    rdx,QWORD PTR [rip+0x213030]        # 216310 <fds>
    32e0:	movzx  eax,WORD PTR [rdx+rax*8+0x6]
    32e5:	test   ax,0xfffe
    32e9:	jne    3596 <main+0x8f6>
    32ef:	test   ax,ax
    32f2:	jne    34b0 <main+0x810>
    32f8:	mov    r14,QWORD PTR [rbp+0x0]
    32fc:	cmp    r14,rbp
    32ff:	je     3418 <main+0x778>
    3305:	mov    rdi,r14
    3308:	call   a200 <talloc_increase_ref_count>
    330d:	jmp    3374 <main+0x6d4>
    330f:	nop
    3310:	mov    rdi,r14
    3313:	call   7aa0 <domain_can_read>
    3318:	test   al,al
    331a:	jne    3440 <main+0x7a0>
    3320:	mov    rdi,r14
    3323:	call   a6a0 <talloc_free>
    3328:	test   eax,eax
    332a:	je     3368 <main+0x6c8>
    332c:	mov    rdi,r14
    332f:	call   a200 <talloc_increase_ref_count>
    3334:	mov    rdi,r14
    3337:	call   7b10 <domain_can_write>
    333c:	test   al,al
    333e:	je     3360 <main+0x6c0>
    3340:	lea    rax,[r14+0x28]
    3344:	cmp    QWORD PTR [r14+0x28],rax
    3348:	je     3360 <main+0x6c0>
    334a:	mov    rdi,r14
    334d:	call   43a0 <write_messages>
    3352:	test   al,al
    3354:	jne    3360 <main+0x6c0>
    3356:	mov    rdi,r14
    3359:	call   a6a0 <talloc_free>
    335e:	xchg   ax,ax
    3360:	mov    rdi,r14
    3363:	call   a6a0 <talloc_free>
    3368:	cmp    rbx,rbp
    336b:	mov    r14,rbx
    336e:	je     3418 <main+0x778>
    3374:	mov    rbx,QWORD PTR [r14]
    3377:	cmp    rbx,rbp
    337a:	je     3384 <main+0x6e4>
    337c:	mov    rdi,rbx
    337f:	call   a200 <talloc_increase_ref_count>
    3384:	cmp    QWORD PTR [r14+0x58],0x0
    3389:	jne    3310 <main+0x670>
    338b:	movsxd rax,DWORD PTR [r14+0x14]
    338f:	cmp    eax,0xffffffff
    3392:	je     33b2 <main+0x712>
    3394:	mov    rcx,QWORD PTR [rip+0x212f75]        # 216310 <fds>
    339b:	movzx  eax,WORD PTR [rcx+rax*8+0x6]
    33a0:	test   ax,0xfffa
    33a4:	jne    3450 <main+0x7b0>
    33aa:	test   al,0x1
    33ac:	jne    3480 <main+0x7e0>
    33b2:	mov    rdi,r14
    33b5:	call   a6a0 <talloc_free>
    33ba:	test   eax,eax
    33bc:	je     3368 <main+0x6c8>
    33be:	mov    rdi,r14
    33c1:	call   a200 <talloc_increase_ref_count>
    33c6:	movsxd rax,DWORD PTR [r14+0x14]
    33ca:	cmp    eax,0xffffffff
    33cd:	je     33ed <main+0x74d>
    33cf:	mov    rcx,QWORD PTR [rip+0x212f3a]        # 216310 <fds>
    33d6:	movzx  eax,WORD PTR [rcx+rax*8+0x6]
    33db:	test   ax,0xfffa
    33df:	jne    34a0 <main+0x800>
    33e5:	test   al,0x4
    33e7:	jne    3490 <main+0x7f0>
    33ed:	mov    rdi,r14
    33f0:	call   a6a0 <talloc_free>
    33f5:	test   eax,eax
    33f7:	je     3368 <main+0x6c8>
    33fd:	cmp    rbx,rbp
    3400:	mov    DWORD PTR [r14+0x14],0xffffffff
    3408:	mov    r14,rbx
    340b:	jne    3374 <main+0x6d4>
    3411:	nop    DWORD PTR [rax+0x0]
    3418:	mov    rcx,QWORD PTR [rsp+0x10]
    341d:	mov    edx,DWORD PTR [r13+0x0]
    3421:	mov    r8,r15
    3424:	mov    rsi,QWORD PTR [rsp+0x8]
    3429:	mov    edi,DWORD PTR [r12]
    342d:	call   3b70 <initialize_fds>
    3432:	jmp    3228 <main+0x588>
    3437:	nop    WORD PTR [rax+rax*1+0x0]
    3440:	mov    rdi,r14
    3443:	call   4c90 <handle_input>
    3448:	jmp    3320 <main+0x680>
    344d:	nop    DWORD PTR [rax]
    3450:	mov    rdi,r14
    3453:	call   a6a0 <talloc_free>
    3458:	jmp    33b2 <main+0x712>
    345d:	nop    DWORD PTR [rax]
    3460:	call   2750 <__errno_location@plt>
    3465:	cmp    DWORD PTR [rax],0x4
    3468:	je     3228 <main+0x588>
    346e:	lea    rdi,[rip+0xc71f]        # fb94 <_IO_stdin_used+0x334>
    3475:	xor    eax,eax
    3477:	call   bf20 <barf_perror>
    347c:	nop    DWORD PTR [rax+0x0]
    3480:	mov    rdi,r14
    3483:	call   4c90 <handle_input>
    3488:	jmp    33b2 <main+0x712>
    348d:	nop    DWORD PTR [rax]
    3490:	mov    rdi,r14
    3493:	call   43a0 <write_messages>
    3498:	test   al,al
    349a:	jne    33ed <main+0x74d>
    34a0:	mov    rdi,r14
    34a3:	call   a6a0 <talloc_free>
    34a8:	jmp    33ed <main+0x74d>
    34ad:	nop    DWORD PTR [rax]
    34b0:	call   7930 <handle_event>
    34b5:	mov    DWORD PTR [rip+0x212b6d],0xffffffff        # 21602c <xce_pollfd_idx>
    34bf:	jmp    32f8 <main+0x658>
    34c4:	nop    DWORD PTR [rax+0x0]
    34c8:	mov    edi,DWORD PTR [r12]
    34cc:	mov    esi,0x1
    34d1:	call   5190 <accept_connection>
    34d6:	mov    DWORD PTR [rsp+0x24],0xffffffff
    34de:	jmp    32a4 <main+0x604>
    34e3:	nop    DWORD PTR [rax+rax*1+0x0]
    34e8:	mov    edi,DWORD PTR [r13+0x0]
    34ec:	xor    esi,esi
    34ee:	call   5190 <accept_connection>
    34f3:	mov    DWORD PTR [rsp+0x28],0xffffffff
    34fb:	jmp    32cd <main+0x62d>
    3500:	mov    edi,DWORD PTR [rip+0x212df2]        # 2162f8 <reopen_log_pipe>
    3506:	call   2930 <close@plt>
    350b:	mov    edi,DWORD PTR [rip+0x212deb]        # 2162fc <reopen_log_pipe+0x4>
    3511:	call   2930 <close@plt>
    3516:	lea    rdi,[rip+0x212ddb]        # 2162f8 <reopen_log_pipe>
    351d:	call   f640 <init_pipe>
    3522:	jmp    3271 <main+0x5d1>
    3527:	nop    WORD PTR [rax+rax*1+0x0]
    3530:	mov    rsi,QWORD PTR [rsp+0x18]
    3535:	mov    edi,DWORD PTR [rip+0x212dbd]        # 2162f8 <reopen_log_pipe>
    353b:	mov    edx,0x1
    3540:	call   2980 <read@plt>
    3545:	cmp    rax,0x1
    3549:	jne    3588 <main+0x8e8>
    354b:	call   4930 <reopen_log>
    3550:	jmp    3271 <main+0x5d1>
    3555:	lea    rdi,[rip+0xd4ad]        # 10a09 <__PRETTY_FUNCTION__.11970+0xa9>
    355c:	xor    esi,esi
    355e:	mov    edx,0x18
    3563:	call   2be0 <openlog@plt>
    3568:	call   f560 <daemonize>
    356d:	test   rbx,rbx
    3570:	je     2ef1 <main+0x251>
    3576:	mov    rdi,rbx
    3579:	call   f480 <write_pidfile>
    357e:	jmp    2ef1 <main+0x251>
    3583:	call   2820 <__stack_chk_fail@plt>
    3588:	lea    rdi,[rip+0xc611]        # fba0 <_IO_stdin_used+0x340>
    358f:	xor    eax,eax
    3591:	call   bf20 <barf_perror>
    3596:	lea    rdi,[rip+0xc623]        # fbc0 <_IO_stdin_used+0x360>
    359d:	xor    eax,eax
    359f:	call   bf20 <barf_perror>
    35a4:	lea    rdi,[rip+0xc601]        # fbac <_IO_stdin_used+0x34c>
    35ab:	xor    eax,eax
    35ad:	call   bf20 <barf_perror>
    35b2:	lea    rdi,[rip+0xc5f6]        # fbaf <_IO_stdin_used+0x34f>
    35b9:	xor    eax,eax
    35bb:	call   bf20 <barf_perror>
    35c0:	lea    rdi,[rip+0xc595]        # fb5c <_IO_stdin_used+0x2fc>
    35c7:	mov    rsi,rbx
    35ca:	call   bf20 <barf_perror>
    35cf:	lea    rdi,[rip+0xc56d]        # fb43 <_IO_stdin_used+0x2e3>
    35d6:	xor    eax,eax
    35d8:	call   bf20 <barf_perror>
    35dd:	lea    rdi,[rip+0xc543]        # fb27 <_IO_stdin_used+0x2c7>
    35e4:	xor    eax,eax
    35e6:	call   bf20 <barf_perror>
    35eb:	lea    rdi,[rip+0xc51d]        # fb0f <_IO_stdin_used+0x2af>
    35f2:	xor    eax,eax
    35f4:	call   bf20 <barf_perror>
    35f9:	lea    rdi,[rip+0xc4f3]        # faf3 <_IO_stdin_used+0x293>
    3600:	mov    rsi,rbx
    3603:	xor    eax,eax
    3605:	call   bf20 <barf_perror>
    360a:	lea    rdi,[rip+0xc4c6]        # fad7 <_IO_stdin_used+0x277>
    3611:	mov    rsi,rbx
    3614:	xor    eax,eax
    3616:	call   bf20 <barf_perror>
    361b:	lea    rdi,[rip+0xc4d1]        # faf3 <_IO_stdin_used+0x293>
    3622:	mov    rsi,rbp
    3625:	xor    eax,eax
    3627:	call   bf20 <barf_perror>
    362c:	lea    rdi,[rip+0xc4a4]        # fad7 <_IO_stdin_used+0x277>
    3633:	mov    rsi,rbp
    3636:	xor    eax,eax
    3638:	call   bf20 <barf_perror>
    363d:	lea    rdi,[rip+0xc47b]        # fabf <_IO_stdin_used+0x25f>
    3644:	xor    eax,eax
    3646:	call   bf20 <barf_perror>
    364b:	lea    rdi,[rip+0xcdee]        # 10440 <_IO_stdin_used+0xbe0>
    3652:	xor    eax,eax
    3654:	call   bf20 <barf_perror>
    3659:	mov    rsi,QWORD PTR [rbp+0x0]
    365d:	lea    rdi,[rip+0xc442]        # faa6 <_IO_stdin_used+0x246>
    3664:	xor    eax,eax
    3666:	call   be30 <barf>
    366b:	nop    DWORD PTR [rax+rax*1+0x0]

0000000000003670 <_start>:
    3670:	xor    ebp,ebp
    3672:	mov    r9,rdx
    3675:	pop    rsi
    3676:	mov    rdx,rsp
    3679:	and    rsp,0xfffffffffffffff0
    367d:	push   rax
    367e:	push   rsp
    367f:	lea    r8,[rip+0xc19a]        # f820 <__libc_csu_fini>
    3686:	lea    rcx,[rip+0xc123]        # f7b0 <__libc_csu_init>
    368d:	lea    rdi,[rip+0xfffffffffffff60c]        # 2ca0 <main>
    3694:	call   QWORD PTR [rip+0x212946]        # 215fe0 <__libc_start_main@GLIBC_2.2.5>
    369a:	hlt    
    369b:	nop    DWORD PTR [rax+rax*1+0x0]

00000000000036a0 <deregister_tm_clones>:
    36a0:	lea    rdi,[rip+0x212be1]        # 216288 <__TMC_END__>
    36a7:	push   rbp
    36a8:	lea    rax,[rip+0x212bd9]        # 216288 <__TMC_END__>
    36af:	cmp    rax,rdi
    36b2:	mov    rbp,rsp
    36b5:	je     36d0 <deregister_tm_clones+0x30>
    36b7:	mov    rax,QWORD PTR [rip+0x21291a]        # 215fd8 <_ITM_deregisterTMCloneTable>
    36be:	test   rax,rax
    36c1:	je     36d0 <deregister_tm_clones+0x30>
    36c3:	pop    rbp
    36c4:	jmp    rax
    36c6:	nop    WORD PTR cs:[rax+rax*1+0x0]
    36d0:	pop    rbp
    36d1:	ret    
    36d2:	nop    DWORD PTR [rax+0x0]
    36d6:	nop    WORD PTR cs:[rax+rax*1+0x0]

00000000000036e0 <register_tm_clones>:
    36e0:	lea    rdi,[rip+0x212ba1]        # 216288 <__TMC_END__>
    36e7:	lea    rsi,[rip+0x212b9a]        # 216288 <__TMC_END__>
    36ee:	push   rbp
    36ef:	sub    rsi,rdi
    36f2:	mov    rbp,rsp
    36f5:	sar    rsi,0x3
    36f9:	mov    rax,rsi
    36fc:	shr    rax,0x3f
    3700:	add    rsi,rax
    3703:	sar    rsi,1
    3706:	je     3720 <register_tm_clones+0x40>
    3708:	mov    rax,QWORD PTR [rip+0x2128e1]        # 215ff0 <_ITM_registerTMCloneTable>
    370f:	test   rax,rax
    3712:	je     3720 <register_tm_clones+0x40>
    3714:	pop    rbp
    3715:	jmp    rax
    3717:	nop    WORD PTR [rax+rax*1+0x0]
    3720:	pop    rbp
    3721:	ret    
    3722:	nop    DWORD PTR [rax+0x0]
    3726:	nop    WORD PTR cs:[rax+rax*1+0x0]

0000000000003730 <__do_global_dtors_aux>:
    3730:	cmp    BYTE PTR [rip+0x212b91],0x0        # 2162c8 <completed.7697>
    3737:	jne    3768 <__do_global_dtors_aux+0x38>
    3739:	cmp    QWORD PTR [rip+0x2128b7],0x0        # 215ff8 <__cxa_finalize@GLIBC_2.2.5>
    3741:	push   rbp
    3742:	mov    rbp,rsp
    3745:	je     3753 <__do_global_dtors_aux+0x23>
    3747:	mov    rdi,QWORD PTR [rip+0x2128ba]        # 216008 <__dso_handle>
    374e:	call   2c90 <__cxa_finalize@plt>
    3753:	call   36a0 <deregister_tm_clones>
    3758:	mov    BYTE PTR [rip+0x212b69],0x1        # 2162c8 <completed.7697>
    375f:	pop    rbp
    3760:	ret    
    3761:	nop    DWORD PTR [rax+0x0]
    3768:	repz ret 
    376a:	nop    WORD PTR [rax+rax*1+0x0]

0000000000003770 <frame_dummy>:
    3770:	push   rbp
    3771:	mov    rbp,rsp
    3774:	pop    rbp
    3775:	jmp    36e0 <register_tm_clones>
    377a:	nop    WORD PTR [rax+rax*1+0x0]

0000000000003780 <hash_from_key_fn>:
    3780:	movsx  edx,BYTE PTR [rdi]
    3783:	lea    rsi,[rdi+0x1]
    3787:	mov    eax,0x1505
    378c:	test   dl,dl
    378e:	je     37b0 <hash_from_key_fn+0x30>
    3790:	mov    ecx,eax
    3792:	add    rsi,0x1
    3796:	shl    ecx,0x5
    3799:	add    edx,ecx
    379b:	add    eax,edx
    379d:	movsx  edx,BYTE PTR [rsi-0x1]
    37a1:	test   dl,dl
    37a3:	jne    3790 <hash_from_key_fn+0x10>
    37a5:	repz ret 
    37a7:	nop    WORD PTR [rax+rax*1+0x0]
    37b0:	repz ret 
    37b2:	nop    DWORD PTR [rax+0x0]
    37b6:	nop    WORD PTR cs:[rax+rax*1+0x0]

00000000000037c0 <trigger_reopen_log>:
    37c0:	sub    rsp,0x18
    37c4:	mov    edi,DWORD PTR [rip+0x212b32]        # 2162fc <reopen_log_pipe+0x4>
    37ca:	mov    edx,0x1
    37cf:	lea    rsi,[rsp+0x7]
    37d4:	mov    BYTE PTR [rsp+0x7],0x41
    37d9:	mov    rax,QWORD PTR fs:0x28
    37e2:	mov    QWORD PTR [rsp+0x8],rax
    37e7:	xor    eax,eax
    37e9:	call   27b0 <write@plt>
    37ee:	mov    rax,QWORD PTR [rsp+0x8]
    37f3:	xor    rax,QWORD PTR fs:0x28
    37fc:	jne    3803 <trigger_reopen_log+0x43>
    37fe:	add    rsp,0x18
    3802:	ret    
    3803:	call   2820 <__stack_chk_fail@plt>
    3808:	nop    DWORD PTR [rax+rax*1+0x0]

0000000000003810 <destroy_fd>:
    3810:	sub    rsp,0x8
    3814:	mov    edi,DWORD PTR [rdi]
    3816:	call   2930 <close@plt>
    381b:	xor    eax,eax
    381d:	add    rsp,0x8
    3821:	ret    
    3822:	nop    DWORD PTR [rax+0x0]
    3826:	nop    WORD PTR cs:[rax+rax*1+0x0]

0000000000003830 <perm_for_conn>:
    3830:	push   r13
    3832:	push   r12
    3834:	mov    r13,rsi
    3837:	push   rbp
    3838:	push   rbx
    3839:	mov    rbp,rdi
    383c:	mov    r12d,edx
    383f:	sub    rsp,0x8
    3843:	cmp    BYTE PTR [rdi+0x1c],0x1
    3847:	sbb    ebx,ebx
    3849:	and    ebx,0xfffffffe
    384c:	add    ebx,0xb
    384f:	call   7ae0 <domain_is_unprivileged>
    3854:	test   al,al
    3856:	je     38b6 <perm_for_conn+0x86>
    3858:	mov    eax,DWORD PTR [r13+0x0]
    385c:	mov    r8d,DWORD PTR [rbp+0x18]
    3860:	cmp    eax,r8d
    3863:	je     38b6 <perm_for_conn+0x86>
    3865:	mov    rdi,QWORD PTR [rbp+0x60]
    3869:	test   rdi,rdi
    386c:	je     3873 <perm_for_conn+0x43>
    386e:	cmp    eax,DWORD PTR [rdi+0x18]
    3871:	je     38b6 <perm_for_conn+0x86>
    3873:	cmp    r12d,0x1
    3877:	jbe    38b2 <perm_for_conn+0x82>
    3879:	mov    ecx,DWORD PTR [r13+0x8]
    387d:	lea    rax,[r13+0x8]
    3881:	cmp    r8d,ecx
    3884:	je     38c8 <perm_for_conn+0x98>
    3886:	lea    edx,[r12-0x2]
    388b:	lea    rdx,[r13+rdx*8+0x8]
    3890:	jmp    38a3 <perm_for_conn+0x73>
    3892:	nop    WORD PTR [rax+rax*1+0x0]
    3898:	add    rax,0x8
    389c:	mov    ecx,DWORD PTR [rax]
    389e:	cmp    r8d,ecx
    38a1:	je     38c8 <perm_for_conn+0x98>
    38a3:	test   rdi,rdi
    38a6:	je     38ad <perm_for_conn+0x7d>
    38a8:	cmp    DWORD PTR [rdi+0x18],ecx
    38ab:	je     38c8 <perm_for_conn+0x98>
    38ad:	cmp    rax,rdx
    38b0:	jne    3898 <perm_for_conn+0x68>
    38b2:	and    ebx,DWORD PTR [r13+0x4]
    38b6:	add    rsp,0x8
    38ba:	mov    eax,ebx
    38bc:	pop    rbx
    38bd:	pop    rbp
    38be:	pop    r12
    38c0:	pop    r13
    38c2:	ret    
    38c3:	nop    DWORD PTR [rax+rax*1+0x0]
    38c8:	and    ebx,DWORD PTR [rax+0x4]
    38cb:	add    rsp,0x8
    38cf:	mov    eax,ebx
    38d1:	pop    rbx
    38d2:	pop    rbp
    38d3:	pop    r12
    38d5:	pop    r13
    38d7:	ret    
    38d8:	nop    DWORD PTR [rax+rax*1+0x0]

00000000000038e0 <writefd>:
    38e0:	push   r13
    38e2:	push   r12
    38e4:	mov    r13,rdi
    38e7:	push   rbp
    38e8:	push   rbx
    38e9:	mov    r12,rsi
    38ec:	mov    ebx,edx
    38ee:	sub    rsp,0x8
    38f2:	jmp    3909 <writefd+0x29>
    38f4:	nop    DWORD PTR [rax+0x0]
    38f8:	call   2750 <__errno_location@plt>
    38fd:	mov    eax,DWORD PTR [rax]
    38ff:	cmp    eax,0xb
    3902:	je     3930 <writefd+0x50>
    3904:	cmp    eax,0x4
    3907:	jne    391e <writefd+0x3e>
    3909:	mov    edi,DWORD PTR [r13+0x10]
    390d:	mov    rdx,rbx
    3910:	mov    rsi,r12
    3913:	call   27b0 <write@plt>
    3918:	test   eax,eax
    391a:	mov    ebp,eax
    391c:	js     38f8 <writefd+0x18>
    391e:	add    rsp,0x8
    3922:	mov    eax,ebp
    3924:	pop    rbx
    3925:	pop    rbp
    3926:	pop    r12
    3928:	pop    r13
    392a:	ret    
    392b:	nop    DWORD PTR [rax+rax*1+0x0]
    3930:	add    rsp,0x8
    3934:	xor    ebp,ebp
    3936:	pop    rbx
    3937:	mov    eax,ebp
    3939:	pop    rbp
    393a:	pop    r12
    393c:	pop    r13
    393e:	ret    
    393f:	nop

0000000000003940 <keys_equal_fn>:
    3940:	sub    rsp,0x8
    3944:	call   29c0 <strcmp@plt>
    3949:	test   eax,eax
    394b:	sete   al
    394e:	add    rsp,0x8
    3952:	movzx  eax,al
    3955:	ret    
    3956:	nop    WORD PTR cs:[rax+rax*1+0x0]

0000000000003960 <readfd>:
    3960:	push   r14
    3962:	push   r13
    3964:	mov    r13,rdi
    3967:	push   r12
    3969:	push   rbp
    396a:	mov    ebp,edx
    396c:	push   rbx
    396d:	mov    r12,rsi
    3970:	mov    r14,rbp
    3973:	jmp    3989 <readfd+0x29>
    3975:	nop    DWORD PTR [rax]
    3978:	call   2750 <__errno_location@plt>
    397d:	mov    eax,DWORD PTR [rax]
    397f:	cmp    eax,0xb
    3982:	je     39c0 <readfd+0x60>
    3984:	cmp    eax,0x4
    3987:	jne    39ac <readfd+0x4c>
    3989:	mov    edi,DWORD PTR [r13+0x10]
    398d:	mov    rdx,rbp
    3990:	mov    rsi,r12
    3993:	call   2980 <read@plt>
    3998:	test   eax,eax
    399a:	mov    ebx,eax
    399c:	js     3978 <readfd+0x18>
    399e:	test   eax,eax
    39a0:	sete   al
    39a3:	test   r14d,r14d
    39a6:	je     39ac <readfd+0x4c>
    39a8:	test   al,al
    39aa:	jne    39c9 <readfd+0x69>
    39ac:	mov    eax,ebx
    39ae:	pop    rbx
    39af:	pop    rbp
    39b0:	pop    r12
    39b2:	pop    r13
    39b4:	pop    r14
    39b6:	ret    
    39b7:	nop    WORD PTR [rax+rax*1+0x0]
    39c0:	mov    eax,0x1
    39c5:	xor    ebx,ebx
    39c7:	jmp    39a3 <readfd+0x43>
    39c9:	call   2750 <__errno_location@plt>
    39ce:	mov    ebx,0xffffffff
    39d3:	mov    DWORD PTR [rax],0x9
    39d9:	jmp    39ac <readfd+0x4c>
    39db:	nop    DWORD PTR [rax+rax*1+0x0]

00000000000039e0 <get_parent>:
    39e0:	push   rbp
    39e1:	push   rbx
    39e2:	mov    rbp,rdi
    39e5:	lea    rdi,[rsi+0x1]
    39e9:	mov    rbx,rsi
    39ec:	mov    esi,0x2f
    39f1:	sub    rsp,0x8
    39f5:	call   2890 <strrchr@plt>
    39fa:	test   rax,rax
    39fd:	je     3a38 <get_parent+0x58>
    39ff:	sub    rax,rbx
    3a02:	lea    rsi,[rip+0xbe5b]        # f864 <_IO_stdin_used+0x4>
    3a09:	mov    rcx,rbx
    3a0c:	mov    edx,eax
    3a0e:	mov    rdi,rbp
    3a11:	xor    eax,eax
    3a13:	call   b950 <talloc_asprintf>
    3a18:	mov    rbx,rax
    3a1b:	test   rbx,rbx
    3a1e:	jne    3a2b <get_parent+0x4b>
    3a20:	call   2750 <__errno_location@plt>
    3a25:	mov    DWORD PTR [rax],0xc
    3a2b:	add    rsp,0x8
    3a2f:	mov    rax,rbx
    3a32:	pop    rbx
    3a33:	pop    rbp
    3a34:	ret    
    3a35:	nop    DWORD PTR [rax]
    3a38:	lea    rsi,[rip+0xbf54]        # f993 <_IO_stdin_used+0x133>
    3a3f:	mov    rdi,rbp
    3a42:	call   b2f0 <talloc_strdup>
    3a47:	mov    rbx,rax
    3a4a:	jmp    3a1b <get_parent+0x3b>
    3a4c:	nop    DWORD PTR [rax+0x0]

0000000000003a50 <get_string.isra.1>:
    3a50:	push   rbp
    3a51:	push   rbx
    3a52:	xor    ebx,ebx
    3a54:	sub    rsp,0x8
    3a58:	cmp    edx,edi
    3a5a:	jae    3a81 <get_string.isra.1+0x31>
    3a5c:	mov    ebp,edx
    3a5e:	add    rbp,QWORD PTR [rsi]
    3a61:	mov    eax,edi
    3a63:	sub    eax,edx
    3a65:	xor    esi,esi
    3a67:	mov    rdx,rax
    3a6a:	mov    rdi,rbp
    3a6d:	call   2970 <memchr@plt>
    3a72:	mov    rdx,rax
    3a75:	sub    rdx,rbp
    3a78:	add    edx,0x1
    3a7b:	test   rax,rax
    3a7e:	cmovne ebx,edx
    3a81:	add    rsp,0x8
    3a85:	mov    eax,ebx
    3a87:	pop    rbx
    3a88:	pop    rbp
    3a89:	ret    
    3a8a:	nop    WORD PTR [rax+rax*1+0x0]

0000000000003a90 <set_fd>:
    3a90:	push   r15
    3a92:	push   r14
    3a94:	mov    r15d,edi
    3a97:	push   r13
    3a99:	push   r12
    3a9b:	mov    ecx,esi
    3a9d:	push   rbp
    3a9e:	push   rbx
    3a9f:	sub    rsp,0x18
    3aa3:	mov    ebx,DWORD PTR [rip+0x21285b]        # 216304 <nr_fds>
    3aa9:	mov    r12d,DWORD PTR [rip+0x212858]        # 216308 <current_array_size>
    3ab0:	mov    rbp,QWORD PTR [rip+0x212859]        # 216310 <fds>
    3ab7:	lea    r13d,[rbx+0x1]
    3abb:	cmp    r13d,r12d
    3abe:	ja     3af0 <set_fd+0x60>
    3ac0:	mov    eax,ebx
    3ac2:	mov    DWORD PTR [rip+0x21283b],r13d        # 216304 <nr_fds>
    3ac9:	lea    rax,[rbp+rax*8+0x0]
    3ace:	mov    DWORD PTR [rax],r15d
    3ad1:	mov    WORD PTR [rax+0x4],cx
    3ad5:	mov    eax,ebx
    3ad7:	add    rsp,0x18
    3adb:	pop    rbx
    3adc:	pop    rbp
    3add:	pop    r12
    3adf:	pop    r13
    3ae1:	pop    r14
    3ae3:	pop    r15
    3ae5:	ret    
    3ae6:	nop    WORD PTR cs:[rax+rax*1+0x0]
    3af0:	mov    r14d,r13d
    3af3:	mov    DWORD PTR [rsp+0xc],esi
    3af7:	mov    rdi,rbp
    3afa:	add    r14,0xff
    3b01:	xor    r14b,r14b
    3b04:	lea    rsi,[r14*8+0x0]
    3b0c:	call   2ad0 <realloc@plt>
    3b11:	test   rax,rax
    3b14:	mov    rbp,rax
    3b17:	je     3b45 <set_fd+0xb5>
    3b19:	mov    rdx,r14
    3b1c:	lea    rdi,[rax+r12*8]
    3b20:	xor    esi,esi
    3b22:	sub    rdx,r12
    3b25:	mov    QWORD PTR [rip+0x2127e4],rax        # 216310 <fds>
    3b2c:	shl    rdx,0x3
    3b30:	call   2920 <memset@plt>
    3b35:	mov    DWORD PTR [rip+0x2127cc],r14d        # 216308 <current_array_size>
    3b3c:	mov    ecx,DWORD PTR [rsp+0xc]
    3b40:	jmp    3ac0 <set_fd+0x30>
    3b45:	lea    rdx,[rip+0xc25c]        # fda8 <_IO_stdin_used+0x548>
    3b4c:	xor    eax,eax
    3b4e:	mov    ecx,r15d
    3b51:	mov    esi,0x1
    3b56:	mov    edi,0x3
    3b5b:	call   2b60 <__syslog_chk@plt>
    3b60:	mov    eax,0xffffffff
    3b65:	jmp    3ad7 <set_fd+0x47>
    3b6a:	nop    WORD PTR [rax+rax*1+0x0]

0000000000003b70 <initialize_fds>:
    3b70:	push   r14
    3b72:	push   r13
    3b74:	mov    r14,rsi
    3b77:	push   r12
    3b79:	push   rbp
    3b7a:	mov    ebp,edi
    3b7c:	push   rbx
    3b7d:	mov    r13,rcx
    3b80:	mov    ebx,edx
    3b82:	mov    r12,r8
    3b85:	sub    rsp,0x20
    3b89:	mov    rdi,QWORD PTR [rip+0x212780]        # 216310 <fds>
    3b90:	mov    rax,QWORD PTR fs:0x28
    3b99:	mov    QWORD PTR [rsp+0x18],rax
    3b9e:	xor    eax,eax
    3ba0:	test   rdi,rdi
    3ba3:	je     3bb6 <initialize_fds+0x46>
    3ba5:	mov    edx,DWORD PTR [rip+0x21275d]        # 216308 <current_array_size>
    3bab:	xor    esi,esi
    3bad:	shl    rdx,0x3
    3bb1:	call   2920 <memset@plt>
    3bb6:	cmp    ebp,0xffffffff
    3bb9:	mov    DWORD PTR [rip+0x212741],0x0        # 216304 <nr_fds>
    3bc3:	mov    DWORD PTR [r12],0xffffffff
    3bcb:	je     3bdc <initialize_fds+0x6c>
    3bcd:	mov    esi,0x3
    3bd2:	mov    edi,ebp
    3bd4:	call   3a90 <set_fd>
    3bd9:	mov    DWORD PTR [r14],eax
    3bdc:	cmp    ebx,0xffffffff
    3bdf:	je     3bf1 <initialize_fds+0x81>
    3be1:	mov    esi,0x3
    3be6:	mov    edi,ebx
    3be8:	call   3a90 <set_fd>
    3bed:	mov    DWORD PTR [r13+0x0],eax
    3bf1:	mov    edi,DWORD PTR [rip+0x212701]        # 2162f8 <reopen_log_pipe>
    3bf7:	cmp    edi,0xffffffff
    3bfa:	je     3c0c <initialize_fds+0x9c>
    3bfc:	mov    esi,0x3
    3c01:	call   3a90 <set_fd>
    3c06:	mov    DWORD PTR [rip+0x212414],eax        # 216020 <reopen_log_pipe0_pollfd_idx>
    3c0c:	mov    rdi,QWORD PTR [rip+0x212705]        # 216318 <xce_handle>
    3c13:	test   rdi,rdi
    3c16:	je     3c2f <initialize_fds+0xbf>
    3c18:	call   2ab0 <xenevtchn_fd@plt>
    3c1d:	mov    esi,0x3
    3c22:	mov    edi,eax
    3c24:	call   3a90 <set_fd>
    3c29:	mov    DWORD PTR [rip+0x2123fd],eax        # 21602c <xce_pollfd_idx>
    3c2f:	mov    rdi,rsp
    3c32:	lea    rbp,[rip+0x212627]        # 216260 <connections>
    3c39:	call   80d0 <wrl_gettime_now>
    3c3e:	mov    rdi,QWORD PTR [rsp]
    3c42:	mov    rsi,QWORD PTR [rsp+0x8]
    3c47:	call   8a50 <wrl_log_periodic>
    3c4c:	mov    rbx,QWORD PTR [rip+0x21260d]        # 216260 <connections>
    3c53:	cmp    rbx,rbp
    3c56:	jne    3c8d <initialize_fds+0x11d>
    3c58:	jmp    3cbe <initialize_fds+0x14e>
    3c5a:	nop    WORD PTR [rax+rax*1+0x0]
    3c60:	mov    rsi,QWORD PTR [rsp]
    3c64:	mov    rdx,QWORD PTR [rsp+0x8]
    3c69:	mov    rcx,r12
    3c6c:	call   8990 <wrl_check_timeout>
    3c71:	mov    rdi,rbx
    3c74:	call   7aa0 <domain_can_read>
    3c79:	test   al,al
    3c7b:	je     3ce0 <initialize_fds+0x170>
    3c7d:	mov    DWORD PTR [r12],0x0
    3c85:	mov    rbx,QWORD PTR [rbx]
    3c88:	cmp    rbx,rbp
    3c8b:	je     3cbe <initialize_fds+0x14e>
    3c8d:	mov    rdi,QWORD PTR [rbx+0x58]
    3c91:	test   rdi,rdi
    3c94:	jne    3c60 <initialize_fds+0xf0>
    3c96:	lea    rax,[rbx+0x28]
    3c9a:	xor    esi,esi
    3c9c:	cmp    QWORD PTR [rbx+0x28],rax
    3ca0:	mov    edi,DWORD PTR [rbx+0x10]
    3ca3:	setne  sil
    3ca7:	lea    esi,[rsi*4+0x3]
    3cae:	call   3a90 <set_fd>
    3cb3:	mov    DWORD PTR [rbx+0x14],eax
    3cb6:	mov    rbx,QWORD PTR [rbx]
    3cb9:	cmp    rbx,rbp
    3cbc:	jne    3c8d <initialize_fds+0x11d>
    3cbe:	mov    rax,QWORD PTR [rsp+0x18]
    3cc3:	xor    rax,QWORD PTR fs:0x28
    3ccc:	jne    3cf8 <initialize_fds+0x188>
    3cce:	add    rsp,0x20
    3cd2:	pop    rbx
    3cd3:	pop    rbp
    3cd4:	pop    r12
    3cd6:	pop    r13
    3cd8:	pop    r14
    3cda:	ret    
    3cdb:	nop    DWORD PTR [rax+rax*1+0x0]
    3ce0:	mov    rdi,rbx
    3ce3:	call   7b10 <domain_can_write>
    3ce8:	test   al,al
    3cea:	je     3c85 <initialize_fds+0x115>
    3cec:	lea    rax,[rbx+0x28]
    3cf0:	cmp    QWORD PTR [rbx+0x28],rax
    3cf4:	jne    3c7d <initialize_fds+0x10d>
    3cf6:	jmp    3c85 <initialize_fds+0x115>
    3cf8:	call   2820 <__stack_chk_fail@plt>
    3cfd:	nop    DWORD PTR [rax]

0000000000003d00 <trace>:
    3d00:	push   r12
    3d02:	push   rbp
    3d03:	push   rbx
    3d04:	mov    rbx,rdi
    3d07:	sub    rsp,0x4e0
    3d0e:	test   al,al
    3d10:	mov    QWORD PTR [rsp+0x438],rsi
    3d18:	mov    QWORD PTR [rsp+0x440],rdx
    3d20:	mov    QWORD PTR [rsp+0x448],rcx
    3d28:	mov    QWORD PTR [rsp+0x450],r8
    3d30:	mov    QWORD PTR [rsp+0x458],r9
    3d38:	je     3d7a <trace+0x7a>
    3d3a:	movaps XMMWORD PTR [rsp+0x460],xmm0
    3d42:	movaps XMMWORD PTR [rsp+0x470],xmm1
    3d4a:	movaps XMMWORD PTR [rsp+0x480],xmm2
    3d52:	movaps XMMWORD PTR [rsp+0x490],xmm3
    3d5a:	movaps XMMWORD PTR [rsp+0x4a0],xmm4
    3d62:	movaps XMMWORD PTR [rsp+0x4b0],xmm5
    3d6a:	movaps XMMWORD PTR [rsp+0x4c0],xmm6
    3d72:	movaps XMMWORD PTR [rsp+0x4d0],xmm7
    3d7a:	mov    rax,QWORD PTR fs:0x28
    3d83:	mov    QWORD PTR [rsp+0x428],rax
    3d8b:	xor    eax,eax
    3d8d:	mov    eax,DWORD PTR [rip+0x212295]        # 216028 <tracefd>
    3d93:	test   eax,eax
    3d95:	jns    3dc0 <trace+0xc0>
    3d97:	mov    rax,QWORD PTR [rsp+0x428]
    3d9f:	xor    rax,QWORD PTR fs:0x28
    3da8:	jne    3e99 <trace+0x199>
    3dae:	add    rsp,0x4e0
    3db5:	pop    rbx
    3db6:	pop    rbp
    3db7:	pop    r12
    3db9:	ret    
    3dba:	nop    WORD PTR [rax+rax*1+0x0]
    3dc0:	lea    rax,[rsp+0x500]
    3dc8:	lea    rbp,[rsp+0x8]
    3dcd:	lea    r12,[rsp+0x20]
    3dd2:	mov    r8,rbx
    3dd5:	mov    ecx,0x400
    3dda:	mov    edx,0x1
    3ddf:	mov    QWORD PTR [rsp+0x10],rax
    3de4:	lea    rax,[rsp+0x430]
    3dec:	mov    r9,rbp
    3def:	mov    esi,0x400
    3df4:	mov    rdi,r12
    3df7:	mov    DWORD PTR [rsp+0x8],0x8
    3dff:	mov    DWORD PTR [rsp+0xc],0x30
    3e07:	mov    QWORD PTR [rsp+0x18],rax
    3e0c:	call   2ac0 <__vsnprintf_chk@plt>
    3e11:	cmp    eax,0x400
    3e16:	jg     3e30 <trace+0x130>
    3e18:	mov    edi,DWORD PTR [rip+0x21220a]        # 216028 <tracefd>
    3e1e:	movsxd rdx,eax
    3e21:	mov    rsi,r12
    3e24:	call   27b0 <write@plt>
    3e29:	jmp    3d97 <trace+0x97>
    3e2e:	xchg   ax,ax
    3e30:	lea    rax,[rsp+0x500]
    3e38:	mov    rsi,rbx
    3e3b:	xor    edi,edi
    3e3d:	mov    rdx,rbp
    3e40:	mov    DWORD PTR [rsp+0x8],0x8
    3e48:	mov    DWORD PTR [rsp+0xc],0x30
    3e50:	mov    QWORD PTR [rsp+0x10],rax
    3e55:	lea    rax,[rsp+0x430]
    3e5d:	mov    QWORD PTR [rsp+0x18],rax
    3e62:	call   b460 <talloc_vasprintf>
    3e67:	test   rax,rax
    3e6a:	mov    rbx,rax
    3e6d:	je     3d97 <trace+0x97>
    3e73:	mov    rdi,rax
    3e76:	call   2800 <strlen@plt>
    3e7b:	mov    edi,DWORD PTR [rip+0x2121a7]        # 216028 <tracefd>
    3e81:	mov    rdx,rax
    3e84:	mov    rsi,rbx
    3e87:	call   27b0 <write@plt>
    3e8c:	mov    rdi,rbx
    3e8f:	call   a6a0 <talloc_free>
    3e94:	jmp    3d97 <trace+0x97>
    3e99:	call   2820 <__stack_chk_fail@plt>
    3e9e:	xchg   ax,ax

0000000000003ea0 <read_node>:
    3ea0:	push   r13
    3ea2:	push   r12
    3ea4:	mov    r12,rdi
    3ea7:	push   rbp
    3ea8:	push   rbx
    3ea9:	mov    rbp,rdx
    3eac:	lea    rdx,[rip+0xb9b6]        # f869 <_IO_stdin_used+0x9>
    3eb3:	mov    rdi,rsi
    3eb6:	mov    esi,0x48
    3ebb:	sub    rsp,0x28
    3ebf:	mov    rax,QWORD PTR fs:0x28
    3ec8:	mov    QWORD PTR [rsp+0x18],rax
    3ecd:	xor    eax,eax
    3ecf:	call   a240 <talloc_named_const>
    3ed4:	test   rax,rax
    3ed7:	mov    rbx,rax
    3eda:	je     3fb0 <read_node+0x110>
    3ee0:	mov    rsi,rbp
    3ee3:	mov    rdi,rax
    3ee6:	call   b2f0 <talloc_strdup>
    3eeb:	test   rax,rax
    3eee:	mov    QWORD PTR [rbx],rax
    3ef1:	je     3fc0 <read_node+0x120>
    3ef7:	mov    rdx,rsp
    3efa:	mov    rsi,rbp
    3efd:	mov    rdi,r12
    3f00:	call   8c30 <transaction_prepend>
    3f05:	test   eax,eax
    3f07:	jne    3fa8 <read_node+0x108>
    3f0d:	mov    rsi,QWORD PTR [rsp]
    3f11:	mov    rdx,QWORD PTR [rsp+0x8]
    3f16:	mov    rdi,QWORD PTR [rip+0x2123c3]        # 2162e0 <tdb_ctx>
    3f1d:	call   d9f0 <tdb_fetch>
    3f22:	test   rax,rax
    3f25:	mov    rbp,rax
    3f28:	je     3fe0 <read_node+0x140>
    3f2e:	mov    rsi,rax
    3f31:	mov    rdi,rbx
    3f34:	mov    QWORD PTR [rbx+0x8],0x0
    3f3c:	call   a3f0 <talloc_steal>
    3f41:	mov    rax,QWORD PTR [rbp+0x0]
    3f45:	add    rbp,0x14
    3f49:	mov    rsi,rbx
    3f4c:	mov    rdi,r12
    3f4f:	mov    QWORD PTR [rbx+0x10],rax
    3f53:	mov    eax,DWORD PTR [rbp-0xc]
    3f56:	mov    DWORD PTR [rbx+0x18],eax
    3f59:	mov    edx,DWORD PTR [rbp-0x8]
    3f5c:	mov    DWORD PTR [rbx+0x28],edx
    3f5f:	mov    ecx,DWORD PTR [rbp-0x4]
    3f62:	lea    rax,[rbp+rax*8+0x0]
    3f67:	mov    QWORD PTR [rbx+0x20],rbp
    3f6b:	mov    QWORD PTR [rbx+0x30],rax
    3f6f:	add    rax,rdx
    3f72:	xor    edx,edx
    3f74:	mov    DWORD PTR [rbx+0x38],ecx
    3f77:	mov    QWORD PTR [rbx+0x40],rax
    3f7b:	xor    ecx,ecx
    3f7d:	call   8ce0 <access_node>
    3f82:	mov    rcx,QWORD PTR [rsp+0x18]
    3f87:	xor    rcx,QWORD PTR fs:0x28
    3f90:	mov    rax,rbx
    3f93:	jne    40b9 <read_node+0x219>
    3f99:	add    rsp,0x28
    3f9d:	pop    rbx
    3f9e:	pop    rbp
    3f9f:	pop    r12
    3fa1:	pop    r13
    3fa3:	ret    
    3fa4:	nop    DWORD PTR [rax+0x0]
    3fa8:	xor    ebx,ebx
    3faa:	jmp    3f82 <read_node+0xe2>
    3fac:	nop    DWORD PTR [rax+0x0]
    3fb0:	call   2750 <__errno_location@plt>
    3fb5:	mov    DWORD PTR [rax],0xc
    3fbb:	jmp    3f82 <read_node+0xe2>
    3fbd:	nop    DWORD PTR [rax]
    3fc0:	mov    rdi,rbx
    3fc3:	xor    ebx,ebx
    3fc5:	call   a6a0 <talloc_free>
    3fca:	call   2750 <__errno_location@plt>
    3fcf:	mov    DWORD PTR [rax],0xc
    3fd5:	jmp    3f82 <read_node+0xe2>
    3fd7:	nop    WORD PTR [rax+rax*1+0x0]
    3fe0:	mov    rdi,QWORD PTR [rip+0x2122f9]        # 2162e0 <tdb_ctx>
    3fe7:	call   d9a0 <tdb_error>
    3fec:	mov    ebp,eax
    3fee:	call   2750 <__errno_location@plt>
    3ff3:	cmp    ebp,0x8
    3ff6:	mov    r13,rax
    3ff9:	je     4070 <read_node+0x1d0>
    3ffb:	mov    rdi,QWORD PTR [rip+0x2122de]        # 2162e0 <tdb_ctx>
    4002:	call   d9b0 <tdb_errorstr>
    4007:	lea    rsi,[rip+0xb867]        # f875 <_IO_stdin_used+0x15>
    400e:	mov    rdx,rax
    4011:	xor    edi,edi
    4013:	xor    eax,eax
    4015:	call   b950 <talloc_asprintf>
    401a:	test   rax,rax
    401d:	mov    rbp,rax
    4020:	je     4091 <read_node+0x1f1>
    4022:	lea    rdi,[rip+0xb8ab]        # f8d4 <_IO_stdin_used+0x74>
    4029:	mov    rsi,rax
    402c:	xor    eax,eax
    402e:	call   3d00 <trace>
    4033:	lea    rdx,[rip+0xb8a3]        # f8dd <_IO_stdin_used+0x7d>
    403a:	mov    edi,0x3
    403f:	mov    rcx,rbp
    4042:	mov    esi,0x1
    4047:	xor    eax,eax
    4049:	call   2b60 <__syslog_chk@plt>
    404e:	mov    rdi,rbp
    4051:	call   a6a0 <talloc_free>
    4056:	mov    DWORD PTR [r13+0x0],0x5
    405e:	mov    rdi,rbx
    4061:	xor    ebx,ebx
    4063:	call   a6a0 <talloc_free>
    4068:	jmp    3f82 <read_node+0xe2>
    406d:	nop    DWORD PTR [rax]
    4070:	mov    QWORD PTR [rbx+0x10],0xffffffffffffffff
    4078:	xor    ecx,ecx
    407a:	xor    edx,edx
    407c:	mov    rsi,rbx
    407f:	mov    rdi,r12
    4082:	call   8ce0 <access_node>
    4087:	mov    DWORD PTR [r13+0x0],0x2
    408f:	jmp    405e <read_node+0x1be>
    4091:	lea    rdi,[rip+0xbd30]        # fdc8 <_IO_stdin_used+0x568>
    4098:	xor    eax,eax
    409a:	call   3d00 <trace>
    409f:	lea    rdx,[rip+0xbd22]        # fdc8 <_IO_stdin_used+0x568>
    40a6:	mov    esi,0x1
    40ab:	mov    edi,0x3
    40b0:	xor    eax,eax
    40b2:	call   2b60 <__syslog_chk@plt>
    40b7:	jmp    4056 <read_node+0x1b6>
    40b9:	call   2820 <__stack_chk_fail@plt>
    40be:	xchg   ax,ax

00000000000040c0 <construct_node>:
    40c0:	push   r15
    40c2:	push   r14
    40c4:	mov    r14,rsi
    40c7:	push   r13
    40c9:	push   r12
    40cb:	mov    rsi,rdx
    40ce:	push   rbp
    40cf:	push   rbx
    40d0:	mov    r12,rdi
    40d3:	mov    rdi,r14
    40d6:	mov    r13,rdx
    40d9:	sub    rsp,0x18
    40dd:	call   39e0 <get_parent>
    40e2:	test   rax,rax
    40e5:	je     424b <construct_node+0x18b>
    40eb:	mov    rdx,rax
    40ee:	mov    rsi,rax
    40f1:	mov    rdi,r12
    40f4:	mov    rbx,rax
    40f7:	call   3ea0 <read_node>
    40fc:	test   rax,rax
    40ff:	mov    rbp,rax
    4102:	je     4260 <construct_node+0x1a0>
    4108:	mov    rdi,r12
    410b:	call   8030 <domain_entry>
    4110:	cmp    eax,DWORD PTR [rip+0x211f06]        # 21601c <quota_nb_entry_per_domain>
    4116:	jge    4250 <construct_node+0x190>
    411c:	mov    esi,0x2f
    4121:	mov    rdi,r13
    4124:	call   2890 <strrchr@plt>
    4129:	add    rax,0x1
    412d:	mov    rdi,rax
    4130:	mov    QWORD PTR [rsp+0x8],rax
    4135:	call   2800 <strlen@plt>
    413a:	mov    edx,DWORD PTR [rbp+0x38]
    413d:	lea    ebx,[rax+0x1]
    4140:	lea    rcx,[rip+0xb744]        # f88b <_IO_stdin_used+0x2b>
    4147:	mov    esi,0x1
    414c:	mov    rdi,r14
    414f:	add    edx,ebx
    4151:	call   bad0 <_talloc_array>
    4156:	test   rax,rax
    4159:	mov    r15,rax
    415c:	je     4240 <construct_node+0x180>
    4162:	mov    edx,DWORD PTR [rbp+0x38]
    4165:	mov    rsi,QWORD PTR [rbp+0x40]
    4169:	mov    rdi,rax
    416c:	call   2a20 <memcpy@plt>
    4171:	mov    edi,DWORD PTR [rbp+0x38]
    4174:	mov    rsi,QWORD PTR [rsp+0x8]
    4179:	mov    edx,ebx
    417b:	add    rdi,r15
    417e:	call   2a20 <memcpy@plt>
    4183:	add    DWORD PTR [rbp+0x38],ebx
    4186:	lea    rdx,[rip+0xb6dc]        # f869 <_IO_stdin_used+0x9>
    418d:	mov    QWORD PTR [rbp+0x40],r15
    4191:	mov    esi,0x48
    4196:	mov    rdi,r14
    4199:	call   a240 <talloc_named_const>
    419e:	test   rax,rax
    41a1:	mov    rbx,rax
    41a4:	je     4240 <construct_node+0x180>
    41aa:	mov    rsi,r13
    41ad:	mov    rdi,rax
    41b0:	call   b2f0 <talloc_strdup>
    41b5:	test   rax,rax
    41b8:	mov    QWORD PTR [rbx],rax
    41bb:	je     4240 <construct_node+0x180>
    41c1:	mov    edx,DWORD PTR [rbp+0x18]
    41c4:	lea    rcx,[rip+0xb6c5]        # f890 <_IO_stdin_used+0x30>
    41cb:	mov    rdi,rbx
    41ce:	mov    DWORD PTR [rbx+0x18],edx
    41d1:	mov    rsi,QWORD PTR [rbp+0x20]
    41d5:	shl    rdx,0x3
    41d9:	call   b2b0 <_talloc_memdup>
    41de:	test   rax,rax
    41e1:	mov    QWORD PTR [rbx+0x20],rax
    41e5:	je     4240 <construct_node+0x180>
    41e7:	mov    rdi,r12
    41ea:	call   7ae0 <domain_is_unprivileged>
    41ef:	test   al,al
    41f1:	je     41fe <construct_node+0x13e>
    41f3:	mov    rax,QWORD PTR [rbx+0x20]
    41f7:	mov    edx,DWORD PTR [r12+0x18]
    41fc:	mov    DWORD PTR [rax],edx
    41fe:	mov    QWORD PTR [rbx+0x30],0x0
    4206:	mov    QWORD PTR [rbx+0x40],0x0
    420e:	mov    rsi,rbx
    4211:	mov    DWORD PTR [rbx+0x28],0x0
    4218:	mov    DWORD PTR [rbx+0x38],0x0
    421f:	mov    rdi,r12
    4222:	mov    QWORD PTR [rbx+0x8],rbp
    4226:	call   7ed0 <domain_entry_inc>
    422b:	add    rsp,0x18
    422f:	mov    rax,rbx
    4232:	pop    rbx
    4233:	pop    rbp
    4234:	pop    r12
    4236:	pop    r13
    4238:	pop    r14
    423a:	pop    r15
    423c:	ret    
    423d:	nop    DWORD PTR [rax]
    4240:	call   2750 <__errno_location@plt>
    4245:	mov    DWORD PTR [rax],0xc
    424b:	xor    ebx,ebx
    424d:	jmp    422b <construct_node+0x16b>
    424f:	nop
    4250:	call   2750 <__errno_location@plt>
    4255:	xor    ebx,ebx
    4257:	mov    DWORD PTR [rax],0x1c
    425d:	jmp    422b <construct_node+0x16b>
    425f:	nop
    4260:	mov    rdx,rbx
    4263:	mov    rsi,r14
    4266:	mov    rdi,r12
    4269:	call   40c0 <construct_node>
    426e:	test   rax,rax
    4271:	mov    rbp,rax
    4274:	jne    4108 <construct_node+0x48>
    427a:	xor    ebx,ebx
    427c:	jmp    422b <construct_node+0x16b>
    427e:	xchg   ax,ax

0000000000004280 <trace_io.part.3>:
    4280:	push   r12
    4282:	push   rbp
    4283:	mov    r12d,edx
    4286:	push   rbx
    4287:	mov    rbx,rdi
    428a:	xor    edi,edi
    428c:	mov    rbp,rsi
    428f:	sub    rsp,0x10
    4293:	mov    rax,QWORD PTR fs:0x28
    429c:	mov    QWORD PTR [rsp+0x8],rax
    42a1:	xor    eax,eax
    42a3:	call   2a30 <time@plt>
    42a8:	mov    rdi,rsp
    42ab:	mov    QWORD PTR [rsp],rax
    42af:	call   2710 <localtime@plt>
    42b4:	mov    ecx,DWORD PTR [rbp+0x18]
    42b7:	lea    rdi,[rip+0xb5e7]        # f8a5 <_IO_stdin_used+0x45>
    42be:	cmp    ecx,0x16
    42c1:	ja     42e0 <trace_io.part.3+0x60>
    42c3:	lea    rdx,[rip+0x211676]        # 215940 <wire_funcs>
    42ca:	shl    rcx,0x4
    42ce:	mov    rdi,QWORD PTR [rdx+rcx*1]
    42d2:	lea    rdx,[rip+0xb5cc]        # f8a5 <_IO_stdin_used+0x45>
    42d9:	test   rdi,rdi
    42dc:	cmove  rdi,rdx
    42e0:	mov    r9d,DWORD PTR [rax+0x8]
    42e4:	mov    r11d,DWORD PTR [rax]
    42e7:	lea    rdx,[rip+0xb5c3]        # f8b1 <_IO_stdin_used+0x51>
    42ee:	mov    r10d,DWORD PTR [rax+0x4]
    42f2:	mov    ecx,DWORD PTR [rax+0x14]
    42f5:	lea    rsi,[rip+0xba95]        # fd91 <_IO_stdin_used+0x531>
    42fc:	mov    r8d,DWORD PTR [rax+0x10]
    4300:	push   rdi
    4301:	lea    rdi,[rip+0xbae0]        # fde8 <_IO_stdin_used+0x588>
    4308:	push   r11
    430a:	push   r10
    430c:	push   r9
    430e:	add    ecx,0x76c
    4314:	mov    r9d,DWORD PTR [rax+0xc]
    4318:	test   r12d,r12d
    431b:	cmovne rsi,rdx
    431f:	xor    eax,eax
    4321:	add    r8d,0x1
    4325:	mov    rdx,rbx
    4328:	call   3d00 <trace>
    432d:	mov    eax,DWORD PTR [rbp+0x24]
    4330:	add    rsp,0x20
    4334:	test   eax,eax
    4336:	je     4367 <trace_io.part.3+0xe7>
    4338:	xor    ebx,ebx
    433a:	mov    r12d,0x20
    4340:	mov    rdx,QWORD PTR [rbp+0x28]
    4344:	mov    eax,ebx
    4346:	lea    rdi,[rip+0xb568]        # f8b5 <_IO_stdin_used+0x55>
    434d:	movsx  esi,BYTE PTR [rdx+rax*1]
    4351:	test   sil,sil
    4354:	cmove  esi,r12d
    4358:	xor    eax,eax
    435a:	add    ebx,0x1
    435d:	call   3d00 <trace>
    4362:	cmp    ebx,DWORD PTR [rbp+0x24]
    4365:	jb     4340 <trace_io.part.3+0xc0>
    4367:	lea    rdi,[rip+0xb54a]        # f8b8 <_IO_stdin_used+0x58>
    436e:	xor    eax,eax
    4370:	call   3d00 <trace>
    4375:	mov    rax,QWORD PTR [rsp+0x8]
    437a:	xor    rax,QWORD PTR fs:0x28
    4383:	jne    438e <trace_io.part.3+0x10e>
    4385:	add    rsp,0x10
    4389:	pop    rbx
    438a:	pop    rbp
    438b:	pop    r12
    438d:	ret    
    438e:	call   2820 <__stack_chk_fail@plt>
    4393:	nop    DWORD PTR [rax]
    4396:	nop    WORD PTR cs:[rax+rax*1+0x0]

00000000000043a0 <write_messages>:
    43a0:	push   r12
    43a2:	push   rbp
    43a3:	lea    rax,[rdi+0x28]
    43a7:	push   rbx
    43a8:	mov    rbx,QWORD PTR [rdi+0x28]
    43ac:	cmp    rbx,rax
    43af:	sete   dl
    43b2:	test   rbx,rbx
    43b5:	sete   al
    43b8:	or     dl,al
    43ba:	jne    43f1 <write_messages+0x51>
    43bc:	cmp    BYTE PTR [rbx+0x10],0x0
    43c0:	mov    ebp,edx
    43c2:	mov    r12,rdi
    43c5:	jne    4448 <write_messages+0xa8>
    43cb:	mov    esi,DWORD PTR [rbx+0x14]
    43ce:	mov    edx,DWORD PTR [rbx+0x24]
    43d1:	mov    rax,rsi
    43d4:	add    rsi,QWORD PTR [rbx+0x28]
    43d8:	sub    edx,eax
    43da:	mov    rdi,r12
    43dd:	call   QWORD PTR [r12+0x78]
    43e2:	test   eax,eax
    43e4:	js     43f6 <write_messages+0x56>
    43e6:	add    eax,DWORD PTR [rbx+0x14]
    43e9:	cmp    eax,DWORD PTR [rbx+0x24]
    43ec:	mov    DWORD PTR [rbx+0x14],eax
    43ef:	je     4400 <write_messages+0x60>
    43f1:	mov    ebp,0x1
    43f6:	mov    eax,ebp
    43f8:	pop    rbx
    43f9:	pop    rbp
    43fa:	pop    r12
    43fc:	ret    
    43fd:	nop    DWORD PTR [rax]
    4400:	mov    eax,DWORD PTR [rip+0x211c22]        # 216028 <tracefd>
    4406:	test   eax,eax
    4408:	js     441a <write_messages+0x7a>
    440a:	mov    edx,0x1
    440f:	mov    rsi,rbx
    4412:	mov    rdi,r12
    4415:	call   4280 <trace_io.part.3>
    441a:	mov    rdx,QWORD PTR [rbx]
    441d:	mov    rax,QWORD PTR [rbx+0x8]
    4421:	mov    rdi,rbx
    4424:	mov    QWORD PTR [rdx+0x8],rax
    4428:	mov    QWORD PTR [rax],rdx
    442b:	mov    QWORD PTR [rbx],0x100100
    4432:	mov    QWORD PTR [rbx+0x8],0x200200
    443a:	call   a6a0 <talloc_free>
    443f:	jmp    43f1 <write_messages+0x51>
    4441:	nop    DWORD PTR [rax+0x0]
    4448:	cmp    BYTE PTR [rip+0x211eb1],0x0        # 216300 <verbose>
    444f:	je     449a <write_messages+0xfa>
    4451:	mov    eax,DWORD PTR [rbx+0x18]
    4454:	mov    r9,QWORD PTR [rip+0x211e25]        # 216280 <xprintf>
    445b:	lea    rsi,[rip+0xb443]        # f8a5 <_IO_stdin_used+0x45>
    4462:	mov    rcx,QWORD PTR [rbx+0x28]
    4466:	mov    edx,DWORD PTR [rbx+0x24]
    4469:	cmp    eax,0x16
    446c:	ja     448b <write_messages+0xeb>
    446e:	lea    rsi,[rip+0x2114cb]        # 215940 <wire_funcs>
    4475:	shl    rax,0x4
    4479:	mov    rsi,QWORD PTR [rsi+rax*1]
    447d:	lea    rax,[rip+0xb421]        # f8a5 <_IO_stdin_used+0x45>
    4484:	test   rsi,rsi
    4487:	cmove  rsi,rax
    448b:	mov    r8,r12
    448e:	lea    rdi,[rip+0xb97b]        # fe10 <_IO_stdin_used+0x5b0>
    4495:	xor    eax,eax
    4497:	call   r9
    449a:	mov    eax,DWORD PTR [rbx+0x14]
    449d:	mov    edx,0x10
    44a2:	mov    rdi,r12
    44a5:	sub    edx,eax
    44a7:	lea    rsi,[rbx+rax*1+0x18]
    44ac:	call   QWORD PTR [r12+0x78]
    44b1:	test   eax,eax
    44b3:	js     43f6 <write_messages+0x56>
    44b9:	add    eax,DWORD PTR [rbx+0x14]
    44bc:	cmp    eax,0xf
    44bf:	mov    DWORD PTR [rbx+0x14],eax
    44c2:	jbe    43f1 <write_messages+0x51>
    44c8:	mov    edx,DWORD PTR [rbx+0x24]
    44cb:	mov    BYTE PTR [rbx+0x10],0x0
    44cf:	mov    DWORD PTR [rbx+0x14],0x0
    44d6:	test   edx,edx
    44d8:	je     44e6 <write_messages+0x146>
    44da:	cmp    QWORD PTR [r12+0x58],0x0
    44e0:	je     43f1 <write_messages+0x51>
    44e6:	xor    esi,esi
    44e8:	xor    eax,eax
    44ea:	jmp    43d4 <write_messages+0x34>
    44ef:	nop

00000000000044f0 <clean_store_>:
    44f0:	push   r14
    44f2:	push   r13
    44f4:	mov    r14,rdi
    44f7:	push   r12
    44f9:	push   rbp
    44fa:	xor    edi,edi
    44fc:	push   rbx
    44fd:	mov    r12,rsi
    4500:	mov    rbp,rdx
    4503:	mov    r13,r9
    4506:	call   b3d0 <talloc_strndup>
    450b:	test   rax,rax
    450e:	je     4550 <clean_store_+0x60>
    4510:	cmp    BYTE PTR [rax],0x2f
    4513:	mov    rbx,rax
    4516:	je     452d <clean_store_+0x3d>
    4518:	mov    esi,0x2f
    451d:	mov    rdi,rax
    4520:	call   2870 <strchr@plt>
    4525:	test   rax,rax
    4528:	je     452d <clean_store_+0x3d>
    452a:	mov    BYTE PTR [rax],0x0
    452d:	mov    rsi,rbx
    4530:	mov    rdi,r13
    4533:	call   f240 <hashtable_search>
    4538:	test   rax,rax
    453b:	je     45b0 <clean_store_+0xc0>
    453d:	mov    rdi,rbx
    4540:	call   a6a0 <talloc_free>
    4545:	xor    eax,eax
    4547:	pop    rbx
    4548:	pop    rbp
    4549:	pop    r12
    454b:	pop    r13
    454d:	pop    r14
    454f:	ret    
    4550:	lea    rsi,[rip+0xb364]        # f8bb <_IO_stdin_used+0x5b>
    4557:	xor    edi,edi
    4559:	xor    eax,eax
    455b:	call   b950 <talloc_asprintf>
    4560:	test   rax,rax
    4563:	mov    rbx,rax
    4566:	je     4628 <clean_store_+0x138>
    456c:	lea    rdi,[rip+0xb361]        # f8d4 <_IO_stdin_used+0x74>
    4573:	mov    rsi,rax
    4576:	xor    eax,eax
    4578:	call   3d00 <trace>
    457d:	lea    rdx,[rip+0xb359]        # f8dd <_IO_stdin_used+0x7d>
    4584:	mov    rcx,rbx
    4587:	mov    esi,0x1
    458c:	mov    edi,0x3
    4591:	xor    eax,eax
    4593:	call   2b60 <__syslog_chk@plt>
    4598:	mov    rdi,rbx
    459b:	call   a6a0 <talloc_free>
    45a0:	pop    rbx
    45a1:	mov    eax,0x1
    45a6:	pop    rbp
    45a7:	pop    r12
    45a9:	pop    r13
    45ab:	pop    r14
    45ad:	ret    
    45ae:	xchg   ax,ax
    45b0:	lea    rsi,[rip+0xb881]        # fe38 <_IO_stdin_used+0x5d8>
    45b7:	xor    edi,edi
    45b9:	mov    rdx,rbx
    45bc:	call   b950 <talloc_asprintf>
    45c1:	test   rax,rax
    45c4:	mov    r13,rax
    45c7:	je     4660 <clean_store_+0x170>
    45cd:	lea    rdi,[rip+0xb300]        # f8d4 <_IO_stdin_used+0x74>
    45d4:	mov    rsi,rax
    45d7:	xor    eax,eax
    45d9:	call   3d00 <trace>
    45de:	lea    rdx,[rip+0xb2f8]        # f8dd <_IO_stdin_used+0x7d>
    45e5:	mov    edi,0x3
    45ea:	mov    rcx,r13
    45ed:	mov    esi,0x1
    45f2:	xor    eax,eax
    45f4:	call   2b60 <__syslog_chk@plt>
    45f9:	mov    rdi,r13
    45fc:	call   a6a0 <talloc_free>
    4601:	cmp    BYTE PTR [rip+0x211a1c],0x0        # 216024 <recovery>
    4608:	je     453d <clean_store_+0x4d>
    460e:	mov    rsi,r12
    4611:	mov    rdx,rbp
    4614:	mov    rdi,r14
    4617:	call   e000 <tdb_delete>
    461c:	jmp    453d <clean_store_+0x4d>
    4621:	nop    DWORD PTR [rax+0x0]
    4628:	lea    rdi,[rip+0xb799]        # fdc8 <_IO_stdin_used+0x568>
    462f:	xor    eax,eax
    4631:	call   3d00 <trace>
    4636:	lea    rdx,[rip+0xb78b]        # fdc8 <_IO_stdin_used+0x568>
    463d:	xor    eax,eax
    463f:	mov    esi,0x1
    4644:	mov    edi,0x3
    4649:	call   2b60 <__syslog_chk@plt>
    464e:	mov    eax,0x1
    4653:	jmp    4547 <clean_store_+0x57>
    4658:	nop    DWORD PTR [rax+rax*1+0x0]
    4660:	lea    rdi,[rip+0xb761]        # fdc8 <_IO_stdin_used+0x568>
    4667:	xor    eax,eax
    4669:	call   3d00 <trace>
    466e:	lea    rdx,[rip+0xb753]        # fdc8 <_IO_stdin_used+0x568>
    4675:	mov    esi,0x1
    467a:	mov    edi,0x3
    467f:	xor    eax,eax
    4681:	call   2b60 <__syslog_chk@plt>
    4686:	jmp    4601 <clean_store_+0x111>
    468b:	nop    DWORD PTR [rax+rax*1+0x0]

0000000000004690 <tdb_logger>:
    4690:	push   rbx
    4691:	mov    rsi,rdx
    4694:	sub    rsp,0xd0
    469b:	test   al,al
    469d:	mov    QWORD PTR [rsp+0x38],rcx
    46a2:	mov    QWORD PTR [rsp+0x40],r8
    46a7:	mov    QWORD PTR [rsp+0x48],r9
    46ac:	je     46e5 <tdb_logger+0x55>
    46ae:	movaps XMMWORD PTR [rsp+0x50],xmm0
    46b3:	movaps XMMWORD PTR [rsp+0x60],xmm1
    46b8:	movaps XMMWORD PTR [rsp+0x70],xmm2
    46bd:	movaps XMMWORD PTR [rsp+0x80],xmm3
    46c5:	movaps XMMWORD PTR [rsp+0x90],xmm4
    46cd:	movaps XMMWORD PTR [rsp+0xa0],xmm5
    46d5:	movaps XMMWORD PTR [rsp+0xb0],xmm6
    46dd:	movaps XMMWORD PTR [rsp+0xc0],xmm7
    46e5:	mov    rax,QWORD PTR fs:0x28
    46ee:	mov    QWORD PTR [rsp+0x18],rax
    46f3:	xor    eax,eax
    46f5:	lea    rax,[rsp+0xe0]
    46fd:	xor    edi,edi
    46ff:	mov    rdx,rsp
    4702:	mov    QWORD PTR [rsp+0x8],rax
    4707:	lea    rax,[rsp+0x20]
    470c:	mov    DWORD PTR [rsp],0x18
    4713:	mov    DWORD PTR [rsp+0x4],0x30
    471b:	mov    QWORD PTR [rsp+0x10],rax
    4720:	call   b460 <talloc_vasprintf>
    4725:	test   rax,rax
    4728:	mov    rbx,rax
    472b:	je     4798 <tdb_logger+0x108>
    472d:	lea    rdi,[rip+0xb19b]        # f8cf <_IO_stdin_used+0x6f>
    4734:	mov    rsi,rax
    4737:	xor    eax,eax
    4739:	call   3d00 <trace>
    473e:	lea    rdx,[rip+0xb193]        # f8d8 <_IO_stdin_used+0x78>
    4745:	xor    eax,eax
    4747:	mov    rcx,rbx
    474a:	mov    esi,0x1
    474f:	mov    edi,0x3
    4754:	call   2b60 <__syslog_chk@plt>
    4759:	cmp    BYTE PTR [rip+0x211ba0],0x0        # 216300 <verbose>
    4760:	je     4774 <tdb_logger+0xe4>
    4762:	mov    rsi,rbx
    4765:	lea    rdi,[rip+0xb16c]        # f8d8 <_IO_stdin_used+0x78>
    476c:	xor    eax,eax
    476e:	call   QWORD PTR [rip+0x211b0c]        # 216280 <xprintf>
    4774:	mov    rdi,rbx
    4777:	call   a6a0 <talloc_free>
    477c:	mov    rax,QWORD PTR [rsp+0x18]
    4781:	xor    rax,QWORD PTR fs:0x28
    478a:	jne    47c0 <tdb_logger+0x130>
    478c:	add    rsp,0xd0
    4793:	pop    rbx
    4794:	ret    
    4795:	nop    DWORD PTR [rax]
    4798:	lea    rdi,[rip+0xb629]        # fdc8 <_IO_stdin_used+0x568>
    479f:	xor    eax,eax
    47a1:	call   3d00 <trace>
    47a6:	lea    rdx,[rip+0xb61b]        # fdc8 <_IO_stdin_used+0x568>
    47ad:	mov    esi,0x1
    47b2:	mov    edi,0x3
    47b7:	xor    eax,eax
    47b9:	call   2b60 <__syslog_chk@plt>
    47be:	jmp    477c <tdb_logger+0xec>
    47c0:	call   2820 <__stack_chk_fail@plt>
    47c5:	nop
    47c6:	nop    WORD PTR cs:[rax+rax*1+0x0]

00000000000047d0 <destroy_conn>:
    47d0:	push   r12
    47d2:	push   rbp
    47d3:	push   rbx
    47d4:	mov    rbx,rdi
    47d7:	sub    rsp,0x10
    47db:	mov    rax,QWORD PTR fs:0x28
    47e4:	mov    QWORD PTR [rsp+0x8],rax
    47e9:	xor    eax,eax
    47eb:	cmp    QWORD PTR [rdi+0x58],0x0
    47f0:	je     4858 <destroy_conn+0x88>
    47f2:	mov    rsi,QWORD PTR [rbx+0x60]
    47f6:	test   rsi,rsi
    47f9:	je     4803 <destroy_conn+0x33>
    47fb:	mov    rdi,rbx
    47fe:	call   abf0 <talloc_unlink>
    4803:	mov    rdx,QWORD PTR [rbx]
    4806:	mov    rax,QWORD PTR [rbx+0x8]
    480a:	lea    rsi,[rip+0xb191]        # f9a2 <_IO_stdin_used+0x142>
    4811:	lea    rdi,[rip+0xb0c8]        # f8e0 <_IO_stdin_used+0x80>
    4818:	mov    QWORD PTR [rdx+0x8],rax
    481c:	mov    QWORD PTR [rax],rdx
    481f:	xor    eax,eax
    4821:	mov    QWORD PTR [rbx],0x100100
    4828:	mov    QWORD PTR [rbx+0x8],0x200200
    4830:	mov    rdx,rbx
    4833:	call   3d00 <trace>
    4838:	xor    eax,eax
    483a:	mov    rcx,QWORD PTR [rsp+0x8]
    483f:	xor    rcx,QWORD PTR fs:0x28
    4848:	jne    48ab <destroy_conn+0xdb>
    484a:	add    rsp,0x10
    484e:	pop    rbx
    484f:	pop    rbp
    4850:	pop    r12
    4852:	ret    
    4853:	nop    DWORD PTR [rax+rax*1+0x0]
    4858:	mov    eax,DWORD PTR [rdi+0x10]
    485b:	lea    rbp,[rdi+0x28]
    485f:	mov    r12,rsp
    4862:	mov    DWORD PTR [rsp],eax
    4865:	mov    eax,0x4
    486a:	mov    WORD PTR [rsp+0x4],ax
    486f:	jmp    4898 <destroy_conn+0xc8>
    4871:	nop    DWORD PTR [rax+0x0]
    4878:	xor    edx,edx
    487a:	mov    esi,0x1
    487f:	mov    rdi,r12
    4882:	call   2b20 <poll@plt>
    4887:	cmp    eax,0x1
    488a:	jne    489e <destroy_conn+0xce>
    488c:	mov    rdi,rbx
    488f:	call   43a0 <write_messages>
    4894:	test   al,al
    4896:	je     489e <destroy_conn+0xce>
    4898:	cmp    QWORD PTR [rbx+0x28],rbp
    489c:	jne    4878 <destroy_conn+0xa8>
    489e:	mov    edi,DWORD PTR [rbx+0x10]
    48a1:	call   2930 <close@plt>
    48a6:	jmp    47f2 <destroy_conn+0x22>
    48ab:	call   2820 <__stack_chk_fail@plt>

00000000000048b0 <trace_create>:
    48b0:	mov    rdx,rdi
    48b3:	lea    rdi,[rip+0xb035]        # f8ef <_IO_stdin_used+0x8f>
    48ba:	xor    eax,eax
    48bc:	jmp    3d00 <trace>
    48c1:	nop    DWORD PTR [rax+rax*1+0x0]
    48c6:	nop    WORD PTR cs:[rax+rax*1+0x0]

00000000000048d0 <trace_destroy>:
    48d0:	mov    rdx,rdi
    48d3:	lea    rdi,[rip+0xb006]        # f8e0 <_IO_stdin_used+0x80>
    48da:	xor    eax,eax
    48dc:	jmp    3d00 <trace>
    48e1:	nop    DWORD PTR [rax+rax*1+0x0]
    48e6:	nop    WORD PTR cs:[rax+rax*1+0x0]

00000000000048f0 <close_log>:
    48f0:	mov    edi,DWORD PTR [rip+0x211732]        # 216028 <tracefd>
    48f6:	test   edi,edi
    48f8:	js     4918 <close_log+0x28>
    48fa:	sub    rsp,0x8
    48fe:	call   2930 <close@plt>
    4903:	mov    DWORD PTR [rip+0x21171b],0xffffffff        # 216028 <tracefd>
    490d:	add    rsp,0x8
    4911:	ret    
    4912:	nop    WORD PTR [rax+rax*1+0x0]
    4918:	mov    DWORD PTR [rip+0x211706],0xffffffff        # 216028 <tracefd>
    4922:	ret    
    4923:	nop    DWORD PTR [rax]
    4926:	nop    WORD PTR cs:[rax+rax*1+0x0]

0000000000004930 <reopen_log>:
    4930:	mov    rdi,QWORD PTR [rip+0x2119b1]        # 2162e8 <tracefile>
    4937:	test   rdi,rdi
    493a:	je     49b0 <reopen_log+0x80>
    493c:	sub    rsp,0x8
    4940:	mov    eax,DWORD PTR [rip+0x2116e2]        # 216028 <tracefd>
    4946:	test   eax,eax
    4948:	jns    4988 <reopen_log+0x58>
    494a:	xor    eax,eax
    494c:	mov    edx,0x180
    4951:	mov    esi,0x441
    4956:	mov    DWORD PTR [rip+0x2116c8],0xffffffff        # 216028 <tracefd>
    4960:	call   2b70 <open@plt>
    4965:	test   eax,eax
    4967:	mov    DWORD PTR [rip+0x2116bb],eax        # 216028 <tracefd>
    496d:	js     49a0 <reopen_log+0x70>
    496f:	lea    rdi,[rip+0xafa0]        # f916 <_IO_stdin_used+0xb6>
    4976:	xor    eax,eax
    4978:	add    rsp,0x8
    497c:	jmp    3d00 <trace>
    4981:	nop    DWORD PTR [rax+0x0]
    4988:	mov    edi,eax
    498a:	call   2930 <close@plt>
    498f:	mov    rdi,QWORD PTR [rip+0x211952]        # 2162e8 <tracefile>
    4996:	jmp    494a <reopen_log+0x1a>
    4998:	nop    DWORD PTR [rax+rax*1+0x0]
    49a0:	lea    rdi,[rip+0xaf56]        # f8fd <_IO_stdin_used+0x9d>
    49a7:	add    rsp,0x8
    49ab:	jmp    2ba0 <perror@plt>
    49b0:	repz ret 
    49b2:	nop    DWORD PTR [rax+0x0]
    49b6:	nop    WORD PTR cs:[rax+rax*1+0x0]

00000000000049c0 <get_strings>:
    49c0:	push   r15
    49c2:	push   r14
    49c4:	xor    r15d,r15d
    49c7:	push   r13
    49c9:	push   r12
    49cb:	mov    r14d,edx
    49ce:	push   rbp
    49cf:	push   rbx
    49d0:	mov    r12,rdi
    49d3:	lea    r13,[rdi+0x28]
    49d7:	xor    ebx,ebx
    49d9:	sub    rsp,0x18
    49dd:	mov    ebp,DWORD PTR [rdi+0x14]
    49e0:	mov    QWORD PTR [rsp+0x8],rsi
    49e5:	jmp    4a13 <get_strings+0x53>
    49e7:	nop    WORD PTR [rax+rax*1+0x0]
    49f0:	cmp    ebx,r14d
    49f3:	jae    4a0d <get_strings+0x4d>
    49f5:	mov    edx,r15d
    49f8:	add    rdx,QWORD PTR [r12+0x28]
    49fd:	mov    rcx,QWORD PTR [rsp+0x8]
    4a02:	mov    esi,ebx
    4a04:	mov    QWORD PTR [rcx+rsi*8],rdx
    4a08:	mov    ebp,DWORD PTR [r12+0x14]
    4a0d:	add    ebx,0x1
    4a10:	add    r15d,eax
    4a13:	mov    edx,r15d
    4a16:	mov    rsi,r13
    4a19:	mov    edi,ebp
    4a1b:	call   3a50 <get_string.isra.1>
    4a20:	test   eax,eax
    4a22:	jne    49f0 <get_strings+0x30>
    4a24:	add    rsp,0x18
    4a28:	mov    eax,ebx
    4a2a:	pop    rbx
    4a2b:	pop    rbp
    4a2c:	pop    r12
    4a2e:	pop    r13
    4a30:	pop    r14
    4a32:	pop    r15
    4a34:	ret    
    4a35:	nop
    4a36:	nop    WORD PTR cs:[rax+rax*1+0x0]

0000000000004a40 <send_reply>:
    4a40:	cmp    ecx,0x1000
    4a46:	ja     4b28 <send_reply+0xe8>
    4a4c:	cmp    esi,0xf
    4a4f:	push   r14
    4a51:	mov    r14,rdx
    4a54:	push   r13
    4a56:	push   r12
    4a58:	mov    r12d,esi
    4a5b:	push   rbp
    4a5c:	mov    rbp,rdi
    4a5f:	push   rbx
    4a60:	mov    ebx,ecx
    4a62:	je     4b70 <send_reply+0x130>
    4a68:	mov    r13,QWORD PTR [rdi+0x20]
    4a6c:	mov    BYTE PTR [r13+0x10],0x1
    4a71:	mov    DWORD PTR [r13+0x14],0x0
    4a79:	mov    QWORD PTR [rdi+0x20],0x0
    4a81:	cmp    ebx,0x10
    4a84:	ja     4ae0 <send_reply+0xa0>
    4a86:	lea    rax,[r13+0x30]
    4a8a:	mov    QWORD PTR [r13+0x28],rax
    4a8e:	cmp    ebx,0x8
    4a91:	mov    DWORD PTR [r13+0x18],r12d
    4a95:	mov    DWORD PTR [r13+0x24],ebx
    4a99:	jae    4b38 <send_reply+0xf8>
    4a9f:	test   bl,0x4
    4aa2:	jne    4bb0 <send_reply+0x170>
    4aa8:	test   ebx,ebx
    4aaa:	je     4abb <send_reply+0x7b>
    4aac:	movzx  edx,BYTE PTR [r14]
    4ab0:	test   bl,0x2
    4ab3:	mov    BYTE PTR [rax],dl
    4ab5:	jne    4bc3 <send_reply+0x183>
    4abb:	mov    rax,QWORD PTR [rbp+0x30]
    4abf:	mov    QWORD PTR [rbp+0x30],r13
    4ac3:	add    rbp,0x28
    4ac7:	mov    QWORD PTR [r13+0x0],rbp
    4acb:	mov    QWORD PTR [r13+0x8],rax
    4acf:	mov    QWORD PTR [rax],r13
    4ad2:	pop    rbx
    4ad3:	pop    rbp
    4ad4:	pop    r12
    4ad6:	pop    r13
    4ad8:	pop    r14
    4ada:	ret    
    4adb:	nop    DWORD PTR [rax+rax*1+0x0]
    4ae0:	lea    rcx,[rip+0xada4]        # f88b <_IO_stdin_used+0x2b>
    4ae7:	mov    edx,ebx
    4ae9:	mov    esi,0x1
    4aee:	mov    rdi,r13
    4af1:	call   bad0 <_talloc_array>
    4af6:	test   rax,rax
    4af9:	mov    QWORD PTR [r13+0x28],rax
    4afd:	jne    4a8e <send_reply+0x4e>
    4aff:	cmp    r12d,0xf
    4b03:	je     4ba0 <send_reply+0x160>
    4b09:	mov    QWORD PTR [rbp+0x20],r13
    4b0d:	mov    rdi,rbp
    4b10:	mov    esi,0xc
    4b15:	pop    rbx
    4b16:	pop    rbp
    4b17:	pop    r12
    4b19:	pop    r13
    4b1b:	pop    r14
    4b1d:	jmp    4be0 <send_error>
    4b22:	nop    WORD PTR [rax+rax*1+0x0]
    4b28:	mov    esi,0x7
    4b2d:	jmp    4be0 <send_error>
    4b32:	nop    WORD PTR [rax+rax*1+0x0]
    4b38:	mov    rdx,QWORD PTR [r14]
    4b3b:	lea    rdi,[rax+0x8]
    4b3f:	mov    rsi,r14
    4b42:	and    rdi,0xfffffffffffffff8
    4b46:	mov    QWORD PTR [rax],rdx
    4b49:	mov    edx,ebx
    4b4b:	mov    rcx,QWORD PTR [r14+rdx*1-0x8]
    4b50:	mov    QWORD PTR [rax+rdx*1-0x8],rcx
    4b55:	sub    rax,rdi
    4b58:	lea    ecx,[rbx+rax*1]
    4b5b:	sub    rsi,rax
    4b5e:	mov    ebx,ecx
    4b60:	shr    ebx,0x3
    4b63:	mov    ecx,ebx
    4b65:	rep movs QWORD PTR es:[rdi],QWORD PTR ds:[rsi]
    4b68:	jmp    4abb <send_reply+0x7b>
    4b6d:	nop    DWORD PTR [rax]
    4b70:	lea    rdx,[rip+0xada5]        # f91c <_IO_stdin_used+0xbc>
    4b77:	mov    esi,0x40
    4b7c:	call   b280 <_talloc_zero>
    4b81:	test   rax,rax
    4b84:	mov    r13,rax
    4b87:	je     4ad2 <send_reply+0x92>
    4b8d:	mov    BYTE PTR [rax+0x10],0x1
    4b91:	jmp    4a81 <send_reply+0x41>
    4b96:	nop    WORD PTR cs:[rax+rax*1+0x0]
    4ba0:	pop    rbx
    4ba1:	mov    rdi,r13
    4ba4:	pop    rbp
    4ba5:	pop    r12
    4ba7:	pop    r13
    4ba9:	pop    r14
    4bab:	jmp    a6a0 <talloc_free>
    4bb0:	mov    edx,DWORD PTR [r14]
    4bb3:	mov    DWORD PTR [rax],edx
    4bb5:	mov    edx,DWORD PTR [r14+rbx*1-0x4]
    4bba:	mov    DWORD PTR [rax+rbx*1-0x4],edx
    4bbe:	jmp    4abb <send_reply+0x7b>
    4bc3:	movzx  edx,WORD PTR [r14+rbx*1-0x2]
    4bc9:	mov    WORD PTR [rax+rbx*1-0x2],dx
    4bce:	jmp    4abb <send_reply+0x7b>
    4bd3:	nop    DWORD PTR [rax]
    4bd6:	nop    WORD PTR cs:[rax+rax*1+0x0]

0000000000004be0 <send_error>:
    4be0:	push   rbp
    4be1:	push   rbx
    4be2:	mov    rbx,rdi
    4be5:	sub    rsp,0x8
    4be9:	cmp    esi,0x16
    4bec:	je     4c80 <send_error+0xa0>
    4bf2:	lea    rcx,[rip+0x210b47]        # 215740 <xsd_errors+0x20>
    4bf9:	mov    edi,0xd
    4bfe:	xor    eax,eax
    4c00:	jmp    4c13 <send_error+0x33>
    4c02:	nop    WORD PTR [rax+rax*1+0x0]
    4c08:	cmp    eax,0xe
    4c0b:	je     4c50 <send_error+0x70>
    4c0d:	mov    edi,DWORD PTR [rcx]
    4c0f:	add    rcx,0x10
    4c13:	add    eax,0x1
    4c16:	cmp    esi,edi
    4c18:	jne    4c08 <send_error+0x28>
    4c1a:	lea    rdx,[rip+0x210aff]        # 215720 <xsd_errors>
    4c21:	shl    rax,0x4
    4c25:	mov    rbp,QWORD PTR [rdx+rax*1+0x8]
    4c2a:	mov    rdi,rbp
    4c2d:	call   2800 <strlen@plt>
    4c32:	lea    ecx,[rax+0x1]
    4c35:	add    rsp,0x8
    4c39:	mov    rdx,rbp
    4c3c:	mov    rdi,rbx
    4c3f:	pop    rbx
    4c40:	pop    rbp
    4c41:	mov    esi,0x10
    4c46:	jmp    4a40 <send_reply>
    4c4b:	nop    DWORD PTR [rax+rax*1+0x0]
    4c50:	mov    edx,esi
    4c52:	lea    rdi,[rip+0xb1ff]        # fe58 <_IO_stdin_used+0x5f8>
    4c59:	lea    rsi,[rip+0xb908]        # 10568 <__FUNCTION__.12321>
    4c60:	xor    eax,eax
    4c62:	lea    rbp,[rip+0xacc8]        # f931 <_IO_stdin_used+0xd1>
    4c69:	call   QWORD PTR [rip+0x211611]        # 216280 <xprintf>
    4c6f:	mov    ecx,0x7
    4c74:	jmp    4c35 <send_error+0x55>
    4c76:	nop    WORD PTR cs:[rax+rax*1+0x0]
    4c80:	mov    ecx,0x7
    4c85:	lea    rbp,[rip+0xaca5]        # f931 <_IO_stdin_used+0xd1>
    4c8c:	jmp    4c35 <send_error+0x55>
    4c8e:	xchg   ax,ax

0000000000004c90 <handle_input>:
    4c90:	push   r12
    4c92:	push   rbp
    4c93:	mov    rbp,rdi
    4c96:	push   rbx
    4c97:	mov    rbx,QWORD PTR [rdi+0x20]
    4c9b:	test   rbx,rbx
    4c9e:	je     4e20 <handle_input+0x190>
    4ca4:	cmp    BYTE PTR [rbx+0x10],0x0
    4ca8:	mov    ecx,DWORD PTR [rbx+0x14]
    4cab:	jne    4e50 <handle_input+0x1c0>
    4cb1:	mov    rsi,QWORD PTR [rbx+0x28]
    4cb5:	mov    edx,DWORD PTR [rbx+0x24]
    4cb8:	mov    eax,ecx
    4cba:	sub    edx,ecx
    4cbc:	add    rsi,rax
    4cbf:	mov    rdi,rbp
    4cc2:	call   QWORD PTR [rbp+0x80]
    4cc8:	test   eax,eax
    4cca:	js     4dfa <handle_input+0x16a>
    4cd0:	add    eax,DWORD PTR [rbx+0x14]
    4cd3:	cmp    eax,DWORD PTR [rbx+0x24]
    4cd6:	mov    DWORD PTR [rbx+0x14],eax
    4cd9:	je     4ce0 <handle_input+0x50>
    4cdb:	pop    rbx
    4cdc:	pop    rbp
    4cdd:	pop    r12
    4cdf:	ret    
    4ce0:	mov    eax,DWORD PTR [rip+0x211342]        # 216028 <tracefd>
    4ce6:	test   eax,eax
    4ce8:	js     4cf7 <handle_input+0x67>
    4cea:	xor    edx,edx
    4cec:	mov    rsi,rbx
    4cef:	mov    rdi,rbp
    4cf2:	call   4280 <trace_io.part.3>
    4cf7:	cmp    BYTE PTR [rip+0x211602],0x0        # 216300 <verbose>
    4cfe:	mov    r12,QWORD PTR [rbp+0x20]
    4d02:	mov    ebx,DWORD PTR [r12+0x18]
    4d07:	je     4d56 <handle_input+0xc6>
    4d09:	cmp    ebx,0x16
    4d0c:	mov    r8,QWORD PTR [rip+0x21156d]        # 216280 <xprintf>
    4d13:	mov    edx,DWORD PTR [r12+0x24]
    4d18:	lea    rsi,[rip+0xab86]        # f8a5 <_IO_stdin_used+0x45>
    4d1f:	ja     4d3e <handle_input+0xae>
    4d21:	lea    rax,[rip+0x210c18]        # 215940 <wire_funcs>
    4d28:	shl    rbx,0x4
    4d2c:	mov    rsi,QWORD PTR [rax+rbx*1]
    4d30:	lea    rax,[rip+0xab6e]        # f8a5 <_IO_stdin_used+0x45>
    4d37:	test   rsi,rsi
    4d3a:	cmove  rsi,rax
    4d3e:	mov    rcx,rbp
    4d41:	lea    rdi,[rip+0xb140]        # fe88 <_IO_stdin_used+0x628>
    4d48:	xor    eax,eax
    4d4a:	call   r8
    4d4d:	mov    r12,QWORD PTR [rbp+0x20]
    4d51:	mov    ebx,DWORD PTR [r12+0x18]
    4d56:	mov    esi,DWORD PTR [r12+0x20]
    4d5b:	mov    rdi,rbp
    4d5e:	call   8f70 <transaction_lookup>
    4d63:	cmp    rax,0xfffffffffffffc18
    4d69:	ja     4e10 <handle_input+0x180>
    4d6f:	cmp    QWORD PTR [rbp+0x38],0x0
    4d74:	jne    4f31 <handle_input+0x2a1>
    4d7a:	cmp    ebx,0x16
    4d7d:	mov    QWORD PTR [rbp+0x38],rax
    4d81:	jbe    4ec8 <handle_input+0x238>
    4d87:	lea    rsi,[rip+0xb7a2]        # 10530 <__FUNCTION__.12531>
    4d8e:	mov    edx,ebx
    4d90:	lea    rdi,[rip+0xb111]        # fea8 <_IO_stdin_used+0x648>
    4d97:	xor    eax,eax
    4d99:	call   QWORD PTR [rip+0x2114e1]        # 216280 <xprintf>
    4d9f:	mov    esi,0x26
    4da4:	mov    rdi,rbp
    4da7:	call   4be0 <send_error>
    4dac:	mov    QWORD PTR [rbp+0x38],0x0
    4db4:	cmp    QWORD PTR [rbp+0x20],0x0
    4db9:	je     4cdb <handle_input+0x4b>
    4dbf:	lea    rcx,[rip+0xb78a]        # 10550 <__PRETTY_FUNCTION__.12535>
    4dc6:	lea    rsi,[rip+0xab86]        # f953 <_IO_stdin_used+0xf3>
    4dcd:	lea    rdi,[rip+0xabaa]        # f97e <_IO_stdin_used+0x11e>
    4dd4:	mov    edx,0x53e
    4dd9:	call   28d0 <__assert_fail@plt>
    4dde:	xchg   ax,ax
    4de0:	mov    ecx,edx
    4de2:	lea    rdx,[rip+0xab4f]        # f938 <_IO_stdin_used+0xd8>
    4de9:	mov    esi,0x1
    4dee:	mov    edi,0x3
    4df3:	xor    eax,eax
    4df5:	call   2b60 <__syslog_chk@plt>
    4dfa:	pop    rbx
    4dfb:	mov    rdi,rbp
    4dfe:	pop    rbp
    4dff:	pop    r12
    4e01:	jmp    a6a0 <talloc_free>
    4e06:	nop    WORD PTR cs:[rax+rax*1+0x0]
    4e10:	mov    esi,eax
    4e12:	mov    rdi,rbp
    4e15:	neg    esi
    4e17:	call   4be0 <send_error>
    4e1c:	jmp    4db4 <handle_input+0x124>
    4e1e:	xchg   ax,ax
    4e20:	lea    rdx,[rip+0xaaf5]        # f91c <_IO_stdin_used+0xbc>
    4e27:	mov    esi,0x40
    4e2c:	call   b280 <_talloc_zero>
    4e31:	test   rax,rax
    4e34:	mov    rbx,rax
    4e37:	je     4eb8 <handle_input+0x228>
    4e39:	mov    BYTE PTR [rax+0x10],0x1
    4e3d:	mov    QWORD PTR [rbp+0x20],rax
    4e41:	cmp    BYTE PTR [rbx+0x10],0x0
    4e45:	mov    ecx,DWORD PTR [rbx+0x14]
    4e48:	je     4cb1 <handle_input+0x21>
    4e4e:	xchg   ax,ax
    4e50:	cmp    ecx,0x10
    4e53:	je     4f00 <handle_input+0x270>
    4e59:	mov    edx,0x10
    4e5e:	lea    rsi,[rbx+rcx*1+0x18]
    4e63:	mov    rdi,rbp
    4e66:	sub    edx,ecx
    4e68:	call   QWORD PTR [rbp+0x80]
    4e6e:	test   eax,eax
    4e70:	js     4dfa <handle_input+0x16a>
    4e72:	add    eax,DWORD PTR [rbx+0x14]
    4e75:	cmp    eax,0x10
    4e78:	mov    DWORD PTR [rbx+0x14],eax
    4e7b:	jne    4cdb <handle_input+0x4b>
    4e81:	mov    edx,DWORD PTR [rbx+0x24]
    4e84:	cmp    edx,0x1000
    4e8a:	ja     4de0 <handle_input+0x150>
    4e90:	cmp    edx,0x10
    4e93:	ja     4f05 <handle_input+0x275>
    4e95:	lea    rsi,[rbx+0x30]
    4e99:	mov    QWORD PTR [rbx+0x28],rsi
    4e9d:	mov    DWORD PTR [rbx+0x14],0x0
    4ea4:	mov    BYTE PTR [rbx+0x10],0x0
    4ea8:	xor    eax,eax
    4eaa:	xor    ecx,ecx
    4eac:	jmp    4cba <handle_input+0x2a>
    4eb1:	nop    DWORD PTR [rax+0x0]
    4eb8:	mov    QWORD PTR [rbp+0x20],0x0
    4ec0:	jmp    4cdb <handle_input+0x4b>
    4ec5:	nop    DWORD PTR [rax]
    4ec8:	mov    eax,ebx
    4eca:	lea    rdx,[rip+0x210a6f]        # 215940 <wire_funcs>
    4ed1:	shl    rax,0x4
    4ed5:	mov    rax,QWORD PTR [rdx+rax*1+0x8]
    4eda:	test   rax,rax
    4edd:	je     4d87 <handle_input+0xf7>
    4ee3:	mov    rsi,r12
    4ee6:	mov    rdi,rbp
    4ee9:	call   rax
    4eeb:	test   eax,eax
    4eed:	mov    esi,eax
    4eef:	jne    4da4 <handle_input+0x114>
    4ef5:	jmp    4dac <handle_input+0x11c>
    4efa:	nop    WORD PTR [rax+rax*1+0x0]
    4f00:	mov    edx,DWORD PTR [rbx+0x24]
    4f03:	jmp    4e90 <handle_input+0x200>
    4f05:	lea    rcx,[rip+0xa97f]        # f88b <_IO_stdin_used+0x2b>
    4f0c:	mov    esi,0x1
    4f11:	mov    rdi,rbx
    4f14:	call   bad0 <_talloc_array>
    4f19:	test   rax,rax
    4f1c:	mov    rsi,rax
    4f1f:	mov    QWORD PTR [rbx+0x28],rax
    4f23:	je     4cdb <handle_input+0x4b>
    4f29:	mov    edx,DWORD PTR [rbx+0x24]
    4f2c:	jmp    4e9d <handle_input+0x20d>
    4f31:	lea    rcx,[rip+0xb608]        # 10540 <__PRETTY_FUNCTION__.12530>
    4f38:	lea    rsi,[rip+0xaa14]        # f953 <_IO_stdin_used+0xf3>
    4f3f:	lea    rdi,[rip+0xaa1e]        # f964 <_IO_stdin_used+0x104>
    4f46:	mov    edx,0x526
    4f4b:	call   28d0 <__assert_fail@plt>

0000000000004f50 <send_ack>:
    4f50:	lea    rdx,[rip+0xaa38]        # f98f <_IO_stdin_used+0x12f>
    4f57:	mov    ecx,0x3
    4f5c:	jmp    4a40 <send_reply>
    4f61:	nop    DWORD PTR [rax+rax*1+0x0]
    4f66:	nop    WORD PTR cs:[rax+rax*1+0x0]

0000000000004f70 <is_valid_nodename>:
    4f70:	push   r12
    4f72:	push   rbp
    4f73:	xor    ebp,ebp
    4f75:	push   rbx
    4f76:	cmp    BYTE PTR [rdi],0x2f
    4f79:	je     4f88 <is_valid_nodename+0x18>
    4f7b:	mov    eax,ebp
    4f7d:	pop    rbx
    4f7e:	pop    rbp
    4f7f:	pop    r12
    4f81:	ret    
    4f82:	nop    WORD PTR [rax+rax*1+0x0]
    4f88:	mov    rbx,rdi
    4f8b:	call   2800 <strlen@plt>
    4f90:	test   rax,rax
    4f93:	mov    r12,rax
    4f96:	je     4fcd <is_valid_nodename+0x5d>
    4f98:	lea    rdx,[rip+0xa9f4]        # f993 <_IO_stdin_used+0x133>
    4f9f:	lea    rsi,[rbx+rax*1-0x1]
    4fa4:	mov    ecx,0x2
    4fa9:	mov    rdi,rdx
    4fac:	repz cmps BYTE PTR ds:[rsi],BYTE PTR es:[rdi]
    4fae:	seta   al
    4fb1:	sbb    al,0x0
    4fb3:	test   al,al
    4fb5:	jne    4fcd <is_valid_nodename+0x5d>
    4fb7:	mov    ecx,0x2
    4fbc:	mov    rsi,rbx
    4fbf:	mov    rdi,rdx
    4fc2:	repz cmps BYTE PTR ds:[rsi],BYTE PTR es:[rdi]
    4fc4:	seta   al
    4fc7:	sbb    al,0x0
    4fc9:	test   al,al
    4fcb:	jne    4f7b <is_valid_nodename+0xb>
    4fcd:	lea    rsi,[rip+0xa9be]        # f992 <_IO_stdin_used+0x132>
    4fd4:	mov    rdi,rbx
    4fd7:	call   2c60 <strstr@plt>
    4fdc:	test   rax,rax
    4fdf:	jne    5008 <is_valid_nodename+0x98>
    4fe1:	cmp    r12,0xc00
    4fe8:	ja     5008 <is_valid_nodename+0x98>
    4fea:	lea    rsi,[rip+0xaedf]        # fed0 <_IO_stdin_used+0x670>
    4ff1:	mov    rdi,rbx
    4ff4:	call   2960 <strspn@plt>
    4ff9:	cmp    r12,rax
    4ffc:	sete   bpl
    5000:	jmp    4f7b <is_valid_nodename+0xb>
    5005:	nop    DWORD PTR [rax]
    5008:	xor    ebp,ebp
    500a:	mov    eax,ebp
    500c:	pop    rbx
    500d:	pop    rbp
    500e:	pop    r12
    5010:	ret    
    5011:	nop    DWORD PTR [rax+rax*1+0x0]
    5016:	nop    WORD PTR cs:[rax+rax*1+0x0]

0000000000005020 <onearg>:
    5020:	push   rbp
    5021:	push   rbx
    5022:	sub    rsp,0x8
    5026:	mov    ebp,DWORD PTR [rdi+0x14]
    5029:	test   ebp,ebp
    502b:	je     5050 <onearg+0x30>
    502d:	lea    rsi,[rdi+0x28]
    5031:	xor    edx,edx
    5033:	mov    rbx,rdi
    5036:	mov    edi,ebp
    5038:	call   3a50 <get_string.isra.1>
    503d:	cmp    ebp,eax
    503f:	jne    5050 <onearg+0x30>
    5041:	mov    rax,QWORD PTR [rbx+0x28]
    5045:	add    rsp,0x8
    5049:	pop    rbx
    504a:	pop    rbp
    504b:	ret    
    504c:	nop    DWORD PTR [rax+0x0]
    5050:	add    rsp,0x8
    5054:	xor    eax,eax
    5056:	pop    rbx
    5057:	pop    rbp
    5058:	ret    
    5059:	nop    DWORD PTR [rax+0x0]

0000000000005060 <canonicalize>:
    5060:	test   rdx,rdx
    5063:	je     50b0 <canonicalize+0x50>
    5065:	movzx  eax,BYTE PTR [rdx]
    5068:	cmp    al,0x40
    506a:	je     50b0 <canonicalize+0x50>
    506c:	cmp    al,0x2f
    506e:	je     50b0 <canonicalize+0x50>
    5070:	push   rbx
    5071:	mov    rbx,rsi
    5074:	sub    rsp,0x10
    5078:	mov    QWORD PTR [rsp+0x8],rdx
    507d:	call   7ea0 <get_implicit_path>
    5082:	test   rax,rax
    5085:	mov    rdx,QWORD PTR [rsp+0x8]
    508a:	je     50b8 <canonicalize+0x58>
    508c:	add    rsp,0x10
    5090:	mov    rdi,rbx
    5093:	lea    rsi,[rip+0xa8fb]        # f995 <_IO_stdin_used+0x135>
    509a:	pop    rbx
    509b:	mov    rcx,rdx
    509e:	mov    rdx,rax
    50a1:	xor    eax,eax
    50a3:	jmp    b950 <talloc_asprintf>
    50a8:	nop    DWORD PTR [rax+rax*1+0x0]
    50b0:	mov    rax,rdx
    50b3:	ret    
    50b4:	nop    DWORD PTR [rax+0x0]
    50b8:	add    rsp,0x10
    50bc:	mov    rax,rdx
    50bf:	pop    rbx
    50c0:	ret    
    50c1:	nop    DWORD PTR [rax+rax*1+0x0]
    50c6:	nop    WORD PTR cs:[rax+rax*1+0x0]

00000000000050d0 <new_connection>:
    50d0:	push   r12
    50d2:	push   rbp
    50d3:	mov    r12,rdi
    50d6:	push   rbx
    50d7:	mov    rbp,rsi
    50da:	call   bb70 <talloc_autofree_context>
    50df:	lea    rdx,[rip+0xa8b5]        # f99b <_IO_stdin_used+0x13b>
    50e6:	mov    esi,0x88
    50eb:	mov    rdi,rax
    50ee:	call   b280 <_talloc_zero>
    50f3:	test   rax,rax
    50f6:	mov    rbx,rax
    50f9:	je     5184 <new_connection+0xb4>
    50ff:	mov    QWORD PTR [rax+0x10],0xffffffffffffffff
    5107:	mov    QWORD PTR [rax+0x78],r12
    510b:	lea    rax,[rax+0x28]
    510f:	mov    QWORD PTR [rax+0x58],rbp
    5113:	mov    BYTE PTR [rax-0xc],0x1
    5117:	lea    rcx,[rip+0x211142]        # 216260 <connections>
    511e:	mov    DWORD PTR [rax+0x2c],0x0
    5125:	mov    QWORD PTR [rbx+0x28],rax
    5129:	lea    rsi,[rip+0xfffffffffffff6a0]        # 47d0 <destroy_conn>
    5130:	mov    QWORD PTR [rbx+0x30],rax
    5134:	lea    rax,[rbx+0x68]
    5138:	mov    rdi,rbx
    513b:	mov    QWORD PTR [rbx+0x68],rax
    513f:	mov    QWORD PTR [rbx+0x70],rax
    5143:	lea    rax,[rbx+0x40]
    5147:	mov    QWORD PTR [rbx+0x40],rax
    514b:	mov    QWORD PTR [rbx+0x48],rax
    514f:	mov    rax,QWORD PTR [rip+0x211112]        # 216268 <connections+0x8>
    5156:	mov    QWORD PTR [rip+0x21110b],rbx        # 216268 <connections+0x8>
    515d:	mov    QWORD PTR [rbx],rcx
    5160:	mov    QWORD PTR [rbx+0x8],rax
    5164:	mov    QWORD PTR [rax],rbx
    5167:	call   a1f0 <talloc_set_destructor>
    516c:	lea    rsi,[rip+0xa82f]        # f9a2 <_IO_stdin_used+0x142>
    5173:	lea    rdi,[rip+0xa775]        # f8ef <_IO_stdin_used+0x8f>
    517a:	mov    rdx,rbx
    517d:	xor    eax,eax
    517f:	call   3d00 <trace>
    5184:	mov    rax,rbx
    5187:	pop    rbx
    5188:	pop    rbp
    5189:	pop    r12
    518b:	ret    
    518c:	nop    DWORD PTR [rax+0x0]

0000000000005190 <accept_connection>:
    5190:	push   rbp
    5191:	push   rbx
    5192:	xor    edx,edx
    5194:	mov    ebp,esi
    5196:	xor    esi,esi
    5198:	sub    rsp,0x8
    519c:	call   2bb0 <accept@plt>
    51a1:	test   eax,eax
    51a3:	js     51c6 <accept_connection+0x36>
    51a5:	lea    rsi,[rip+0xffffffffffffe7b4]        # 3960 <readfd>
    51ac:	lea    rdi,[rip+0xffffffffffffe72d]        # 38e0 <writefd>
    51b3:	mov    ebx,eax
    51b5:	call   50d0 <new_connection>
    51ba:	test   rax,rax
    51bd:	je     51d0 <accept_connection+0x40>
    51bf:	mov    DWORD PTR [rax+0x10],ebx
    51c2:	mov    BYTE PTR [rax+0x1c],bpl
    51c6:	add    rsp,0x8
    51ca:	pop    rbx
    51cb:	pop    rbp
    51cc:	ret    
    51cd:	nop    DWORD PTR [rax]
    51d0:	add    rsp,0x8
    51d4:	mov    edi,ebx
    51d6:	pop    rbx
    51d7:	pop    rbp
    51d8:	jmp    2930 <close@plt>
    51dd:	nop    DWORD PTR [rax]

00000000000051e0 <remember_string>:
    51e0:	push   r12
    51e2:	push   rbp
    51e3:	mov    r12,rdi
    51e6:	push   rbx
    51e7:	mov    rdi,rsi
    51ea:	mov    rbp,rsi
    51ed:	call   2800 <strlen@plt>
    51f2:	lea    rbx,[rax+0x1]
    51f6:	mov    rdi,rbx
    51f9:	call   2a50 <malloc@plt>
    51fe:	test   rax,rax
    5201:	je     5228 <remember_string+0x48>
    5203:	mov    rdx,rbx
    5206:	mov    rsi,rbp
    5209:	mov    rdi,rax
    520c:	call   2a20 <memcpy@plt>
    5211:	pop    rbx
    5212:	mov    rdi,r12
    5215:	mov    edx,0x1
    521a:	mov    rsi,rax
    521d:	pop    rbp
    521e:	pop    r12
    5220:	jmp    f010 <hashtable_insert>
    5225:	nop    DWORD PTR [rax]
    5228:	pop    rbx
    5229:	xor    eax,eax
    522b:	pop    rbp
    522c:	pop    r12
    522e:	ret    
    522f:	nop

0000000000005230 <corrupt>:
    5230:	push   r12
    5232:	push   rbp
    5233:	mov    rbp,rsi
    5236:	push   rbx
    5237:	mov    rbx,rdi
    523a:	sub    rsp,0xd0
    5241:	test   al,al
    5243:	mov    QWORD PTR [rsp+0x30],rdx
    5248:	mov    QWORD PTR [rsp+0x38],rcx
    524d:	mov    QWORD PTR [rsp+0x40],r8
    5252:	mov    QWORD PTR [rsp+0x48],r9
    5257:	je     5290 <corrupt+0x60>
    5259:	movaps XMMWORD PTR [rsp+0x50],xmm0
    525e:	movaps XMMWORD PTR [rsp+0x60],xmm1
    5263:	movaps XMMWORD PTR [rsp+0x70],xmm2
    5268:	movaps XMMWORD PTR [rsp+0x80],xmm3
    5270:	movaps XMMWORD PTR [rsp+0x90],xmm4
    5278:	movaps XMMWORD PTR [rsp+0xa0],xmm5
    5280:	movaps XMMWORD PTR [rsp+0xb0],xmm6
    5288:	movaps XMMWORD PTR [rsp+0xc0],xmm7
    5290:	mov    rax,QWORD PTR fs:0x28
    5299:	mov    QWORD PTR [rsp+0x18],rax
    529e:	xor    eax,eax
    52a0:	call   2750 <__errno_location@plt>
    52a5:	mov    rdx,rsp
    52a8:	mov    rsi,rbp
    52ab:	xor    edi,edi
    52ad:	mov    r12d,DWORD PTR [rax]
    52b0:	lea    rax,[rsp+0xf0]
    52b8:	mov    DWORD PTR [rsp],0x10
    52bf:	mov    DWORD PTR [rsp+0x4],0x30
    52c7:	mov    QWORD PTR [rsp+0x8],rax
    52cc:	lea    rax,[rsp+0x20]
    52d1:	mov    QWORD PTR [rsp+0x10],rax
    52d6:	call   b460 <talloc_vasprintf>
    52db:	mov    edi,r12d
    52de:	mov    rbp,rax
    52e1:	call   2c30 <strerror@plt>
    52e6:	test   rbx,rbx
    52e9:	mov    edx,0xffffffff
    52ee:	je     52f3 <corrupt+0xc3>
    52f0:	mov    edx,DWORD PTR [rbx+0x18]
    52f3:	lea    rsi,[rip+0xac1e]        # ff18 <_IO_stdin_used+0x6b8>
    52fa:	mov    rcx,rax
    52fd:	xor    edi,edi
    52ff:	xor    eax,eax
    5301:	mov    r8,rbp
    5304:	call   b950 <talloc_asprintf>
    5309:	test   rax,rax
    530c:	mov    rbx,rax
    530f:	je     5370 <corrupt+0x140>
    5311:	lea    rdi,[rip+0xa5bc]        # f8d4 <_IO_stdin_used+0x74>
    5318:	mov    rsi,rax
    531b:	xor    eax,eax
    531d:	call   3d00 <trace>
    5322:	lea    rdx,[rip+0xa5b4]        # f8dd <_IO_stdin_used+0x7d>
    5329:	mov    edi,0x3
    532e:	mov    rcx,rbx
    5331:	mov    esi,0x1
    5336:	xor    eax,eax
    5338:	call   2b60 <__syslog_chk@plt>
    533d:	mov    rdi,rbx
    5340:	call   a6a0 <talloc_free>
    5345:	call   5b90 <check_store>
    534a:	mov    rax,QWORD PTR [rsp+0x18]
    534f:	xor    rax,QWORD PTR fs:0x28
    5358:	jne    5398 <corrupt+0x168>
    535a:	add    rsp,0xd0
    5361:	pop    rbx
    5362:	pop    rbp
    5363:	pop    r12
    5365:	ret    
    5366:	nop    WORD PTR cs:[rax+rax*1+0x0]
    5370:	lea    rdi,[rip+0xaa51]        # fdc8 <_IO_stdin_used+0x568>
    5377:	xor    eax,eax
    5379:	call   3d00 <trace>
    537e:	lea    rdx,[rip+0xaa43]        # fdc8 <_IO_stdin_used+0x568>
    5385:	mov    esi,0x1
    538a:	mov    edi,0x3
    538f:	xor    eax,eax
    5391:	call   2b60 <__syslog_chk@plt>
    5396:	jmp    5345 <corrupt+0x115>
    5398:	call   2820 <__stack_chk_fail@plt>
    539d:	nop    DWORD PTR [rax]

00000000000053a0 <write_node_raw>:
    53a0:	push   r14
    53a2:	push   r13
    53a4:	mov    r13,rdi
    53a7:	push   r12
    53a9:	push   rbp
    53aa:	mov    r12,rsi
    53ad:	push   rbx
    53ae:	mov    rbx,rdx
    53b1:	mov    edx,DWORD PTR [rdx+0x18]
    53b4:	mov    eax,DWORD PTR [rbx+0x28]
    53b7:	mov    ecx,DWORD PTR [rbx+0x38]
    53ba:	add    rax,rcx
    53bd:	lea    r14,[rax+rdx*8+0x18]
    53c2:	call   7ae0 <domain_is_unprivileged>
    53c7:	test   al,al
    53c9:	je     53db <write_node_raw+0x3b>
    53cb:	movsxd rax,DWORD PTR [rip+0x210c42]        # 216014 <quota_max_entry_size>
    53d2:	cmp    r14,rax
    53d5:	jae    5480 <write_node_raw+0xe0>
    53db:	lea    rdx,[rip+0xa5cb]        # f9ad <_IO_stdin_used+0x14d>
    53e2:	mov    rsi,r14
    53e5:	mov    rdi,rbx
    53e8:	call   a240 <talloc_named_const>
    53ed:	mov    rbp,rax
    53f0:	mov    rax,QWORD PTR [rbx+0x10]
    53f4:	lea    rcx,[rbp+0x14]
    53f8:	mov    QWORD PTR [rbp+0x0],rax
    53fc:	mov    eax,DWORD PTR [rbx+0x18]
    53ff:	mov    rdi,rcx
    5402:	mov    DWORD PTR [rbp+0x8],eax
    5405:	mov    eax,DWORD PTR [rbx+0x28]
    5408:	mov    DWORD PTR [rbp+0xc],eax
    540b:	mov    eax,DWORD PTR [rbx+0x38]
    540e:	mov    DWORD PTR [rbp+0x10],eax
    5411:	mov    edx,DWORD PTR [rbx+0x18]
    5414:	mov    rsi,QWORD PTR [rbx+0x20]
    5418:	shl    rdx,0x3
    541c:	call   2a20 <memcpy@plt>
    5421:	mov    rcx,rax
    5424:	mov    eax,DWORD PTR [rbx+0x18]
    5427:	mov    edx,DWORD PTR [rbx+0x28]
    542a:	mov    rsi,QWORD PTR [rbx+0x30]
    542e:	lea    rcx,[rcx+rax*8]
    5432:	mov    rdi,rcx
    5435:	call   2a20 <memcpy@plt>
    543a:	mov    edi,DWORD PTR [rbx+0x28]
    543d:	mov    edx,DWORD PTR [rbx+0x38]
    5440:	mov    rsi,QWORD PTR [rbx+0x40]
    5444:	add    rdi,rax
    5447:	call   2a20 <memcpy@plt>
    544c:	mov    rsi,QWORD PTR [r12]
    5450:	mov    rdx,QWORD PTR [r12+0x8]
    5455:	mov    r9d,0x1
    545b:	mov    rdi,QWORD PTR [rip+0x210e7e]        # 2162e0 <tdb_ctx>
    5462:	mov    rcx,rbp
    5465:	mov    r8,r14
    5468:	call   e040 <tdb_store>
    546d:	test   eax,eax
    546f:	jne    54a0 <write_node_raw+0x100>
    5475:	pop    rbx
    5476:	pop    rbp
    5477:	pop    r12
    5479:	pop    r13
    547b:	pop    r14
    547d:	ret    
    547e:	xchg   ax,ax
    5480:	call   2750 <__errno_location@plt>
    5485:	mov    DWORD PTR [rax],0x1c
    548b:	mov    eax,0x1c
    5490:	pop    rbx
    5491:	pop    rbp
    5492:	pop    r12
    5494:	pop    r13
    5496:	pop    r14
    5498:	ret    
    5499:	nop    DWORD PTR [rax+0x0]
    54a0:	mov    rdx,QWORD PTR [r12]
    54a4:	lea    rsi,[rip+0xa517]        # f9c2 <_IO_stdin_used+0x162>
    54ab:	mov    rdi,r13
    54ae:	xor    eax,eax
    54b0:	call   5230 <corrupt>
    54b5:	call   2750 <__errno_location@plt>
    54ba:	mov    DWORD PTR [rax],0x5
    54c0:	mov    eax,0x5
    54c5:	pop    rbx
    54c6:	pop    rbp
    54c7:	pop    r12
    54c9:	pop    r13
    54cb:	pop    r14
    54cd:	ret    
    54ce:	xchg   ax,ax

00000000000054d0 <write_node>:
    54d0:	push   r12
    54d2:	push   rbp
    54d3:	mov    edx,0x1
    54d8:	push   rbx
    54d9:	mov    r12,rsi
    54dc:	mov    rbx,rdi
    54df:	sub    rsp,0x20
    54e3:	mov    rbp,rsp
    54e6:	mov    rcx,rbp
    54e9:	mov    rax,QWORD PTR fs:0x28
    54f2:	mov    QWORD PTR [rsp+0x18],rax
    54f7:	xor    eax,eax
    54f9:	call   8ce0 <access_node>
    54fe:	test   eax,eax
    5500:	je     5528 <write_node+0x58>
    5502:	call   2750 <__errno_location@plt>
    5507:	mov    eax,DWORD PTR [rax]
    5509:	mov    rcx,QWORD PTR [rsp+0x18]
    550e:	xor    rcx,QWORD PTR fs:0x28
    5517:	jne    5538 <write_node+0x68>
    5519:	add    rsp,0x20
    551d:	pop    rbx
    551e:	pop    rbp
    551f:	pop    r12
    5521:	ret    
    5522:	nop    WORD PTR [rax+rax*1+0x0]
    5528:	mov    rdx,r12
    552b:	mov    rsi,rbp
    552e:	mov    rdi,rbx
    5531:	call   53a0 <write_node_raw>
    5536:	jmp    5509 <write_node+0x39>
    5538:	call   2820 <__stack_chk_fail@plt>
    553d:	nop    DWORD PTR [rax]

0000000000005540 <remove_child_entry>:
    5540:	push   r14
    5542:	push   r13
    5544:	mov    r14,rdx
    5547:	push   r12
    5549:	push   rbp
    554a:	mov    rbp,rdi
    554d:	push   rbx
    554e:	mov    r12,QWORD PTR [rsi+0x40]
    5552:	mov    rbx,rsi
    5555:	lea    rdi,[r12+rdx*1]
    5559:	call   2800 <strlen@plt>
    555e:	mov    edx,DWORD PTR [rbx+0x38]
    5561:	lea    esi,[rax+0x1]
    5564:	mov    edi,r14d
    5567:	mov    r13,rax
    556a:	not    r13d
    556d:	sub    edx,r14d
    5570:	sub    edx,esi
    5572:	add    rsi,rdi
    5575:	add    rdi,r12
    5578:	add    rsi,r12
    557b:	call   2b50 <memmove@plt>
    5580:	add    DWORD PTR [rbx+0x38],r13d
    5584:	mov    rsi,rbx
    5587:	mov    rdi,rbp
    558a:	pop    rbx
    558b:	pop    rbp
    558c:	pop    r12
    558e:	pop    r13
    5590:	pop    r14
    5592:	jmp    54d0 <write_node>
    5597:	nop    WORD PTR [rax+rax*1+0x0]

00000000000055a0 <check_store_>:
    55a0:	push   r15
    55a2:	push   r14
    55a4:	mov    rdx,rdi
    55a7:	push   r13
    55a9:	push   r12
    55ab:	mov    r15,rsi
    55ae:	push   rbp
    55af:	push   rbx
    55b0:	mov    rbx,rdi
    55b3:	sub    rsp,0x28
    55b7:	mov    QWORD PTR [rsp+0x18],rsi
    55bc:	mov    rsi,rdi
    55bf:	xor    edi,edi
    55c1:	call   3ea0 <read_node>
    55c6:	test   rax,rax
    55c9:	je     57f8 <check_store_+0x258>
    55cf:	lea    rdx,[rip+0xffffffffffffe36a]        # 3940 <keys_equal_fn>
    55d6:	lea    rsi,[rip+0xffffffffffffe1a3]        # 3780 <hash_from_key_fn>
    55dd:	mov    edi,0x10
    55e2:	mov    rbp,rax
    55e5:	call   eeb0 <create_hashtable>
    55ea:	mov    rsi,rbx
    55ed:	mov    rdi,r15
    55f0:	mov    QWORD PTR [rsp+0x10],rax
    55f5:	call   51e0 <remember_string>
    55fa:	test   eax,eax
    55fc:	je     5968 <check_store_+0x3c8>
    5602:	mov    eax,DWORD PTR [rbp+0x38]
    5605:	xor    r12d,r12d
    5608:	xor    r13d,r13d
    560b:	test   eax,eax
    560d:	je     5730 <check_store_+0x190>
    5613:	mov    rbx,QWORD PTR [rbp+0x40]
    5617:	add    rbx,r12
    561a:	mov    rdi,rbx
    561d:	call   2800 <strlen@plt>
    5622:	mov    rdx,QWORD PTR [rbp+0x0]
    5626:	lea    rdi,[rip+0xa366]        # f993 <_IO_stdin_used+0x133>
    562d:	mov    ecx,0x2
    5632:	mov    QWORD PTR [rsp+0x8],rax
    5637:	mov    rsi,rdx
    563a:	repz cmps BYTE PTR ds:[rsi],BYTE PTR es:[rdi]
    563c:	seta   al
    563f:	sbb    al,0x0
    5641:	test   al,al
    5643:	jne    5750 <check_store_+0x1b0>
    5649:	lea    rsi,[rip+0xa347]        # f997 <_IO_stdin_used+0x137>
    5650:	mov    rdx,rbx
    5653:	xor    edi,edi
    5655:	xor    eax,eax
    5657:	call   b950 <talloc_asprintf>
    565c:	mov    rbx,rax
    565f:	test   rbx,rbx
    5662:	je     576f <check_store_+0x1cf>
    5668:	xor    edi,edi
    566a:	mov    rdx,rbx
    566d:	mov    rsi,rbx
    5670:	call   3ea0 <read_node>
    5675:	test   rax,rax
    5678:	mov    r14,rax
    567b:	je     57d0 <check_store_+0x230>
    5681:	mov    rdi,QWORD PTR [rsp+0x10]
    5686:	mov    rsi,rbx
    5689:	call   f240 <hashtable_search>
    568e:	test   rax,rax
    5691:	je     58d0 <check_store_+0x330>
    5697:	lea    rsi,[rip+0xa8b2]        # ff50 <_IO_stdin_used+0x6f0>
    569e:	mov    rdx,rbx
    56a1:	xor    edi,edi
    56a3:	xor    eax,eax
    56a5:	call   b950 <talloc_asprintf>
    56aa:	test   rax,rax
    56ad:	mov    r13,rax
    56b0:	je     58a0 <check_store_+0x300>
    56b6:	lea    rdi,[rip+0xa217]        # f8d4 <_IO_stdin_used+0x74>
    56bd:	mov    rsi,rax
    56c0:	xor    eax,eax
    56c2:	call   3d00 <trace>
    56c7:	lea    rdx,[rip+0xa20f]        # f8dd <_IO_stdin_used+0x7d>
    56ce:	mov    edi,0x3
    56d3:	mov    rcx,r13
    56d6:	mov    esi,0x1
    56db:	xor    eax,eax
    56dd:	call   2b60 <__syslog_chk@plt>
    56e2:	mov    rdi,r13
    56e5:	call   a6a0 <talloc_free>
    56ea:	movzx  r15d,BYTE PTR [rip+0x210932]        # 216024 <recovery>
    56f2:	test   r15b,r15b
    56f5:	jne    5878 <check_store_+0x2d8>
    56fb:	mov    r15d,0x1
    5701:	xor    r13d,r13d
    5704:	mov    rdi,r14
    5707:	call   a6a0 <talloc_free>
    570c:	mov    rdi,rbx
    570f:	call   a6a0 <talloc_free>
    5714:	mov    rax,QWORD PTR [rsp+0x8]
    5719:	lea    r12,[r12+rax*1+0x1]
    571e:	mov    eax,DWORD PTR [rbp+0x38]
    5721:	cmp    rax,r12
    5724:	jbe    5730 <check_store_+0x190>
    5726:	test   r15b,r15b
    5729:	jne    5613 <check_store_+0x73>
    572f:	nop
    5730:	mov    rdi,QWORD PTR [rsp+0x10]
    5735:	xor    esi,esi
    5737:	call   f3b0 <hashtable_destroy>
    573c:	mov    rdi,rbp
    573f:	call   a6a0 <talloc_free>
    5744:	jmp    5860 <check_store_+0x2c0>
    5749:	nop    DWORD PTR [rax+0x0]
    5750:	lea    rsi,[rip+0xa23e]        # f995 <_IO_stdin_used+0x135>
    5757:	mov    rcx,rbx
    575a:	xor    edi,edi
    575c:	xor    eax,eax
    575e:	call   b950 <talloc_asprintf>
    5763:	mov    rbx,rax
    5766:	test   rbx,rbx
    5769:	jne    5668 <check_store_+0xc8>
    576f:	lea    rsi,[rip+0xa25f]        # f9d5 <_IO_stdin_used+0x175>
    5776:	xor    edi,edi
    5778:	xor    eax,eax
    577a:	call   b950 <talloc_asprintf>
    577f:	test   rax,rax
    5782:	mov    rbx,rax
    5785:	je     5ac0 <check_store_+0x520>
    578b:	lea    rdi,[rip+0xa142]        # f8d4 <_IO_stdin_used+0x74>
    5792:	mov    rsi,rax
    5795:	xor    eax,eax
    5797:	mov    r13d,0xc
    579d:	call   3d00 <trace>
    57a2:	lea    rdx,[rip+0xa134]        # f8dd <_IO_stdin_used+0x7d>
    57a9:	mov    rcx,rbx
    57ac:	mov    esi,0x1
    57b1:	mov    edi,0x3
    57b6:	xor    eax,eax
    57b8:	call   2b60 <__syslog_chk@plt>
    57bd:	mov    rdi,rbx
    57c0:	call   a6a0 <talloc_free>
    57c5:	jmp    5730 <check_store_+0x190>
    57ca:	nop    WORD PTR [rax+rax*1+0x0]
    57d0:	call   2750 <__errno_location@plt>
    57d5:	mov    r13d,DWORD PTR [rax]
    57d8:	cmp    r13d,0xc
    57dc:	je     5900 <check_store_+0x360>
    57e2:	mov    rdx,rbx
    57e5:	lea    rsi,[rip+0xa78c]        # ff78 <_IO_stdin_used+0x718>
    57ec:	jmp    56a1 <check_store_+0x101>
    57f1:	nop    DWORD PTR [rax+0x0]
    57f8:	call   2750 <__errno_location@plt>
    57fd:	mov    r13d,DWORD PTR [rax]
    5800:	cmp    r13d,0xc
    5804:	je     5a00 <check_store_+0x460>
    580a:	lea    rsi,[rip+0xa78f]        # ffa0 <_IO_stdin_used+0x740>
    5811:	mov    rdx,rbx
    5814:	xor    edi,edi
    5816:	xor    eax,eax
    5818:	call   b950 <talloc_asprintf>
    581d:	test   rax,rax
    5820:	mov    rbx,rax
    5823:	je     5a90 <check_store_+0x4f0>
    5829:	lea    rdi,[rip+0xa0a4]        # f8d4 <_IO_stdin_used+0x74>
    5830:	mov    rsi,rax
    5833:	xor    eax,eax
    5835:	xor    r13d,r13d
    5838:	call   3d00 <trace>
    583d:	lea    rdx,[rip+0xa099]        # f8dd <_IO_stdin_used+0x7d>
    5844:	mov    rcx,rbx
    5847:	mov    esi,0x1
    584c:	mov    edi,0x3
    5851:	xor    eax,eax
    5853:	call   2b60 <__syslog_chk@plt>
    5858:	mov    rdi,rbx
    585b:	call   a6a0 <talloc_free>
    5860:	add    rsp,0x28
    5864:	mov    eax,r13d
    5867:	pop    rbx
    5868:	pop    rbp
    5869:	pop    r12
    586b:	pop    r13
    586d:	pop    r14
    586f:	pop    r15
    5871:	ret    
    5872:	nop    WORD PTR [rax+rax*1+0x0]
    5878:	mov    rdx,r12
    587b:	mov    rsi,rbp
    587e:	xor    edi,edi
    5880:	call   5540 <remove_child_entry>
    5885:	sub    r12,0x1
    5889:	xor    r13d,r13d
    588c:	sub    r12,QWORD PTR [rsp+0x8]
    5891:	jmp    5704 <check_store_+0x164>
    5896:	nop    WORD PTR cs:[rax+rax*1+0x0]
    58a0:	lea    rdi,[rip+0xa521]        # fdc8 <_IO_stdin_used+0x568>
    58a7:	xor    eax,eax
    58a9:	call   3d00 <trace>
    58ae:	lea    rdx,[rip+0xa513]        # fdc8 <_IO_stdin_used+0x568>
    58b5:	mov    esi,0x1
    58ba:	mov    edi,0x3
    58bf:	xor    eax,eax
    58c1:	call   2b60 <__syslog_chk@plt>
    58c6:	jmp    56ea <check_store_+0x14a>
    58cb:	nop    DWORD PTR [rax+rax*1+0x0]
    58d0:	mov    rdi,QWORD PTR [rsp+0x10]
    58d5:	mov    rsi,rbx
    58d8:	call   51e0 <remember_string>
    58dd:	test   eax,eax
    58df:	je     5af8 <check_store_+0x558>
    58e5:	mov    rsi,QWORD PTR [rsp+0x18]
    58ea:	mov    rdi,rbx
    58ed:	call   55a0 <check_store_>
    58f2:	test   eax,eax
    58f4:	mov    r13d,eax
    58f7:	sete   r15b
    58fb:	jmp    5704 <check_store_+0x164>
    5900:	lea    rsi,[rip+0xa0ce]        # f9d5 <_IO_stdin_used+0x175>
    5907:	xor    edi,edi
    5909:	xor    eax,eax
    590b:	call   b950 <talloc_asprintf>
    5910:	test   rax,rax
    5913:	mov    r12,rax
    5916:	je     59d0 <check_store_+0x430>
    591c:	lea    rdi,[rip+0x9fb1]        # f8d4 <_IO_stdin_used+0x74>
    5923:	mov    rsi,rax
    5926:	xor    eax,eax
    5928:	call   3d00 <trace>
    592d:	lea    rdx,[rip+0x9fa9]        # f8dd <_IO_stdin_used+0x7d>
    5934:	mov    edi,0x3
    5939:	mov    rcx,r12
    593c:	mov    esi,0x1
    5941:	xor    eax,eax
    5943:	call   2b60 <__syslog_chk@plt>
    5948:	mov    rdi,r12
    594b:	call   a6a0 <talloc_free>
    5950:	xor    edi,edi
    5952:	call   a6a0 <talloc_free>
    5957:	mov    rdi,rbx
    595a:	call   a6a0 <talloc_free>
    595f:	jmp    5730 <check_store_+0x190>
    5964:	nop    DWORD PTR [rax+0x0]
    5968:	mov    rdi,QWORD PTR [rsp+0x10]
    596d:	xor    esi,esi
    596f:	call   f3b0 <hashtable_destroy>
    5974:	lea    rsi,[rip+0xa05a]        # f9d5 <_IO_stdin_used+0x175>
    597b:	xor    edi,edi
    597d:	xor    eax,eax
    597f:	call   b950 <talloc_asprintf>
    5984:	test   rax,rax
    5987:	mov    rbx,rax
    598a:	je     5a58 <check_store_+0x4b8>
    5990:	lea    rdi,[rip+0x9f3d]        # f8d4 <_IO_stdin_used+0x74>
    5997:	mov    rsi,rax
    599a:	xor    eax,eax
    599c:	mov    r13d,0xc
    59a2:	call   3d00 <trace>
    59a7:	lea    rdx,[rip+0x9f2f]        # f8dd <_IO_stdin_used+0x7d>
    59ae:	mov    rcx,rbx
    59b1:	mov    esi,0x1
    59b6:	mov    edi,0x3
    59bb:	xor    eax,eax
    59bd:	call   2b60 <__syslog_chk@plt>
    59c2:	mov    rdi,rbx
    59c5:	call   a6a0 <talloc_free>
    59ca:	jmp    5860 <check_store_+0x2c0>
    59cf:	nop
    59d0:	lea    rdi,[rip+0xa3f1]        # fdc8 <_IO_stdin_used+0x568>
    59d7:	xor    eax,eax
    59d9:	call   3d00 <trace>
    59de:	lea    rdx,[rip+0xa3e3]        # fdc8 <_IO_stdin_used+0x568>
    59e5:	mov    esi,0x1
    59ea:	mov    edi,0x3
    59ef:	xor    eax,eax
    59f1:	call   2b60 <__syslog_chk@plt>
    59f6:	jmp    5950 <check_store_+0x3b0>
    59fb:	nop    DWORD PTR [rax+rax*1+0x0]
    5a00:	lea    rsi,[rip+0x9fce]        # f9d5 <_IO_stdin_used+0x175>
    5a07:	xor    edi,edi
    5a09:	xor    eax,eax
    5a0b:	call   b950 <talloc_asprintf>
    5a10:	test   rax,rax
    5a13:	mov    rbx,rax
    5a16:	je     5a58 <check_store_+0x4b8>
    5a18:	lea    rdi,[rip+0x9eb5]        # f8d4 <_IO_stdin_used+0x74>
    5a1f:	mov    rsi,rax
    5a22:	xor    eax,eax
    5a24:	call   3d00 <trace>
    5a29:	lea    rdx,[rip+0x9ead]        # f8dd <_IO_stdin_used+0x7d>
    5a30:	mov    rcx,rbx
    5a33:	mov    esi,0x1
    5a38:	mov    edi,0x3
    5a3d:	xor    eax,eax
    5a3f:	call   2b60 <__syslog_chk@plt>
    5a44:	mov    rdi,rbx
    5a47:	call   a6a0 <talloc_free>
    5a4c:	jmp    5860 <check_store_+0x2c0>
    5a51:	nop    DWORD PTR [rax+0x0]
    5a58:	lea    rdi,[rip+0xa369]        # fdc8 <_IO_stdin_used+0x568>
    5a5f:	xor    eax,eax
    5a61:	mov    r13d,0xc
    5a67:	call   3d00 <trace>
    5a6c:	lea    rdx,[rip+0xa355]        # fdc8 <_IO_stdin_used+0x568>
    5a73:	mov    esi,0x1
    5a78:	mov    edi,0x3
    5a7d:	xor    eax,eax
    5a7f:	call   2b60 <__syslog_chk@plt>
    5a84:	jmp    5860 <check_store_+0x2c0>
    5a89:	nop    DWORD PTR [rax+0x0]
    5a90:	lea    rdi,[rip+0xa331]        # fdc8 <_IO_stdin_used+0x568>
    5a97:	xor    eax,eax
    5a99:	xor    r13d,r13d
    5a9c:	call   3d00 <trace>
    5aa1:	lea    rdx,[rip+0xa320]        # fdc8 <_IO_stdin_used+0x568>
    5aa8:	mov    esi,0x1
    5aad:	mov    edi,0x3
    5ab2:	xor    eax,eax
    5ab4:	call   2b60 <__syslog_chk@plt>
    5ab9:	jmp    5860 <check_store_+0x2c0>
    5abe:	xchg   ax,ax
    5ac0:	lea    rdi,[rip+0xa301]        # fdc8 <_IO_stdin_used+0x568>
    5ac7:	xor    eax,eax
    5ac9:	mov    r13d,0xc
    5acf:	call   3d00 <trace>
    5ad4:	lea    rdx,[rip+0xa2ed]        # fdc8 <_IO_stdin_used+0x568>
    5adb:	mov    esi,0x1
    5ae0:	mov    edi,0x3
    5ae5:	xor    eax,eax
    5ae7:	call   2b60 <__syslog_chk@plt>
    5aec:	jmp    5730 <check_store_+0x190>
    5af1:	nop    DWORD PTR [rax+0x0]
    5af8:	lea    rsi,[rip+0x9ed6]        # f9d5 <_IO_stdin_used+0x175>
    5aff:	xor    edi,edi
    5b01:	call   b950 <talloc_asprintf>
    5b06:	test   rax,rax
    5b09:	mov    r12,rax
    5b0c:	je     5b5d <check_store_+0x5bd>
    5b0e:	lea    rdi,[rip+0x9dbf]        # f8d4 <_IO_stdin_used+0x74>
    5b15:	mov    rsi,rax
    5b18:	xor    eax,eax
    5b1a:	call   3d00 <trace>
    5b1f:	lea    rdx,[rip+0x9db7]        # f8dd <_IO_stdin_used+0x7d>
    5b26:	mov    edi,0x3
    5b2b:	mov    rcx,r12
    5b2e:	mov    esi,0x1
    5b33:	xor    eax,eax
    5b35:	call   2b60 <__syslog_chk@plt>
    5b3a:	mov    rdi,r12
    5b3d:	call   a6a0 <talloc_free>
    5b42:	mov    rdi,r14
    5b45:	mov    r13d,0xc
    5b4b:	call   a6a0 <talloc_free>
    5b50:	mov    rdi,rbx
    5b53:	call   a6a0 <talloc_free>
    5b58:	jmp    5730 <check_store_+0x190>
    5b5d:	lea    rdi,[rip+0xa264]        # fdc8 <_IO_stdin_used+0x568>
    5b64:	xor    eax,eax
    5b66:	call   3d00 <trace>
    5b6b:	lea    rdx,[rip+0xa256]        # fdc8 <_IO_stdin_used+0x568>
    5b72:	mov    esi,0x1
    5b77:	mov    edi,0x3
    5b7c:	xor    eax,eax
    5b7e:	call   2b60 <__syslog_chk@plt>
    5b83:	jmp    5b42 <check_store_+0x5a2>
    5b85:	nop
    5b86:	nop    WORD PTR cs:[rax+rax*1+0x0]

0000000000005b90 <check_store>:
    5b90:	push   r12
    5b92:	lea    rsi,[rip+0x9dfa]        # f993 <_IO_stdin_used+0x133>
    5b99:	push   rbp
    5b9a:	push   rbx
    5b9b:	xor    edi,edi
    5b9d:	call   b2f0 <talloc_strdup>
    5ba2:	lea    rdx,[rip+0xffffffffffffdd97]        # 3940 <keys_equal_fn>
    5ba9:	lea    rsi,[rip+0xffffffffffffdbd0]        # 3780 <hash_from_key_fn>
    5bb0:	mov    edi,0x10
    5bb5:	mov    r12,rax
    5bb8:	call   eeb0 <create_hashtable>
    5bbd:	test   rax,rax
    5bc0:	je     5d00 <check_store+0x170>
    5bc6:	lea    rsi,[rip+0x9e1c]        # f9e9 <_IO_stdin_used+0x189>
    5bcd:	xor    edi,edi
    5bcf:	mov    rbx,rax
    5bd2:	xor    eax,eax
    5bd4:	call   b950 <talloc_asprintf>
    5bd9:	test   rax,rax
    5bdc:	mov    rbp,rax
    5bdf:	je     5c98 <check_store+0x108>
    5be5:	lea    rdi,[rip+0x9ce8]        # f8d4 <_IO_stdin_used+0x74>
    5bec:	mov    rsi,rax
    5bef:	xor    eax,eax
    5bf1:	call   3d00 <trace>
    5bf6:	lea    rdx,[rip+0x9ce0]        # f8dd <_IO_stdin_used+0x7d>
    5bfd:	mov    rcx,rbp
    5c00:	mov    esi,0x1
    5c05:	xor    eax,eax
    5c07:	mov    edi,0x3
    5c0c:	call   2b60 <__syslog_chk@plt>
    5c11:	mov    rdi,rbp
    5c14:	call   a6a0 <talloc_free>
    5c19:	mov    rsi,rbx
    5c1c:	mov    rdi,r12
    5c1f:	call   55a0 <check_store_>
    5c24:	test   eax,eax
    5c26:	je     5cd1 <check_store+0x141>
    5c2c:	lea    rsi,[rip+0x9dc9]        # f9fc <_IO_stdin_used+0x19c>
    5c33:	xor    edi,edi
    5c35:	xor    eax,eax
    5c37:	call   b950 <talloc_asprintf>
    5c3c:	test   rax,rax
    5c3f:	mov    rbp,rax
    5c42:	je     5d50 <check_store+0x1c0>
    5c48:	lea    rdi,[rip+0x9c85]        # f8d4 <_IO_stdin_used+0x74>
    5c4f:	mov    rsi,rax
    5c52:	xor    eax,eax
    5c54:	call   3d00 <trace>
    5c59:	lea    rdx,[rip+0x9c7d]        # f8dd <_IO_stdin_used+0x7d>
    5c60:	mov    edi,0x3
    5c65:	mov    rcx,rbp
    5c68:	mov    esi,0x1
    5c6d:	xor    eax,eax
    5c6f:	call   2b60 <__syslog_chk@plt>
    5c74:	mov    rdi,rbp
    5c77:	call   a6a0 <talloc_free>
    5c7c:	mov    rdi,rbx
    5c7f:	xor    esi,esi
    5c81:	call   f3b0 <hashtable_destroy>
    5c86:	pop    rbx
    5c87:	mov    rdi,r12
    5c8a:	pop    rbp
    5c8b:	pop    r12
    5c8d:	jmp    a6a0 <talloc_free>
    5c92:	nop    WORD PTR [rax+rax*1+0x0]
    5c98:	lea    rdi,[rip+0xa129]        # fdc8 <_IO_stdin_used+0x568>
    5c9f:	xor    eax,eax
    5ca1:	call   3d00 <trace>
    5ca6:	lea    rdx,[rip+0xa11b]        # fdc8 <_IO_stdin_used+0x568>
    5cad:	xor    eax,eax
    5caf:	mov    esi,0x1
    5cb4:	mov    edi,0x3
    5cb9:	call   2b60 <__syslog_chk@plt>
    5cbe:	mov    rsi,rbx
    5cc1:	mov    rdi,r12
    5cc4:	call   55a0 <check_store_>
    5cc9:	test   eax,eax
    5ccb:	jne    5c2c <check_store+0x9c>
    5cd1:	mov    rdi,rbx
    5cd4:	call   96c0 <check_transactions>
    5cd9:	test   eax,eax
    5cdb:	jne    5c2c <check_store+0x9c>
    5ce1:	mov    rdi,QWORD PTR [rip+0x2105f8]        # 2162e0 <tdb_ctx>
    5ce8:	lea    rsi,[rip+0xffffffffffffe801]        # 44f0 <clean_store_>
    5cef:	mov    rdx,rbx
    5cf2:	call   dab0 <tdb_traverse>
    5cf7:	jmp    5c2c <check_store+0x9c>
    5cfc:	nop    DWORD PTR [rax+0x0]
    5d00:	lea    rsi,[rip+0x9cce]        # f9d5 <_IO_stdin_used+0x175>
    5d07:	xor    edi,edi
    5d09:	xor    eax,eax
    5d0b:	call   b950 <talloc_asprintf>
    5d10:	test   rax,rax
    5d13:	mov    rbx,rax
    5d16:	je     5d80 <check_store+0x1f0>
    5d18:	lea    rdi,[rip+0x9bb5]        # f8d4 <_IO_stdin_used+0x74>
    5d1f:	mov    rsi,rax
    5d22:	xor    eax,eax
    5d24:	call   3d00 <trace>
    5d29:	lea    rdx,[rip+0x9bad]        # f8dd <_IO_stdin_used+0x7d>
    5d30:	mov    rcx,rbx
    5d33:	mov    edi,0x3
    5d38:	mov    esi,0x1
    5d3d:	xor    eax,eax
    5d3f:	call   2b60 <__syslog_chk@plt>
    5d44:	mov    rdi,rbx
    5d47:	pop    rbx
    5d48:	pop    rbp
    5d49:	pop    r12
    5d4b:	jmp    a6a0 <talloc_free>
    5d50:	lea    rdi,[rip+0xa071]        # fdc8 <_IO_stdin_used+0x568>
    5d57:	xor    eax,eax
    5d59:	call   3d00 <trace>
    5d5e:	lea    rdx,[rip+0xa063]        # fdc8 <_IO_stdin_used+0x568>
    5d65:	mov    esi,0x1
    5d6a:	mov    edi,0x3
    5d6f:	xor    eax,eax
    5d71:	call   2b60 <__syslog_chk@plt>
    5d76:	jmp    5c7c <check_store+0xec>
    5d7b:	nop    DWORD PTR [rax+rax*1+0x0]
    5d80:	lea    rdi,[rip+0xa041]        # fdc8 <_IO_stdin_used+0x568>
    5d87:	xor    eax,eax
    5d89:	call   3d00 <trace>
    5d8e:	pop    rbx
    5d8f:	pop    rbp
    5d90:	pop    r12
    5d92:	lea    rdx,[rip+0xa02f]        # fdc8 <_IO_stdin_used+0x568>
    5d99:	mov    esi,0x1
    5d9e:	mov    edi,0x3
    5da3:	xor    eax,eax
    5da5:	jmp    2b60 <__syslog_chk@plt>
    5daa:	nop    WORD PTR [rax+rax*1+0x0]

0000000000005db0 <create_node>:
    5db0:	push   r13
    5db2:	push   r12
    5db4:	mov    r13,rcx
    5db7:	push   rbp
    5db8:	push   rbx
    5db9:	mov    rbp,rdi
    5dbc:	mov    ebx,r8d
    5dbf:	sub    rsp,0x8
    5dc3:	call   40c0 <construct_node>
    5dc8:	test   rax,rax
    5dcb:	mov    r12,rax
    5dce:	je     5e23 <create_node+0x73>
    5dd0:	mov    QWORD PTR [rax+0x30],r13
    5dd4:	lea    r13,[rip+0x10c5]        # 6ea0 <destroy_node>
    5ddb:	mov    DWORD PTR [rax+0x28],ebx
    5dde:	mov    rbx,rax
    5de1:	nop    DWORD PTR [rax+0x0]
    5de8:	mov    rsi,rbx
    5deb:	mov    rdi,rbp
    5dee:	call   54d0 <write_node>
    5df3:	test   eax,eax
    5df5:	jne    5e38 <create_node+0x88>
    5df7:	mov    rdi,rbx
    5dfa:	mov    rsi,r13
    5dfd:	call   a1f0 <talloc_set_destructor>
    5e02:	mov    rbx,QWORD PTR [rbx+0x8]
    5e06:	test   rbx,rbx
    5e09:	jne    5de8 <create_node+0x38>
    5e0b:	mov    rbx,r12
    5e0e:	xchg   ax,ax
    5e10:	xor    esi,esi
    5e12:	mov    rdi,rbx
    5e15:	call   a1f0 <talloc_set_destructor>
    5e1a:	mov    rbx,QWORD PTR [rbx+0x8]
    5e1e:	test   rbx,rbx
    5e21:	jne    5e10 <create_node+0x60>
    5e23:	add    rsp,0x8
    5e27:	mov    rax,r12
    5e2a:	pop    rbx
    5e2b:	pop    rbp
    5e2c:	pop    r12
    5e2e:	pop    r13
    5e30:	ret    
    5e31:	nop    DWORD PTR [rax+0x0]
    5e38:	mov    rsi,rbx
    5e3b:	mov    rdi,rbp
    5e3e:	xor    r12d,r12d
    5e41:	call   7f50 <domain_entry_dec>
    5e46:	add    rsp,0x8
    5e4a:	mov    rax,r12
    5e4d:	pop    rbx
    5e4e:	pop    rbp
    5e4f:	pop    r12
    5e51:	pop    r13
    5e53:	ret    
    5e54:	xchg   ax,ax
    5e56:	nop    WORD PTR cs:[rax+rax*1+0x0]

0000000000005e60 <manual_node>:
    5e60:	push   r12
    5e62:	push   rbp
    5e63:	lea    rdx,[rip+0x99ff]        # f869 <_IO_stdin_used+0x9>
    5e6a:	push   rbx
    5e6b:	mov    r12,rdi
    5e6e:	mov    rbp,rsi
    5e71:	xor    edi,edi
    5e73:	mov    esi,0x48
    5e78:	sub    rsp,0x10
    5e7c:	mov    rax,QWORD PTR fs:0x28
    5e85:	mov    QWORD PTR [rsp+0x8],rax
    5e8a:	xor    eax,eax
    5e8c:	mov    DWORD PTR [rsp],0x0
    5e93:	mov    DWORD PTR [rsp+0x4],0x0
    5e9b:	call   b280 <_talloc_zero>
    5ea0:	test   rax,rax
    5ea3:	je     5eff <manual_node+0x9f>
    5ea5:	mov    rbx,rax
    5ea8:	mov    QWORD PTR [rax],r12
    5eab:	test   rbp,rbp
    5eae:	mov    rax,rsp
    5eb1:	mov    DWORD PTR [rbx+0x18],0x1
    5eb8:	mov    QWORD PTR [rbx+0x40],rbp
    5ebc:	mov    QWORD PTR [rbx+0x20],rax
    5ec0:	je     5ed0 <manual_node+0x70>
    5ec2:	mov    rdi,rbp
    5ec5:	call   2800 <strlen@plt>
    5eca:	add    eax,0x1
    5ecd:	mov    DWORD PTR [rbx+0x38],eax
    5ed0:	xor    edi,edi
    5ed2:	mov    rsi,rbx
    5ed5:	call   54d0 <write_node>
    5eda:	test   eax,eax
    5edc:	jne    5f15 <manual_node+0xb5>
    5ede:	mov    rdi,rbx
    5ee1:	call   a6a0 <talloc_free>
    5ee6:	mov    rax,QWORD PTR [rsp+0x8]
    5eeb:	xor    rax,QWORD PTR fs:0x28
    5ef4:	jne    5f10 <manual_node+0xb0>
    5ef6:	add    rsp,0x10
    5efa:	pop    rbx
    5efb:	pop    rbp
    5efc:	pop    r12
    5efe:	ret    
    5eff:	lea    rdi,[rip+0xa0ca]        # ffd0 <_IO_stdin_used+0x770>
    5f06:	mov    rsi,r12
    5f09:	xor    eax,eax
    5f0b:	call   bf20 <barf_perror>
    5f10:	call   2820 <__stack_chk_fail@plt>
    5f15:	lea    rdi,[rip+0xa0dc]        # fff8 <_IO_stdin_used+0x798>
    5f1c:	mov    rsi,r12
    5f1f:	xor    eax,eax
    5f21:	call   bf20 <barf_perror>
    5f26:	nop    WORD PTR cs:[rax+rax*1+0x0]

0000000000005f30 <get_node>:
    5f30:	push   r15
    5f32:	push   r14
    5f34:	push   r13
    5f36:	push   r12
    5f38:	push   rbp
    5f39:	push   rbx
    5f3a:	sub    rsp,0x18
    5f3e:	test   rdx,rdx
    5f41:	je     6058 <get_node+0x128>
    5f47:	mov    r12,rdi
    5f4a:	mov    rdi,rdx
    5f4d:	mov    rbp,rsi
    5f50:	mov    rbx,rdx
    5f53:	mov    r14d,ecx
    5f56:	call   4f70 <is_valid_nodename>
    5f5b:	test   al,al
    5f5d:	je     6058 <get_node+0x128>
    5f63:	mov    rdx,rbx
    5f66:	mov    rsi,rbp
    5f69:	mov    rdi,r12
    5f6c:	call   3ea0 <read_node>
    5f71:	test   rax,rax
    5f74:	mov    r15,rax
    5f77:	je     6028 <get_node+0xf8>
    5f7d:	mov    edx,DWORD PTR [rax+0x18]
    5f80:	mov    rsi,QWORD PTR [rax+0x20]
    5f84:	mov    rdi,r12
    5f87:	call   3830 <perm_for_conn>
    5f8c:	and    eax,r14d
    5f8f:	cmp    eax,r14d
    5f92:	je     603f <get_node+0x10f>
    5f98:	call   2750 <__errno_location@plt>
    5f9d:	mov    DWORD PTR [rsp+0xc],0xd
    5fa5:	mov    r13,rax
    5fa8:	mov    DWORD PTR [rax],0xd
    5fae:	lea    r15,[rip+0x99de]        # f993 <_IO_stdin_used+0x133>
    5fb5:	jmp    5ffe <get_node+0xce>
    5fb7:	nop    WORD PTR [rax+rax*1+0x0]
    5fc0:	mov    rdx,rax
    5fc3:	mov    rsi,rbp
    5fc6:	mov    rdi,r12
    5fc9:	call   3ea0 <read_node>
    5fce:	test   rax,rax
    5fd1:	jne    6088 <get_node+0x158>
    5fd7:	mov    eax,DWORD PTR [r13+0x0]
    5fdb:	cmp    eax,0xc
    5fde:	je     6070 <get_node+0x140>
    5fe4:	mov    ecx,0x2
    5fe9:	mov    rsi,rbx
    5fec:	mov    rdi,r15
    5fef:	repz cmps BYTE PTR ds:[rsi],BYTE PTR es:[rdi]
    5ff1:	seta   al
    5ff4:	sbb    al,0x0
    5ff6:	test   al,al
    5ff8:	je     60a8 <get_node+0x178>
    5ffe:	mov    rsi,rbx
    6001:	mov    rdi,rbp
    6004:	call   39e0 <get_parent>
    6009:	test   rax,rax
    600c:	mov    rbx,rax
    600f:	jne    5fc0 <get_node+0x90>
    6011:	mov    eax,DWORD PTR [r13+0x0]
    6015:	test   eax,eax
    6017:	jne    6070 <get_node+0x140>
    6019:	mov    DWORD PTR [rsp+0xc],0xd
    6021:	jmp    6074 <get_node+0x144>
    6023:	nop    DWORD PTR [rax+rax*1+0x0]
    6028:	call   2750 <__errno_location@plt>
    602d:	mov    r13,rax
    6030:	mov    eax,DWORD PTR [rax]
    6032:	cmp    eax,0xc
    6035:	mov    DWORD PTR [rsp+0xc],eax
    6039:	jne    5fae <get_node+0x7e>
    603f:	add    rsp,0x18
    6043:	mov    rax,r15
    6046:	pop    rbx
    6047:	pop    rbp
    6048:	pop    r12
    604a:	pop    r13
    604c:	pop    r14
    604e:	pop    r15
    6050:	ret    
    6051:	nop    DWORD PTR [rax+0x0]
    6058:	call   2750 <__errno_location@plt>
    605d:	xor    r15d,r15d
    6060:	mov    DWORD PTR [rax],0x16
    6066:	jmp    603f <get_node+0x10f>
    6068:	nop    DWORD PTR [rax+rax*1+0x0]
    6070:	mov    DWORD PTR [rsp+0xc],eax
    6074:	mov    eax,DWORD PTR [rsp+0xc]
    6078:	xor    r15d,r15d
    607b:	mov    DWORD PTR [r13+0x0],eax
    607f:	jmp    603f <get_node+0x10f>
    6081:	nop    DWORD PTR [rax+0x0]
    6088:	mov    edx,DWORD PTR [rax+0x18]
    608b:	mov    rsi,QWORD PTR [rax+0x20]
    608f:	mov    rdi,r12
    6092:	call   3830 <perm_for_conn>
    6097:	test   r14d,eax
    609a:	jne    6074 <get_node+0x144>
    609c:	jmp    6019 <get_node+0xe9>
    60a1:	nop    DWORD PTR [rax+0x0]
    60a8:	lea    rsi,[rip+0x9966]        # fa15 <_IO_stdin_used+0x1b5>
    60af:	mov    rdi,r12
    60b2:	xor    eax,eax
    60b4:	call   5230 <corrupt>
    60b9:	mov    DWORD PTR [rsp+0xc],0xd
    60c1:	jmp    6074 <get_node+0x144>
    60c3:	nop    DWORD PTR [rax]
    60c6:	nop    WORD PTR cs:[rax+rax*1+0x0]

00000000000060d0 <get_node_canonicalized>:
    60d0:	push   r12
    60d2:	push   rbp
    60d3:	mov    r12,rsi
    60d6:	push   rbx
    60d7:	mov    rbx,rcx
    60da:	mov    rbp,rdi
    60dd:	sub    rsp,0x20
    60e1:	mov    rax,QWORD PTR fs:0x28
    60ea:	mov    QWORD PTR [rsp+0x18],rax
    60ef:	xor    eax,eax
    60f1:	lea    rax,[rsp+0x10]
    60f6:	test   rcx,rcx
    60f9:	cmove  rbx,rax
    60fd:	test   rdx,rdx
    6100:	je     6150 <get_node_canonicalized+0x80>
    6102:	movzx  eax,BYTE PTR [rdx]
    6105:	cmp    al,0x2f
    6107:	je     6150 <get_node_canonicalized+0x80>
    6109:	cmp    al,0x40
    610b:	je     6150 <get_node_canonicalized+0x80>
    610d:	mov    DWORD PTR [rsp+0xc],r8d
    6112:	mov    QWORD PTR [rsp],rdx
    6116:	call   7ea0 <get_implicit_path>
    611b:	test   rax,rax
    611e:	mov    rdx,QWORD PTR [rsp]
    6122:	mov    r8d,DWORD PTR [rsp+0xc]
    6127:	je     6150 <get_node_canonicalized+0x80>
    6129:	lea    rsi,[rip+0x9865]        # f995 <_IO_stdin_used+0x135>
    6130:	mov    rcx,rdx
    6133:	mov    rdi,r12
    6136:	mov    rdx,rax
    6139:	xor    eax,eax
    613b:	mov    DWORD PTR [rsp],r8d
    613f:	call   b950 <talloc_asprintf>
    6144:	mov    r8d,DWORD PTR [rsp]
    6148:	mov    rdx,rax
    614b:	nop    DWORD PTR [rax+rax*1+0x0]
    6150:	mov    rax,QWORD PTR [rsp+0x18]
    6155:	xor    rax,QWORD PTR fs:0x28
    615e:	mov    QWORD PTR [rbx],rdx
    6161:	jne    6179 <get_node_canonicalized+0xa9>
    6163:	add    rsp,0x20
    6167:	mov    rsi,r12
    616a:	mov    rdi,rbp
    616d:	pop    rbx
    616e:	pop    rbp
    616f:	pop    r12
    6171:	mov    ecx,r8d
    6174:	jmp    5f30 <get_node>
    6179:	call   2820 <__stack_chk_fail@plt>
    617e:	xchg   ax,ax

0000000000006180 <send_directory_part>:
    6180:	push   r15
    6182:	push   r14
    6184:	push   r13
    6186:	push   r12
    6188:	mov    r13,rsi
    618b:	push   rbp
    618c:	push   rbx
    618d:	mov    rbx,rdi
    6190:	sub    rsp,0x58
    6194:	mov    esi,DWORD PTR [rsi+0x14]
    6197:	mov    rdi,QWORD PTR [r13+0x28]
    619b:	mov    rax,QWORD PTR fs:0x28
    61a4:	mov    QWORD PTR [rsp+0x48],rax
    61a9:	xor    eax,eax
    61ab:	call   a060 <xs_count_strings>
    61b0:	cmp    eax,0x2
    61b3:	mov    edx,0x16
    61b8:	je     61e0 <send_directory_part+0x60>
    61ba:	mov    rbx,QWORD PTR [rsp+0x48]
    61bf:	xor    rbx,QWORD PTR fs:0x28
    61c8:	mov    eax,edx
    61ca:	jne    6441 <send_directory_part+0x2c1>
    61d0:	add    rsp,0x58
    61d4:	pop    rbx
    61d5:	pop    rbp
    61d6:	pop    r12
    61d8:	pop    r13
    61da:	pop    r14
    61dc:	pop    r15
    61de:	ret    
    61df:	nop
    61e0:	mov    rdx,QWORD PTR [r13+0x28]
    61e4:	xor    ecx,ecx
    61e6:	mov    r8d,0x1
    61ec:	mov    rsi,r13
    61ef:	mov    rdi,rbx
    61f2:	call   60d0 <get_node_canonicalized>
    61f7:	test   rax,rax
    61fa:	mov    r12,rax
    61fd:	je     63a0 <send_directory_part+0x220>
    6203:	mov    rbp,QWORD PTR [r13+0x28]
    6207:	mov    rdi,rbp
    620a:	call   2800 <strlen@plt>
    620f:	lea    rdi,[rbp+rax*1+0x1]
    6214:	xor    esi,esi
    6216:	mov    edx,0xa
    621b:	call   2a10 <strtol@plt>
    6220:	mov    r9,QWORD PTR [r12+0x10]
    6225:	lea    rdi,[rsp+0x30]
    622a:	lea    r8,[rip+0x9800]        # fa31 <_IO_stdin_used+0x1d1>
    6231:	mov    r15,rax
    6234:	mov    QWORD PTR [rsp+0x18],rax
    6239:	mov    DWORD PTR [rsp+0xc],eax
    623d:	mov    ecx,0x18
    6242:	xor    eax,eax
    6244:	mov    edx,0x1
    6249:	mov    esi,0x18
    624e:	mov    QWORD PTR [rsp+0x20],rdi
    6253:	call   26f0 <__snprintf_chk@plt>
    6258:	lea    ecx,[rax+0x1]
    625b:	mov    DWORD PTR [rsp+0x14],ecx
    625f:	mov    ecx,DWORD PTR [r12+0x38]
    6264:	cmp    r15d,ecx
    6267:	mov    DWORD PTR [rsp+0x10],ecx
    626b:	jae    6370 <send_directory_part+0x1f0>
    6271:	mov    eax,DWORD PTR [rsp+0x18]
    6275:	mov    r15,QWORD PTR [r12+0x40]
    627a:	mov    ebp,0xfff
    627f:	xor    r14d,r14d
    6282:	sub    ebp,DWORD PTR [rsp+0x14]
    6286:	mov    QWORD PTR [rsp+0x28],rax
    628b:	add    r15,rax
    628e:	jmp    62a7 <send_directory_part+0x127>
    6290:	lea    r14d,[r14+rax*1+0x1]
    6295:	lea    r15,[r15+rax*1+0x1]
    629a:	mov    eax,DWORD PTR [rsp+0xc]
    629e:	add    eax,r14d
    62a1:	cmp    DWORD PTR [rsp+0x10],eax
    62a5:	je     62ba <send_directory_part+0x13a>
    62a7:	mov    rdi,r15
    62aa:	call   2800 <strlen@plt>
    62af:	mov    edx,r14d
    62b2:	add    rdx,rax
    62b5:	cmp    rbp,rdx
    62b8:	ja     6290 <send_directory_part+0x110>
    62ba:	mov    r15d,DWORD PTR [rsp+0x14]
    62bf:	lea    rcx,[rip+0x95c5]        # f88b <_IO_stdin_used+0x2b>
    62c6:	mov    rdi,r13
    62c9:	mov    esi,0x1
    62ce:	lea    ebp,[r15+r14*1]
    62d2:	lea    edx,[rbp+0x1]
    62d5:	call   bad0 <_talloc_array>
    62da:	test   rax,rax
    62dd:	mov    r13,rax
    62e0:	mov    edx,0xc
    62e5:	je     61ba <send_directory_part+0x3a>
    62eb:	cmp    r15d,0x8
    62ef:	movsxd rdi,r15d
    62f2:	jae    63b0 <send_directory_part+0x230>
    62f8:	and    r15d,0x4
    62fc:	jne    6424 <send_directory_part+0x2a4>
    6302:	mov    ecx,DWORD PTR [rsp+0x14]
    6306:	test   ecx,ecx
    6308:	je     6330 <send_directory_part+0x1b0>
    630a:	mov    rax,QWORD PTR [rsp+0x20]
    630f:	and    ecx,0x2
    6312:	movzx  eax,BYTE PTR [rax]
    6315:	mov    BYTE PTR [r13+0x0],al
    6319:	je     6330 <send_directory_part+0x1b0>
    631b:	mov    eax,DWORD PTR [rsp+0x14]
    631f:	mov    rsi,QWORD PTR [rsp+0x20]
    6324:	movzx  edx,WORD PTR [rsi+rax*1-0x2]
    6329:	mov    WORD PTR [r13+rax*1-0x2],dx
    632f:	nop
    6330:	mov    rsi,QWORD PTR [rsp+0x28]
    6335:	add    rsi,QWORD PTR [r12+0x40]
    633a:	add    rdi,r13
    633d:	mov    edx,r14d
    6340:	call   2a20 <memcpy@plt>
    6345:	mov    eax,DWORD PTR [rsp+0x18]
    6349:	add    eax,r14d
    634c:	cmp    eax,DWORD PTR [r12+0x38]
    6351:	je     6410 <send_directory_part+0x290>
    6357:	mov    rdx,r13
    635a:	mov    ecx,ebp
    635c:	mov    esi,0x16
    6361:	mov    rdi,rbx
    6364:	call   4a40 <send_reply>
    6369:	xor    edx,edx
    636b:	jmp    61ba <send_directory_part+0x3a>
    6370:	mov    r14d,DWORD PTR [rsp+0x14]
    6375:	mov    rdx,QWORD PTR [rsp+0x20]
    637a:	lea    ecx,[rax+0x2]
    637d:	mov    esi,0x16
    6382:	mov    rdi,rbx
    6385:	mov    BYTE PTR [rsp+r14*1+0x30],0x0
    638b:	call   4a40 <send_reply>
    6390:	xor    edx,edx
    6392:	jmp    61ba <send_directory_part+0x3a>
    6397:	nop    WORD PTR [rax+rax*1+0x0]
    63a0:	call   2750 <__errno_location@plt>
    63a5:	mov    edx,DWORD PTR [rax]
    63a7:	jmp    61ba <send_directory_part+0x3a>
    63ac:	nop    DWORD PTR [rax+0x0]
    63b0:	mov    rax,QWORD PTR [rsp+0x30]
    63b5:	mov    QWORD PTR [r13+0x0],rax
    63b9:	mov    eax,DWORD PTR [rsp+0x14]
    63bd:	mov    rcx,QWORD PTR [rsp+0x20]
    63c2:	mov    rdx,QWORD PTR [rcx+rax*1-0x8]
    63c7:	mov    r11,rax
    63ca:	mov    QWORD PTR [r13+rax*1-0x8],rdx
    63cf:	lea    rdx,[r13+0x8]
    63d3:	mov    rax,r13
    63d6:	and    rdx,0xfffffffffffffff8
    63da:	sub    rax,rdx
    63dd:	sub    rcx,rax
    63e0:	add    eax,r11d
    63e3:	and    eax,0xfffffff8
    63e6:	mov    rsi,rcx
    63e9:	cmp    eax,0x8
    63ec:	jb     6330 <send_directory_part+0x1b0>
    63f2:	and    eax,0xfffffff8
    63f5:	xor    ecx,ecx
    63f7:	mov    r9d,ecx
    63fa:	add    ecx,0x8
    63fd:	mov    r10,QWORD PTR [rsi+r9*1]
    6401:	cmp    ecx,eax
    6403:	mov    QWORD PTR [rdx+r9*1],r10
    6407:	jb     63f7 <send_directory_part+0x277>
    6409:	jmp    6330 <send_directory_part+0x1b0>
    640e:	xchg   ax,ax
    6410:	mov    eax,DWORD PTR [rsp+0x14]
    6414:	mov    BYTE PTR [r13+rbp*1+0x0],0x0
    641a:	lea    ebp,[rax+r14*1+0x1]
    641f:	jmp    6357 <send_directory_part+0x1d7>
    6424:	mov    rsi,QWORD PTR [rsp+0x20]
    6429:	mov    eax,DWORD PTR [rsi]
    642b:	mov    DWORD PTR [r13+0x0],eax
    642f:	mov    eax,DWORD PTR [rsp+0x14]
    6433:	mov    edx,DWORD PTR [rsi+rax*1-0x4]
    6437:	mov    DWORD PTR [r13+rax*1-0x4],edx
    643c:	jmp    6330 <send_directory_part+0x1b0>
    6441:	call   2820 <__stack_chk_fail@plt>
    6446:	nop    WORD PTR cs:[rax+rax*1+0x0]

0000000000006450 <do_set_perms>:
    6450:	push   r15
    6452:	push   r14
    6454:	push   r13
    6456:	push   r12
    6458:	mov    r13,rdi
    645b:	push   rbp
    645c:	push   rbx
    645d:	mov    rbx,rsi
    6460:	sub    rsp,0x28
    6464:	mov    esi,DWORD PTR [rsi+0x14]
    6467:	mov    rdi,QWORD PTR [rbx+0x28]
    646b:	mov    rax,QWORD PTR fs:0x28
    6474:	mov    QWORD PTR [rsp+0x18],rax
    6479:	xor    eax,eax
    647b:	call   a060 <xs_count_strings>
    6480:	mov    ebp,eax
    6482:	mov    eax,0x16
    6487:	cmp    ebp,0x1
    648a:	jbe    6504 <do_set_perms+0xb4>
    648c:	mov    rdx,QWORD PTR [rbx+0x28]
    6490:	lea    rcx,[rsp+0x10]
    6495:	mov    r8d,0xa
    649b:	mov    rsi,rbx
    649e:	mov    rdi,r13
    64a1:	call   60d0 <get_node_canonicalized>
    64a6:	test   rax,rax
    64a9:	mov    r12,rax
    64ac:	je     64fd <do_set_perms+0xad>
    64ae:	mov    r14,QWORD PTR [rbx+0x28]
    64b2:	sub    ebp,0x1
    64b5:	mov    rdi,r14
    64b8:	call   2800 <strlen@plt>
    64bd:	lea    rcx,[rip+0x9571]        # fa35 <_IO_stdin_used+0x1d5>
    64c4:	mov    edx,ebp
    64c6:	mov    esi,0x8
    64cb:	mov    rdi,r12
    64ce:	mov    QWORD PTR [rsp+0x8],rax
    64d3:	call   bad0 <_talloc_array>
    64d8:	mov    r15,rax
    64db:	mov    eax,0xc
    64e0:	test   r15,r15
    64e3:	je     6504 <do_set_perms+0xb4>
    64e5:	mov    rax,QWORD PTR [rsp+0x8]
    64ea:	mov    esi,ebp
    64ec:	mov    rdi,r15
    64ef:	lea    rdx,[r14+rax*1+0x1]
    64f4:	call   9ef0 <xs_strings_to_perms>
    64f9:	test   al,al
    64fb:	jne    6530 <do_set_perms+0xe0>
    64fd:	call   2750 <__errno_location@plt>
    6502:	mov    eax,DWORD PTR [rax]
    6504:	mov    rcx,QWORD PTR [rsp+0x18]
    6509:	xor    rcx,QWORD PTR fs:0x28
    6512:	jne    65b4 <do_set_perms+0x164>
    6518:	add    rsp,0x28
    651c:	pop    rbx
    651d:	pop    rbp
    651e:	pop    r12
    6520:	pop    r13
    6522:	pop    r14
    6524:	pop    r15
    6526:	ret    
    6527:	nop    WORD PTR [rax+rax*1+0x0]
    6530:	mov    rdi,r13
    6533:	call   7ae0 <domain_is_unprivileged>
    6538:	test   al,al
    653a:	je     654d <do_set_perms+0xfd>
    653c:	mov    rdx,QWORD PTR [r12+0x20]
    6541:	mov    eax,0x1
    6546:	mov    edx,DWORD PTR [rdx]
    6548:	cmp    DWORD PTR [r15],edx
    654b:	jne    6504 <do_set_perms+0xb4>
    654d:	mov    rsi,r12
    6550:	mov    rdi,r13
    6553:	call   7f50 <domain_entry_dec>
    6558:	mov    rsi,r12
    655b:	mov    rdi,r13
    655e:	mov    QWORD PTR [r12+0x20],r15
    6563:	mov    DWORD PTR [r12+0x18],ebp
    6568:	call   7ed0 <domain_entry_inc>
    656d:	mov    rsi,r12
    6570:	mov    rdi,r13
    6573:	call   54d0 <write_node>
    6578:	test   eax,eax
    657a:	jne    64fd <do_set_perms+0xad>
    657c:	mov    rdx,QWORD PTR [rsp+0x10]
    6581:	xor    ecx,ecx
    6583:	mov    rsi,rbx
    6586:	mov    rdi,r13
    6589:	mov    DWORD PTR [rsp+0x8],eax
    658d:	call   70b0 <fire_watches>
    6592:	lea    rdx,[rip+0x93f6]        # f98f <_IO_stdin_used+0x12f>
    6599:	mov    ecx,0x3
    659e:	mov    esi,0xe
    65a3:	mov    rdi,r13
    65a6:	call   4a40 <send_reply>
    65ab:	mov    eax,DWORD PTR [rsp+0x8]
    65af:	jmp    6504 <do_set_perms+0xb4>
    65b4:	call   2820 <__stack_chk_fail@plt>
    65b9:	nop    DWORD PTR [rax+0x0]

00000000000065c0 <do_mkdir>:
    65c0:	push   r13
    65c2:	push   r12
    65c4:	xor    r13d,r13d
    65c7:	push   rbp
    65c8:	push   rbx
    65c9:	mov    r12,rdi
    65cc:	mov    rbx,rsi
    65cf:	sub    rsp,0x18
    65d3:	mov    ebp,DWORD PTR [rsi+0x14]
    65d6:	mov    rax,QWORD PTR fs:0x28
    65df:	mov    QWORD PTR [rsp+0x8],rax
    65e4:	xor    eax,eax
    65e6:	test   ebp,ebp
    65e8:	je     65ff <do_mkdir+0x3f>
    65ea:	lea    rsi,[rsi+0x28]
    65ee:	xor    edx,edx
    65f0:	mov    edi,ebp
    65f2:	call   3a50 <get_string.isra.1>
    65f7:	cmp    ebp,eax
    65f9:	je     6698 <do_mkdir+0xd8>
    65ff:	mov    rcx,rsp
    6602:	mov    r8d,0x2
    6608:	mov    rdx,r13
    660b:	mov    rsi,rbx
    660e:	mov    rdi,r12
    6611:	call   60d0 <get_node_canonicalized>
    6616:	test   rax,rax
    6619:	je     6658 <do_mkdir+0x98>
    661b:	lea    rdx,[rip+0x936d]        # f98f <_IO_stdin_used+0x12f>
    6622:	mov    ecx,0x3
    6627:	mov    esi,0xc
    662c:	mov    rdi,r12
    662f:	call   4a40 <send_reply>
    6634:	xor    eax,eax
    6636:	mov    rdx,QWORD PTR [rsp+0x8]
    663b:	xor    rdx,QWORD PTR fs:0x28
    6644:	jne    66ad <do_mkdir+0xed>
    6646:	add    rsp,0x18
    664a:	pop    rbx
    664b:	pop    rbp
    664c:	pop    r12
    664e:	pop    r13
    6650:	ret    
    6651:	nop    DWORD PTR [rax+0x0]
    6658:	call   2750 <__errno_location@plt>
    665d:	mov    rbp,rax
    6660:	mov    eax,DWORD PTR [rax]
    6662:	cmp    eax,0x2
    6665:	jne    6636 <do_mkdir+0x76>
    6667:	mov    rdx,QWORD PTR [rsp]
    666b:	xor    r8d,r8d
    666e:	xor    ecx,ecx
    6670:	mov    rsi,rbx
    6673:	mov    rdi,r12
    6676:	call   5db0 <create_node>
    667b:	test   rax,rax
    667e:	je     66a8 <do_mkdir+0xe8>
    6680:	mov    rdx,QWORD PTR [rsp]
    6684:	xor    ecx,ecx
    6686:	mov    rsi,rbx
    6689:	mov    rdi,r12
    668c:	call   70b0 <fire_watches>
    6691:	jmp    661b <do_mkdir+0x5b>
    6693:	nop    DWORD PTR [rax+rax*1+0x0]
    6698:	mov    r13,QWORD PTR [rbx+0x28]
    669c:	jmp    65ff <do_mkdir+0x3f>
    66a1:	nop    DWORD PTR [rax+0x0]
    66a8:	mov    eax,DWORD PTR [rbp+0x0]
    66ab:	jmp    6636 <do_mkdir+0x76>
    66ad:	call   2820 <__stack_chk_fail@plt>
    66b2:	nop    DWORD PTR [rax+0x0]
    66b6:	nop    WORD PTR cs:[rax+rax*1+0x0]

00000000000066c0 <do_write>:
    66c0:	push   r14
    66c2:	push   r13
    66c4:	mov    edx,0x1
    66c9:	push   r12
    66cb:	push   rbp
    66cc:	mov    rbp,rsi
    66cf:	push   rbx
    66d0:	mov    r12,rdi
    66d3:	mov    rdi,rbp
    66d6:	sub    rsp,0x20
    66da:	lea    rsi,[rsp+0x10]
    66df:	mov    QWORD PTR [rsp+0x10],0x0
    66e8:	mov    rax,QWORD PTR fs:0x28
    66f1:	mov    QWORD PTR [rsp+0x18],rax
    66f6:	xor    eax,eax
    66f8:	call   49c0 <get_strings>
    66fd:	test   eax,eax
    66ff:	mov    edx,0x16
    6704:	je     6790 <do_write+0xd0>
    670a:	mov    r14,QWORD PTR [rsp+0x10]
    670f:	mov    rdi,r14
    6712:	call   2800 <strlen@plt>
    6717:	mov    r13d,DWORD PTR [rbp+0x14]
    671b:	lea    ebx,[rax+0x1]
    671e:	lea    rcx,[rsp+0x8]
    6723:	mov    r8d,0x2
    6729:	mov    rdx,r14
    672c:	mov    rsi,rbp
    672f:	mov    rdi,r12
    6732:	sub    r13d,ebx
    6735:	call   60d0 <get_node_canonicalized>
    673a:	test   rax,rax
    673d:	je     67b0 <do_write+0xf0>
    673f:	add    rbx,QWORD PTR [rbp+0x28]
    6743:	mov    rsi,rax
    6746:	mov    DWORD PTR [rax+0x28],r13d
    674a:	mov    rdi,r12
    674d:	mov    QWORD PTR [rax+0x30],rbx
    6751:	call   54d0 <write_node>
    6756:	test   eax,eax
    6758:	jne    67f0 <do_write+0x130>
    675e:	mov    rdx,QWORD PTR [rsp+0x8]
    6763:	xor    ecx,ecx
    6765:	mov    rsi,rbp
    6768:	mov    rdi,r12
    676b:	call   70b0 <fire_watches>
    6770:	lea    rdx,[rip+0x9218]        # f98f <_IO_stdin_used+0x12f>
    6777:	mov    ecx,0x3
    677c:	mov    esi,0xb
    6781:	mov    rdi,r12
    6784:	call   4a40 <send_reply>
    6789:	xor    edx,edx
    678b:	nop    DWORD PTR [rax+rax*1+0x0]
    6790:	mov    rcx,QWORD PTR [rsp+0x18]
    6795:	xor    rcx,QWORD PTR fs:0x28
    679e:	mov    eax,edx
    67a0:	jne    67f9 <do_write+0x139>
    67a2:	add    rsp,0x20
    67a6:	pop    rbx
    67a7:	pop    rbp
    67a8:	pop    r12
    67aa:	pop    r13
    67ac:	pop    r14
    67ae:	ret    
    67af:	nop
    67b0:	call   2750 <__errno_location@plt>
    67b5:	mov    edx,DWORD PTR [rax]
    67b7:	mov    r14,rax
    67ba:	cmp    edx,0x2
    67bd:	jne    6790 <do_write+0xd0>
    67bf:	mov    ecx,ebx
    67c1:	add    rcx,QWORD PTR [rbp+0x28]
    67c5:	mov    rdx,QWORD PTR [rsp+0x8]
    67ca:	mov    r8d,r13d
    67cd:	mov    rsi,rbp
    67d0:	mov    rdi,r12
    67d3:	call   5db0 <create_node>
    67d8:	test   rax,rax
    67db:	jne    675e <do_write+0x9e>
    67e1:	mov    edx,DWORD PTR [r14]
    67e4:	jmp    6790 <do_write+0xd0>
    67e6:	nop    WORD PTR cs:[rax+rax*1+0x0]
    67f0:	call   2750 <__errno_location@plt>
    67f5:	mov    edx,DWORD PTR [rax]
    67f7:	jmp    6790 <do_write+0xd0>
    67f9:	call   2820 <__stack_chk_fail@plt>
    67fe:	xchg   ax,ax

0000000000006800 <do_get_perms>:
    6800:	push   r15
    6802:	push   r14
    6804:	mov    r15,rdi
    6807:	push   r13
    6809:	push   r12
    680b:	xor    r12d,r12d
    680e:	push   rbp
    680f:	push   rbx
    6810:	mov    rbx,rsi
    6813:	sub    rsp,0x38
    6817:	mov    ebp,DWORD PTR [rsi+0x14]
    681a:	mov    rax,QWORD PTR fs:0x28
    6823:	mov    QWORD PTR [rsp+0x28],rax
    6828:	xor    eax,eax
    682a:	test   ebp,ebp
    682c:	je     6843 <do_get_perms+0x43>
    682e:	lea    rsi,[rsi+0x28]
    6832:	xor    edx,edx
    6834:	mov    edi,ebp
    6836:	call   3a50 <get_string.isra.1>
    683b:	cmp    ebp,eax
    683d:	je     69b0 <do_get_perms+0x1b0>
    6843:	xor    ecx,ecx
    6845:	mov    r8d,0x1
    684b:	mov    rdx,r12
    684e:	mov    rsi,rbx
    6851:	mov    rdi,r15
    6854:	call   60d0 <get_node_canonicalized>
    6859:	test   rax,rax
    685c:	mov    r14,rax
    685f:	je     6980 <do_get_perms+0x180>
    6865:	mov    eax,DWORD PTR [rax+0x18]
    6868:	mov    rbp,QWORD PTR [r14+0x20]
    686c:	test   eax,eax
    686e:	je     6980 <do_get_perms+0x180>
    6874:	sub    eax,0x1
    6877:	lea    rbx,[rsp+0x1c]
    687c:	xor    r13d,r13d
    687f:	lea    rax,[rbp+rax*8+0x8]
    6884:	xor    r12d,r12d
    6887:	mov    QWORD PTR [rsp+0x8],rax
    688c:	mov    edx,0xc
    6891:	mov    rsi,rbx
    6894:	mov    rdi,rbp
    6897:	call   9fe0 <xs_perm_to_string>
    689c:	test   al,al
    689e:	je     6980 <do_get_perms+0x180>
    68a4:	mov    rdx,rbx
    68a7:	mov    ecx,DWORD PTR [rdx]
    68a9:	add    rdx,0x4
    68ad:	lea    eax,[rcx-0x1010101]
    68b3:	not    ecx
    68b5:	and    eax,ecx
    68b7:	and    eax,0x80808080
    68bc:	je     68a7 <do_get_perms+0xa7>
    68be:	mov    ecx,eax
    68c0:	lea    r8,[rip+0x8fc4]        # f88b <_IO_stdin_used+0x2b>
    68c7:	mov    rdi,r14
    68ca:	shr    ecx,0x10
    68cd:	test   eax,0x8080
    68d2:	cmove  eax,ecx
    68d5:	lea    rcx,[rdx+0x2]
    68d9:	mov    esi,eax
    68db:	cmove  rdx,rcx
    68df:	add    sil,al
    68e2:	mov    rsi,r12
    68e5:	sbb    rdx,0x3
    68e9:	sub    rdx,rbx
    68ec:	lea    ecx,[r13+rdx*1+0x1]
    68f1:	mov    edx,0x1
    68f6:	call   bb30 <_talloc_realloc_array>
    68fb:	test   rax,rax
    68fe:	mov    r12,rax
    6901:	je     6980 <do_get_perms+0x180>
    6903:	mov    edi,r13d
    6906:	mov    rsi,rbx
    6909:	add    rdi,rax
    690c:	call   2780 <strcpy@plt>
    6911:	mov    rdx,rbx
    6914:	mov    ecx,DWORD PTR [rdx]
    6916:	add    rdx,0x4
    691a:	lea    eax,[rcx-0x1010101]
    6920:	not    ecx
    6922:	and    eax,ecx
    6924:	and    eax,0x80808080
    6929:	je     6914 <do_get_perms+0x114>
    692b:	mov    ecx,eax
    692d:	shr    ecx,0x10
    6930:	test   eax,0x8080
    6935:	cmove  eax,ecx
    6938:	lea    rcx,[rdx+0x2]
    693c:	mov    esi,eax
    693e:	cmove  rdx,rcx
    6942:	add    sil,al
    6945:	sbb    rdx,0x3
    6949:	add    rbp,0x8
    694d:	sub    rdx,rbx
    6950:	cmp    rbp,QWORD PTR [rsp+0x8]
    6955:	lea    r13d,[r13+rdx*1+0x1]
    695a:	jne    688c <do_get_perms+0x8c>
    6960:	mov    ecx,r13d
    6963:	mov    rdx,r12
    6966:	mov    esi,0x3
    696b:	mov    rdi,r15
    696e:	call   4a40 <send_reply>
    6973:	xor    eax,eax
    6975:	jmp    6987 <do_get_perms+0x187>
    6977:	nop    WORD PTR [rax+rax*1+0x0]
    6980:	call   2750 <__errno_location@plt>
    6985:	mov    eax,DWORD PTR [rax]
    6987:	mov    rsi,QWORD PTR [rsp+0x28]
    698c:	xor    rsi,QWORD PTR fs:0x28
    6995:	jne    69b9 <do_get_perms+0x1b9>
    6997:	add    rsp,0x38
    699b:	pop    rbx
    699c:	pop    rbp
    699d:	pop    r12
    699f:	pop    r13
    69a1:	pop    r14
    69a3:	pop    r15
    69a5:	ret    
    69a6:	nop    WORD PTR cs:[rax+rax*1+0x0]
    69b0:	mov    r12,QWORD PTR [rbx+0x28]
    69b4:	jmp    6843 <do_get_perms+0x43>
    69b9:	call   2820 <__stack_chk_fail@plt>
    69be:	xchg   ax,ax

00000000000069c0 <do_read>:
    69c0:	push   r13
    69c2:	push   r12
    69c4:	xor    r13d,r13d
    69c7:	push   rbp
    69c8:	push   rbx
    69c9:	mov    r12,rdi
    69cc:	mov    rbx,rsi
    69cf:	sub    rsp,0x8
    69d3:	mov    ebp,DWORD PTR [rsi+0x14]
    69d6:	test   ebp,ebp
    69d8:	je     69eb <do_read+0x2b>
    69da:	lea    rsi,[rsi+0x28]
    69de:	xor    edx,edx
    69e0:	mov    edi,ebp
    69e2:	call   3a50 <get_string.isra.1>
    69e7:	cmp    ebp,eax
    69e9:	je     6a48 <do_read+0x88>
    69eb:	xor    ecx,ecx
    69ed:	mov    r8d,0x1
    69f3:	mov    rdx,r13
    69f6:	mov    rsi,rbx
    69f9:	mov    rdi,r12
    69fc:	call   60d0 <get_node_canonicalized>
    6a01:	test   rax,rax
    6a04:	je     6a30 <do_read+0x70>
    6a06:	mov    ecx,DWORD PTR [rax+0x28]
    6a09:	mov    rdx,QWORD PTR [rax+0x30]
    6a0d:	mov    rdi,r12
    6a10:	mov    esi,0x2
    6a15:	call   4a40 <send_reply>
    6a1a:	add    rsp,0x8
    6a1e:	xor    eax,eax
    6a20:	pop    rbx
    6a21:	pop    rbp
    6a22:	pop    r12
    6a24:	pop    r13
    6a26:	ret    
    6a27:	nop    WORD PTR [rax+rax*1+0x0]
    6a30:	call   2750 <__errno_location@plt>
    6a35:	mov    eax,DWORD PTR [rax]
    6a37:	add    rsp,0x8
    6a3b:	pop    rbx
    6a3c:	pop    rbp
    6a3d:	pop    r12
    6a3f:	pop    r13
    6a41:	ret    
    6a42:	nop    WORD PTR [rax+rax*1+0x0]
    6a48:	mov    r13,QWORD PTR [rbx+0x28]
    6a4c:	jmp    69eb <do_read+0x2b>
    6a4e:	xchg   ax,ax

0000000000006a50 <send_directory>:
    6a50:	push   r13
    6a52:	push   r12
    6a54:	xor    r13d,r13d
    6a57:	push   rbp
    6a58:	push   rbx
    6a59:	mov    r12,rdi
    6a5c:	mov    rbx,rsi
    6a5f:	sub    rsp,0x8
    6a63:	mov    ebp,DWORD PTR [rsi+0x14]
    6a66:	test   ebp,ebp
    6a68:	je     6a7b <send_directory+0x2b>
    6a6a:	lea    rsi,[rsi+0x28]
    6a6e:	xor    edx,edx
    6a70:	mov    edi,ebp
    6a72:	call   3a50 <get_string.isra.1>
    6a77:	cmp    ebp,eax
    6a79:	je     6ad8 <send_directory+0x88>
    6a7b:	xor    ecx,ecx
    6a7d:	mov    r8d,0x1
    6a83:	mov    rdx,r13
    6a86:	mov    rsi,rbx
    6a89:	mov    rdi,r12
    6a8c:	call   60d0 <get_node_canonicalized>
    6a91:	test   rax,rax
    6a94:	je     6ac0 <send_directory+0x70>
    6a96:	mov    ecx,DWORD PTR [rax+0x38]
    6a99:	mov    rdx,QWORD PTR [rax+0x40]
    6a9d:	mov    rdi,r12
    6aa0:	mov    esi,0x1
    6aa5:	call   4a40 <send_reply>
    6aaa:	add    rsp,0x8
    6aae:	xor    eax,eax
    6ab0:	pop    rbx
    6ab1:	pop    rbp
    6ab2:	pop    r12
    6ab4:	pop    r13
    6ab6:	ret    
    6ab7:	nop    WORD PTR [rax+rax*1+0x0]
    6ac0:	call   2750 <__errno_location@plt>
    6ac5:	mov    eax,DWORD PTR [rax]
    6ac7:	add    rsp,0x8
    6acb:	pop    rbx
    6acc:	pop    rbp
    6acd:	pop    r12
    6acf:	pop    r13
    6ad1:	ret    
    6ad2:	nop    WORD PTR [rax+rax*1+0x0]
    6ad8:	mov    r13,QWORD PTR [rbx+0x28]
    6adc:	jmp    6a7b <send_directory+0x2b>
    6ade:	xchg   ax,ax

0000000000006ae0 <delete_node>:
    6ae0:	push   r15
    6ae2:	push   r14
    6ae4:	mov    edx,0x2
    6ae9:	push   r13
    6aeb:	push   r12
    6aed:	mov    r13,rdi
    6af0:	push   rbp
    6af1:	push   rbx
    6af2:	mov    rbx,rsi
    6af5:	sub    rsp,0x28
    6af9:	mov    rcx,rsp
    6afc:	mov    rax,QWORD PTR fs:0x28
    6b05:	mov    QWORD PTR [rsp+0x18],rax
    6b0a:	xor    eax,eax
    6b0c:	call   8ce0 <access_node>
    6b11:	test   eax,eax
    6b13:	je     6bd0 <delete_node+0xf0>
    6b19:	mov    eax,DWORD PTR [rbx+0x38]
    6b1c:	test   eax,eax
    6b1e:	je     6b98 <delete_node+0xb8>
    6b20:	mov    r15,QWORD PTR [rbx+0x40]
    6b24:	lea    r14,[rip+0x8e6a]        # f995 <_IO_stdin_used+0x135>
    6b2b:	xor    r12d,r12d
    6b2e:	mov    ebp,r12d
    6b31:	mov    rdx,QWORD PTR [rbx]
    6b34:	xor    eax,eax
    6b36:	lea    rcx,[r15+rbp*1]
    6b3a:	mov    rsi,r14
    6b3d:	mov    rdi,rbx
    6b40:	call   b950 <talloc_asprintf>
    6b45:	test   rax,rax
    6b48:	mov    r15,rax
    6b4b:	je     6b60 <delete_node+0x80>
    6b4d:	mov    rdx,rax
    6b50:	mov    rsi,rbx
    6b53:	mov    rdi,r13
    6b56:	call   3ea0 <read_node>
    6b5b:	test   rax,rax
    6b5e:	jne    6bc0 <delete_node+0xe0>
    6b60:	mov    rdx,QWORD PTR [rbx+0x40]
    6b64:	mov    rsi,QWORD PTR [rbx]
    6b67:	lea    rdi,[rip+0x94b2]        # 10020 <_IO_stdin_used+0x7c0>
    6b6e:	xor    eax,eax
    6b70:	add    rdx,rbp
    6b73:	call   3d00 <trace>
    6b78:	mov    rdi,r15
    6b7b:	call   a6a0 <talloc_free>
    6b80:	mov    r15,QWORD PTR [rbx+0x40]
    6b84:	lea    rdi,[r15+rbp*1]
    6b88:	call   2800 <strlen@plt>
    6b8d:	lea    r12d,[r12+rax*1+0x1]
    6b92:	cmp    DWORD PTR [rbx+0x38],r12d
    6b96:	ja     6b2e <delete_node+0x4e>
    6b98:	mov    rax,QWORD PTR [rsp+0x18]
    6b9d:	xor    rax,QWORD PTR fs:0x28
    6ba6:	jne    6c18 <delete_node+0x138>
    6ba8:	add    rsp,0x28
    6bac:	pop    rbx
    6bad:	pop    rbp
    6bae:	pop    r12
    6bb0:	pop    r13
    6bb2:	pop    r14
    6bb4:	pop    r15
    6bb6:	ret    
    6bb7:	nop    WORD PTR [rax+rax*1+0x0]
    6bc0:	mov    rsi,rax
    6bc3:	mov    rdi,r13
    6bc6:	call   6ae0 <delete_node>
    6bcb:	jmp    6b78 <delete_node+0x98>
    6bcd:	nop    DWORD PTR [rax]
    6bd0:	mov    rsi,QWORD PTR [rsp]
    6bd4:	mov    rdx,QWORD PTR [rsp+0x8]
    6bd9:	mov    rdi,QWORD PTR [rip+0x20f700]        # 2162e0 <tdb_ctx>
    6be0:	call   e000 <tdb_delete>
    6be5:	test   eax,eax
    6be7:	je     6c08 <delete_node+0x128>
    6be9:	mov    rdx,QWORD PTR [rbx]
    6bec:	lea    rsi,[rip+0x8e58]        # fa4b <_IO_stdin_used+0x1eb>
    6bf3:	mov    rdi,r13
    6bf6:	xor    eax,eax
    6bf8:	call   5230 <corrupt>
    6bfd:	jmp    6b19 <delete_node+0x39>
    6c02:	nop    WORD PTR [rax+rax*1+0x0]
    6c08:	mov    rsi,rbx
    6c0b:	mov    rdi,r13
    6c0e:	call   7f50 <domain_entry_dec>
    6c13:	jmp    6b19 <delete_node+0x39>
    6c18:	call   2820 <__stack_chk_fail@plt>
    6c1d:	nop    DWORD PTR [rax]

0000000000006c20 <do_rm>:
    6c20:	push   r15
    6c22:	push   r14
    6c24:	push   r13
    6c26:	push   r12
    6c28:	xor    r13d,r13d
    6c2b:	push   rbp
    6c2c:	push   rbx
    6c2d:	mov    r12,rdi
    6c30:	mov    rbx,rsi
    6c33:	sub    rsp,0x38
    6c37:	mov    ebp,DWORD PTR [rsi+0x14]
    6c3a:	mov    rax,QWORD PTR fs:0x28
    6c43:	mov    QWORD PTR [rsp+0x28],rax
    6c48:	xor    eax,eax
    6c4a:	test   ebp,ebp
    6c4c:	je     6c63 <do_rm+0x43>
    6c4e:	lea    rsi,[rsi+0x28]
    6c52:	xor    edx,edx
    6c54:	mov    edi,ebp
    6c56:	call   3a50 <get_string.isra.1>
    6c5b:	cmp    ebp,eax
    6c5d:	je     6e40 <do_rm+0x220>
    6c63:	lea    rcx,[rsp+0x20]
    6c68:	mov    rdx,r13
    6c6b:	mov    r8d,0x2
    6c71:	mov    rsi,rbx
    6c74:	mov    rdi,r12
    6c77:	call   60d0 <get_node_canonicalized>
    6c7c:	test   rax,rax
    6c7f:	mov    r13,rax
    6c82:	je     6df0 <do_rm+0x1d0>
    6c88:	mov    rbp,QWORD PTR [rsp+0x20]
    6c8d:	lea    rdi,[rip+0x8cff]        # f993 <_IO_stdin_used+0x133>
    6c94:	mov    ecx,0x2
    6c99:	mov    rsi,rbp
    6c9c:	repz cmps BYTE PTR ds:[rsi],BYTE PTR es:[rdi]
    6c9e:	seta   al
    6ca1:	sbb    al,0x0
    6ca3:	test   al,al
    6ca5:	je     6dc0 <do_rm+0x1a0>
    6cab:	mov    rsi,rbp
    6cae:	mov    rdi,rbx
    6cb1:	call   39e0 <get_parent>
    6cb6:	test   rax,rax
    6cb9:	je     6e68 <do_rm+0x248>
    6cbf:	mov    rdx,rax
    6cc2:	mov    rsi,rbx
    6cc5:	mov    rdi,r12
    6cc8:	call   3ea0 <read_node>
    6ccd:	test   rax,rax
    6cd0:	mov    QWORD PTR [rsp+0x18],rax
    6cd5:	je     6e50 <do_rm+0x230>
    6cdb:	mov    esi,0x2f
    6ce0:	mov    rdi,rbp
    6ce3:	call   2890 <strrchr@plt>
    6ce8:	mov    rdx,QWORD PTR [rsp+0x18]
    6ced:	add    rax,0x1
    6cf1:	mov    QWORD PTR [rsp],rax
    6cf5:	mov    eax,DWORD PTR [rdx+0x38]
    6cf8:	test   eax,eax
    6cfa:	mov    DWORD PTR [rsp+0x14],eax
    6cfe:	je     6da0 <do_rm+0x180>
    6d04:	mov    rax,QWORD PTR [rdx+0x40]
    6d08:	xor    ebp,ebp
    6d0a:	mov    QWORD PTR [rsp+0x8],rax
    6d0f:	jmp    6d2a <do_rm+0x10a>
    6d11:	nop    DWORD PTR [rax+0x0]
    6d18:	mov    rdi,r14
    6d1b:	call   2800 <strlen@plt>
    6d20:	lea    ebp,[rbp+rax*1+0x1]
    6d24:	cmp    ebp,DWORD PTR [rsp+0x14]
    6d28:	jae    6da0 <do_rm+0x180>
    6d2a:	mov    rax,QWORD PTR [rsp+0x8]
    6d2f:	mov    r15d,ebp
    6d32:	mov    rsi,QWORD PTR [rsp]
    6d36:	lea    r14,[rax+r15*1]
    6d3a:	mov    rdi,r14
    6d3d:	call   29c0 <strcmp@plt>
    6d42:	test   eax,eax
    6d44:	jne    6d18 <do_rm+0xf8>
    6d46:	mov    rsi,QWORD PTR [rsp+0x18]
    6d4b:	mov    rdx,r15
    6d4e:	mov    rdi,r12
    6d51:	call   5540 <remove_child_entry>
    6d56:	test   eax,eax
    6d58:	jne    6dc0 <do_rm+0x1a0>
    6d5a:	mov    rsi,r13
    6d5d:	mov    rdi,r12
    6d60:	call   6ae0 <delete_node>
    6d65:	mov    rdx,QWORD PTR [rsp+0x20]
    6d6a:	mov    ecx,0x1
    6d6f:	mov    rsi,rbx
    6d72:	mov    rdi,r12
    6d75:	call   70b0 <fire_watches>
    6d7a:	lea    rdx,[rip+0x8c0e]        # f98f <_IO_stdin_used+0x12f>
    6d81:	mov    ecx,0x3
    6d86:	mov    esi,0xd
    6d8b:	mov    rdi,r12
    6d8e:	xor    ebp,ebp
    6d90:	call   4a40 <send_reply>
    6d95:	jmp    6dc5 <do_rm+0x1a5>
    6d97:	nop    WORD PTR [rax+rax*1+0x0]
    6da0:	mov    rax,QWORD PTR [rsp+0x18]
    6da5:	mov    rdx,QWORD PTR [rsp]
    6da9:	lea    rsi,[rip+0x8cb1]        # fa61 <_IO_stdin_used+0x201>
    6db0:	mov    rdi,r12
    6db3:	mov    rcx,QWORD PTR [rax]
    6db6:	xor    eax,eax
    6db8:	call   5230 <corrupt>
    6dbd:	nop    DWORD PTR [rax]
    6dc0:	mov    ebp,0x16
    6dc5:	mov    rdx,QWORD PTR [rsp+0x28]
    6dca:	xor    rdx,QWORD PTR fs:0x28
    6dd3:	mov    eax,ebp
    6dd5:	jne    6e93 <do_rm+0x273>
    6ddb:	add    rsp,0x38
    6ddf:	pop    rbx
    6de0:	pop    rbp
    6de1:	pop    r12
    6de3:	pop    r13
    6de5:	pop    r14
    6de7:	pop    r15
    6de9:	ret    
    6dea:	nop    WORD PTR [rax+rax*1+0x0]
    6df0:	call   2750 <__errno_location@plt>
    6df5:	mov    ebp,DWORD PTR [rax]
    6df7:	mov    r13,rax
    6dfa:	cmp    ebp,0x2
    6dfd:	jne    6dc5 <do_rm+0x1a5>
    6dff:	mov    rsi,QWORD PTR [rsp+0x20]
    6e04:	mov    rdi,rbx
    6e07:	call   39e0 <get_parent>
    6e0c:	test   rax,rax
    6e0f:	je     6e80 <do_rm+0x260>
    6e11:	mov    rdx,rax
    6e14:	mov    rsi,rbx
    6e17:	mov    rdi,r12
    6e1a:	call   3ea0 <read_node>
    6e1f:	test   rax,rax
    6e22:	jne    6d7a <do_rm+0x15a>
    6e28:	cmp    DWORD PTR [r13+0x0],0xc
    6e2d:	je     6e89 <do_rm+0x269>
    6e2f:	mov    DWORD PTR [r13+0x0],0x2
    6e37:	jmp    6dc5 <do_rm+0x1a5>
    6e39:	nop    DWORD PTR [rax+0x0]
    6e40:	mov    r13,QWORD PTR [rbx+0x28]
    6e44:	jmp    6c63 <do_rm+0x43>
    6e49:	nop    DWORD PTR [rax+0x0]
    6e50:	call   2750 <__errno_location@plt>
    6e55:	mov    ebp,DWORD PTR [rax]
    6e57:	cmp    ebp,0xc
    6e5a:	jne    6dc0 <do_rm+0x1a0>
    6e60:	jmp    6dc5 <do_rm+0x1a5>
    6e65:	nop    DWORD PTR [rax]
    6e68:	call   2750 <__errno_location@plt>
    6e6d:	mov    ebp,DWORD PTR [rax]
    6e6f:	test   ebp,ebp
    6e71:	je     6d65 <do_rm+0x145>
    6e77:	jmp    6dc5 <do_rm+0x1a5>
    6e7c:	nop    DWORD PTR [rax+0x0]
    6e80:	mov    ebp,DWORD PTR [r13+0x0]
    6e84:	jmp    6dc5 <do_rm+0x1a5>
    6e89:	mov    ebp,0xc
    6e8e:	jmp    6dc5 <do_rm+0x1a5>
    6e93:	call   2820 <__stack_chk_fail@plt>
    6e98:	nop    DWORD PTR [rax+rax*1+0x0]

0000000000006ea0 <destroy_node>:
    6ea0:	push   rbp
    6ea1:	push   rbx
    6ea2:	mov    rbp,rdi
    6ea5:	mov    ecx,0x2
    6eaa:	sub    rsp,0x8
    6eae:	mov    rbx,QWORD PTR [rdi]
    6eb1:	lea    rdi,[rip+0x8adb]        # f993 <_IO_stdin_used+0x133>
    6eb8:	mov    rsi,rbx
    6ebb:	repz cmps BYTE PTR ds:[rsi],BYTE PTR es:[rdi]
    6ebd:	seta   al
    6ec0:	sbb    al,0x0
    6ec2:	test   al,al
    6ec4:	jne    6ed8 <destroy_node+0x38>
    6ec6:	lea    rsi,[rip+0x8bb0]        # fa7d <_IO_stdin_used+0x21d>
    6ecd:	xor    edi,edi
    6ecf:	call   5230 <corrupt>
    6ed4:	mov    rbx,QWORD PTR [rbp+0x0]
    6ed8:	mov    rdi,rbx
    6edb:	call   2800 <strlen@plt>
    6ee0:	mov    rdi,QWORD PTR [rip+0x20f3f9]        # 2162e0 <tdb_ctx>
    6ee7:	mov    rsi,rbx
    6eea:	mov    rdx,rax
    6eed:	call   e000 <tdb_delete>
    6ef2:	add    rsp,0x8
    6ef6:	xor    eax,eax
    6ef8:	pop    rbx
    6ef9:	pop    rbp
    6efa:	ret    
    6efb:	nop    DWORD PTR [rax+rax*1+0x0]

0000000000006f00 <is_child>:
    6f00:	push   r12
    6f02:	push   rbp
    6f03:	mov    rbp,rdi
    6f06:	push   rbx
    6f07:	mov    rdi,rsi
    6f0a:	mov    rbx,rsi
    6f0d:	call   2800 <strlen@plt>
    6f12:	lea    rdi,[rip+0x8a7a]        # f993 <_IO_stdin_used+0x133>
    6f19:	mov    ecx,0x2
    6f1e:	mov    rsi,rbx
    6f21:	repz cmps BYTE PTR ds:[rsi],BYTE PTR es:[rdi]
    6f23:	mov    esi,0x1
    6f28:	seta   cl
    6f2b:	sbb    cl,0x0
    6f2e:	test   cl,cl
    6f30:	je     6f5c <is_child+0x5c>
    6f32:	mov    r12d,eax
    6f35:	mov    rsi,rbx
    6f38:	mov    rdi,rbp
    6f3b:	mov    rdx,r12
    6f3e:	call   2770 <strncmp@plt>
    6f43:	xor    esi,esi
    6f45:	test   eax,eax
    6f47:	jne    6f5c <is_child+0x5c>
    6f49:	movzx  eax,BYTE PTR [rbp+r12*1+0x0]
    6f4f:	cmp    al,0x2f
    6f51:	sete   sil
    6f55:	test   al,al
    6f57:	sete   al
    6f5a:	or     esi,eax
    6f5c:	pop    rbx
    6f5d:	mov    eax,esi
    6f5f:	pop    rbp
    6f60:	pop    r12
    6f62:	ret    
    6f63:	nop    DWORD PTR [rax]
    6f66:	nop    WORD PTR cs:[rax+rax*1+0x0]

0000000000006f70 <destroy_watch>:
    6f70:	lea    rsi,[rip+0x9603]        # 1057a <__FUNCTION__.12321+0x12>
    6f77:	sub    rsp,0x8
    6f7b:	call   48d0 <trace_destroy>
    6f80:	xor    eax,eax
    6f82:	add    rsp,0x8
    6f86:	ret    
    6f87:	nop    WORD PTR [rax+rax*1+0x0]

0000000000006f90 <add_event.isra.0>:
    6f90:	push   r15
    6f92:	push   r14
    6f94:	mov    r14,rdx
    6f97:	push   r13
    6f99:	push   r12
    6f9b:	mov    r13,rdi
    6f9e:	push   rbp
    6f9f:	push   rbx
    6fa0:	mov    rbp,rsi
    6fa3:	mov    r12,rcx
    6fa6:	mov    rbx,r8
    6fa9:	sub    rsp,0x8
    6fad:	test   r8,r8
    6fb0:	je     6fb8 <add_event.isra.0+0x28>
    6fb2:	cmp    BYTE PTR [r8],0x40
    6fb6:	je     6fe2 <add_event.isra.0+0x52>
    6fb8:	call   2750 <__errno_location@plt>
    6fbd:	mov    ecx,0x1
    6fc2:	mov    DWORD PTR [rax],0x16
    6fc8:	mov    rdx,rbx
    6fcb:	mov    rsi,rbp
    6fce:	mov    rdi,r13
    6fd1:	mov    r15,rax
    6fd4:	call   5f30 <get_node>
    6fd9:	test   rax,rax
    6fdc:	je     7080 <add_event.isra.0+0xf0>
    6fe2:	mov    rdi,QWORD PTR [r14]
    6fe5:	test   rdi,rdi
    6fe8:	je     6ffd <add_event.isra.0+0x6d>
    6fea:	call   2800 <strlen@plt>
    6fef:	add    rbx,rax
    6ff2:	xor    eax,eax
    6ff4:	cmp    BYTE PTR [rbx],0x2f
    6ff7:	sete   al
    6ffa:	add    rbx,rax
    6ffd:	mov    rdi,rbx
    7000:	call   2800 <strlen@plt>
    7005:	mov    rdi,QWORD PTR [r12]
    7009:	mov    r14,rax
    700c:	call   2800 <strlen@plt>
    7011:	lea    r14d,[r14+rax*1+0x2]
    7016:	lea    rcx,[rip+0x886e]        # f88b <_IO_stdin_used+0x2b>
    701d:	mov    rdi,rbp
    7020:	mov    esi,0x1
    7025:	mov    edx,r14d
    7028:	call   bad0 <_talloc_array>
    702d:	test   rax,rax
    7030:	mov    rbp,rax
    7033:	je     7095 <add_event.isra.0+0x105>
    7035:	mov    rsi,rbx
    7038:	mov    rdi,rax
    703b:	call   2780 <strcpy@plt>
    7040:	mov    rdi,rbx
    7043:	call   2800 <strlen@plt>
    7048:	mov    rsi,QWORD PTR [r12]
    704c:	lea    rdi,[rbp+rax*1+0x1]
    7051:	call   2780 <strcpy@plt>
    7056:	mov    rdi,r13
    7059:	mov    ecx,r14d
    705c:	mov    rdx,rbp
    705f:	mov    esi,0xf
    7064:	call   4a40 <send_reply>
    7069:	add    rsp,0x8
    706d:	mov    rdi,rbp
    7070:	pop    rbx
    7071:	pop    rbp
    7072:	pop    r12
    7074:	pop    r13
    7076:	pop    r14
    7078:	pop    r15
    707a:	jmp    a6a0 <talloc_free>
    707f:	nop
    7080:	mov    eax,DWORD PTR [r15]
    7083:	cmp    eax,0xd
    7086:	je     6fe2 <add_event.isra.0+0x52>
    708c:	cmp    eax,0x2
    708f:	je     6fe2 <add_event.isra.0+0x52>
    7095:	add    rsp,0x8
    7099:	pop    rbx
    709a:	pop    rbp
    709b:	pop    r12
    709d:	pop    r13
    709f:	pop    r14
    70a1:	pop    r15
    70a3:	ret    
    70a4:	xchg   ax,ax
    70a6:	nop    WORD PTR cs:[rax+rax*1+0x0]

00000000000070b0 <fire_watches>:
    70b0:	push   r15
    70b2:	push   r14
    70b4:	mov    r14d,ecx
    70b7:	push   r13
    70b9:	push   r12
    70bb:	push   rbp
    70bc:	push   rbx
    70bd:	sub    rsp,0x18
    70c1:	test   rdi,rdi
    70c4:	je     70e0 <fire_watches+0x30>
    70c6:	cmp    QWORD PTR [rdi+0x38],0x0
    70cb:	je     70e0 <fire_watches+0x30>
    70cd:	add    rsp,0x18
    70d1:	pop    rbx
    70d2:	pop    rbp
    70d3:	pop    r12
    70d5:	pop    r13
    70d7:	pop    r14
    70d9:	pop    r15
    70db:	ret    
    70dc:	nop    DWORD PTR [rax+0x0]
    70e0:	mov    r12,QWORD PTR [rip+0x20f179]        # 216260 <connections>
    70e7:	lea    rax,[rip+0x20f172]        # 216260 <connections>
    70ee:	mov    rbp,rdx
    70f1:	mov    QWORD PTR [rsp+0x8],rsi
    70f6:	cmp    r12,rax
    70f9:	je     70cd <fire_watches+0x1d>
    70fb:	nop    DWORD PTR [rax+rax*1+0x0]
    7100:	mov    r15,QWORD PTR [r12+0x68]
    7105:	lea    r13,[r12+0x68]
    710a:	cmp    r15,r13
    710d:	jne    7134 <fire_watches+0x84>
    710f:	jmp    7167 <fire_watches+0xb7>
    7111:	nop    DWORD PTR [rax+0x0]
    7118:	test   r14b,r14b
    711b:	je     712c <fire_watches+0x7c>
    711d:	mov    rsi,rbp
    7120:	mov    rdi,rbx
    7123:	call   6f00 <is_child>
    7128:	test   al,al
    712a:	jne    7190 <fire_watches+0xe0>
    712c:	mov    r15,QWORD PTR [r15]
    712f:	cmp    r15,r13
    7132:	je     7167 <fire_watches+0xb7>
    7134:	mov    rbx,QWORD PTR [r15+0x30]
    7138:	mov    rdi,rbp
    713b:	mov    rsi,rbx
    713e:	call   6f00 <is_child>
    7143:	test   al,al
    7145:	je     7118 <fire_watches+0x68>
    7147:	mov    rsi,QWORD PTR [rsp+0x8]
    714c:	lea    rcx,[r15+0x28]
    7150:	lea    rdx,[r15+0x20]
    7154:	mov    r8,rbp
    7157:	mov    rdi,r12
    715a:	call   6f90 <add_event.isra.0>
    715f:	mov    r15,QWORD PTR [r15]
    7162:	cmp    r15,r13
    7165:	jne    7134 <fire_watches+0x84>
    7167:	mov    r12,QWORD PTR [r12]
    716b:	lea    rax,[rip+0x20f0ee]        # 216260 <connections>
    7172:	cmp    r12,rax
    7175:	jne    7100 <fire_watches+0x50>
    7177:	add    rsp,0x18
    717b:	pop    rbx
    717c:	pop    rbp
    717d:	pop    r12
    717f:	pop    r13
    7181:	pop    r14
    7183:	pop    r15
    7185:	ret    
    7186:	nop    WORD PTR cs:[rax+rax*1+0x0]
    7190:	mov    rsi,QWORD PTR [rsp+0x8]
    7195:	lea    rcx,[r15+0x28]
    7199:	lea    rdx,[r15+0x20]
    719d:	mov    r8,rbx
    71a0:	mov    rdi,r12
    71a3:	call   6f90 <add_event.isra.0>
    71a8:	jmp    712c <fire_watches+0x7c>
    71aa:	nop    WORD PTR [rax+rax*1+0x0]

00000000000071b0 <do_watch>:
    71b0:	push   r15
    71b2:	push   r14
    71b4:	mov    edx,0x2
    71b9:	push   r13
    71bb:	push   r12
    71bd:	mov    r13,rsi
    71c0:	push   rbp
    71c1:	push   rbx
    71c2:	mov    r12,rdi
    71c5:	mov    rdi,r13
    71c8:	sub    rsp,0x38
    71cc:	lea    rsi,[rsp+0x10]
    71d1:	mov    rax,QWORD PTR fs:0x28
    71da:	mov    QWORD PTR [rsp+0x28],rax
    71df:	xor    eax,eax
    71e1:	call   49c0 <get_strings>
    71e6:	cmp    eax,0x2
    71e9:	jne    7350 <do_watch+0x1a0>
    71ef:	mov    rdi,QWORD PTR [rsp+0x10]
    71f4:	movzx  ebx,BYTE PTR [rdi]
    71f7:	cmp    bl,0x40
    71fa:	jne    7378 <do_watch+0x1c8>
    7200:	call   2800 <strlen@plt>
    7205:	cmp    rax,0x800
    720b:	ja     7350 <do_watch+0x1a0>
    7211:	mov    BYTE PTR [rsp+0xf],0x0
    7216:	mov    r15,QWORD PTR [r12+0x68]
    721b:	lea    rbx,[r12+0x68]
    7220:	cmp    r15,rbx
    7223:	je     725c <do_watch+0xac>
    7225:	mov    rbp,QWORD PTR [rsp+0x10]
    722a:	mov    r14,QWORD PTR [rsp+0x18]
    722f:	nop
    7230:	mov    rdi,QWORD PTR [r15+0x30]
    7234:	mov    rsi,rbp
    7237:	call   29c0 <strcmp@plt>
    723c:	test   eax,eax
    723e:	jne    7254 <do_watch+0xa4>
    7240:	mov    rdi,QWORD PTR [r15+0x28]
    7244:	mov    rsi,r14
    7247:	call   29c0 <strcmp@plt>
    724c:	test   eax,eax
    724e:	je     73c0 <do_watch+0x210>
    7254:	mov    r15,QWORD PTR [r15]
    7257:	cmp    r15,rbx
    725a:	jne    7230 <do_watch+0x80>
    725c:	mov    rdi,r12
    725f:	call   80a0 <domain_watch>
    7264:	mov    edx,eax
    7266:	cmp    edx,DWORD PTR [rip+0x20edac]        # 216018 <quota_nb_watch_per_domain>
    726c:	mov    eax,0x7
    7271:	jg     7355 <do_watch+0x1a5>
    7277:	lea    rdx,[rip+0x92f5]        # 10573 <__FUNCTION__.12321+0xb>
    727e:	mov    esi,0x38
    7283:	mov    rdi,r12
    7286:	call   a240 <talloc_named_const>
    728b:	test   rax,rax
    728e:	mov    rbp,rax
    7291:	je     73b8 <do_watch+0x208>
    7297:	mov    rsi,QWORD PTR [rsp+0x10]
    729c:	mov    rdi,rax
    729f:	call   b2f0 <talloc_strdup>
    72a4:	mov    rsi,QWORD PTR [rsp+0x18]
    72a9:	mov    QWORD PTR [rbp+0x30],rax
    72ad:	mov    rdi,rbp
    72b0:	call   b2f0 <talloc_strdup>
    72b5:	cmp    QWORD PTR [rbp+0x30],0x0
    72ba:	mov    QWORD PTR [rbp+0x28],rax
    72be:	je     73a9 <do_watch+0x1f9>
    72c4:	test   rax,rax
    72c7:	je     73a9 <do_watch+0x1f9>
    72cd:	cmp    BYTE PTR [rsp+0xf],0x0
    72d2:	jne    73c7 <do_watch+0x217>
    72d8:	mov    QWORD PTR [rbp+0x20],0x0
    72e0:	lea    rax,[rbp+0x10]
    72e4:	mov    rdi,r12
    72e7:	mov    QWORD PTR [rbp+0x10],rax
    72eb:	mov    QWORD PTR [rbp+0x18],rax
    72ef:	call   8060 <domain_watch_inc>
    72f4:	mov    rax,QWORD PTR [r12+0x70]
    72f9:	lea    rsi,[rip+0x927a]        # 1057a <__FUNCTION__.12321+0x12>
    7300:	mov    QWORD PTR [r12+0x70],rbp
    7305:	mov    rdi,rbp
    7308:	mov    QWORD PTR [rbp+0x0],rbx
    730c:	mov    QWORD PTR [rbp+0x8],rax
    7310:	mov    QWORD PTR [rax],rbp
    7313:	call   48b0 <trace_create>
    7318:	lea    rsi,[rip+0xfffffffffffffc51]        # 6f70 <destroy_watch>
    731f:	mov    rdi,rbp
    7322:	call   a1f0 <talloc_set_destructor>
    7327:	mov    esi,0x4
    732c:	mov    rdi,r12
    732f:	call   4f50 <send_ack>
    7334:	mov    r8,QWORD PTR [rbp+0x30]
    7338:	lea    rcx,[rbp+0x28]
    733c:	lea    rdx,[rbp+0x20]
    7340:	mov    rsi,r13
    7343:	mov    rdi,r12
    7346:	call   6f90 <add_event.isra.0>
    734b:	xor    eax,eax
    734d:	jmp    7355 <do_watch+0x1a5>
    734f:	nop
    7350:	mov    eax,0x16
    7355:	mov    rcx,QWORD PTR [rsp+0x28]
    735a:	xor    rcx,QWORD PTR fs:0x28
    7363:	jne    73d8 <do_watch+0x228>
    7365:	add    rsp,0x38
    7369:	pop    rbx
    736a:	pop    rbp
    736b:	pop    r12
    736d:	pop    r13
    736f:	pop    r14
    7371:	pop    r15
    7373:	ret    
    7374:	nop    DWORD PTR [rax+0x0]
    7378:	mov    rdx,rdi
    737b:	mov    rsi,r13
    737e:	mov    rdi,r12
    7381:	call   5060 <canonicalize>
    7386:	test   rax,rax
    7389:	mov    QWORD PTR [rsp+0x10],rax
    738e:	je     73b8 <do_watch+0x208>
    7390:	mov    rdi,rax
    7393:	call   4f70 <is_valid_nodename>
    7398:	test   al,al
    739a:	je     7350 <do_watch+0x1a0>
    739c:	cmp    bl,0x2f
    739f:	setne  BYTE PTR [rsp+0xf]
    73a4:	jmp    7216 <do_watch+0x66>
    73a9:	mov    rdi,rbp
    73ac:	call   a6a0 <talloc_free>
    73b1:	nop    DWORD PTR [rax+0x0]
    73b8:	mov    eax,0xc
    73bd:	jmp    7355 <do_watch+0x1a5>
    73bf:	nop
    73c0:	mov    eax,0x11
    73c5:	jmp    7355 <do_watch+0x1a5>
    73c7:	mov    rdi,r12
    73ca:	call   7ea0 <get_implicit_path>
    73cf:	mov    QWORD PTR [rbp+0x20],rax
    73d3:	jmp    72e0 <do_watch+0x130>
    73d8:	call   2820 <__stack_chk_fail@plt>
    73dd:	nop    DWORD PTR [rax]

00000000000073e0 <do_unwatch>:
    73e0:	push   r15
    73e2:	push   r14
    73e4:	mov    edx,0x2
    73e9:	push   r13
    73eb:	push   r12
    73ed:	mov    r13,rdi
    73f0:	push   rbp
    73f1:	push   rbx
    73f2:	mov    rbx,rsi
    73f5:	mov    rdi,rbx
    73f8:	mov    r15d,0x16
    73fe:	sub    rsp,0x28
    7402:	mov    rsi,rsp
    7405:	mov    rax,QWORD PTR fs:0x28
    740e:	mov    QWORD PTR [rsp+0x18],rax
    7413:	xor    eax,eax
    7415:	call   49c0 <get_strings>
    741a:	cmp    eax,0x2
    741d:	je     7448 <do_unwatch+0x68>
    741f:	mov    rcx,QWORD PTR [rsp+0x18]
    7424:	xor    rcx,QWORD PTR fs:0x28
    742d:	mov    eax,r15d
    7430:	jne    74fb <do_unwatch+0x11b>
    7436:	add    rsp,0x28
    743a:	pop    rbx
    743b:	pop    rbp
    743c:	pop    r12
    743e:	pop    r13
    7440:	pop    r14
    7442:	pop    r15
    7444:	ret    
    7445:	nop    DWORD PTR [rax]
    7448:	mov    rdx,QWORD PTR [rsp]
    744c:	mov    rsi,rbx
    744f:	mov    rdi,r13
    7452:	call   5060 <canonicalize>
    7457:	test   rax,rax
    745a:	mov    rbp,rax
    745d:	je     74f0 <do_unwatch+0x110>
    7463:	mov    rbx,QWORD PTR [r13+0x68]
    7467:	lea    r12,[r13+0x68]
    746b:	cmp    r12,rbx
    746e:	je     74a3 <do_unwatch+0xc3>
    7470:	mov    r14,QWORD PTR [rsp+0x8]
    7475:	nop    DWORD PTR [rax]
    7478:	mov    rdi,QWORD PTR [rbx+0x30]
    747c:	mov    rsi,rbp
    747f:	call   29c0 <strcmp@plt>
    7484:	test   eax,eax
    7486:	jne    749b <do_unwatch+0xbb>
    7488:	mov    rdi,QWORD PTR [rbx+0x28]
    748c:	mov    rsi,r14
    748f:	call   29c0 <strcmp@plt>
    7494:	test   eax,eax
    7496:	mov    r15d,eax
    7499:	je     74b0 <do_unwatch+0xd0>
    749b:	mov    rbx,QWORD PTR [rbx]
    749e:	cmp    rbx,r12
    74a1:	jne    7478 <do_unwatch+0x98>
    74a3:	mov    r15d,0x2
    74a9:	jmp    741f <do_unwatch+0x3f>
    74ae:	xchg   ax,ax
    74b0:	mov    rdx,QWORD PTR [rbx]
    74b3:	mov    rax,QWORD PTR [rbx+0x8]
    74b7:	mov    rdi,rbx
    74ba:	mov    QWORD PTR [rdx+0x8],rax
    74be:	mov    QWORD PTR [rax],rdx
    74c1:	mov    QWORD PTR [rbx],0x100100
    74c8:	mov    QWORD PTR [rbx+0x8],0x200200
    74d0:	call   a6a0 <talloc_free>
    74d5:	mov    rdi,r13
    74d8:	call   8080 <domain_watch_dec>
    74dd:	mov    esi,0x5
    74e2:	mov    rdi,r13
    74e5:	call   4f50 <send_ack>
    74ea:	jmp    741f <do_unwatch+0x3f>
    74ef:	nop
    74f0:	mov    r15d,0xc
    74f6:	jmp    741f <do_unwatch+0x3f>
    74fb:	call   2820 <__stack_chk_fail@plt>

0000000000007500 <conn_delete_all_watches>:
    7500:	push   rbp
    7501:	push   rbx
    7502:	lea    rbp,[rdi+0x68]
    7506:	mov    rbx,rdi
    7509:	sub    rsp,0x8
    750d:	mov    rdi,QWORD PTR [rdi+0x68]
    7511:	test   rdi,rdi
    7514:	je     7558 <conn_delete_all_watches+0x58>
    7516:	cmp    rbp,rdi
    7519:	jne    7525 <conn_delete_all_watches+0x25>
    751b:	jmp    7558 <conn_delete_all_watches+0x58>
    751d:	nop    DWORD PTR [rax]
    7520:	test   rdi,rdi
    7523:	je     7558 <conn_delete_all_watches+0x58>
    7525:	mov    rdx,QWORD PTR [rdi]
    7528:	mov    rax,QWORD PTR [rdi+0x8]
    752c:	mov    QWORD PTR [rdx+0x8],rax
    7530:	mov    QWORD PTR [rax],rdx
    7533:	mov    QWORD PTR [rdi],0x100100
    753a:	mov    QWORD PTR [rdi+0x8],0x200200
    7542:	call   a6a0 <talloc_free>
    7547:	mov    rdi,rbx
    754a:	call   8080 <domain_watch_dec>
    754f:	mov    rdi,QWORD PTR [rbx+0x68]
    7553:	cmp    rdi,rbp
    7556:	jne    7520 <conn_delete_all_watches+0x20>
    7558:	add    rsp,0x8
    755c:	pop    rbx
    755d:	pop    rbp
    755e:	ret    
    755f:	nop

0000000000007560 <unmap_interface>:
    7560:	mov    rax,QWORD PTR [rip+0x211e29]        # 219390 <xgt_handle>
    7567:	mov    rax,QWORD PTR [rax]
    756a:	test   rax,rax
    756d:	je     7580 <unmap_interface+0x20>
    756f:	mov    rsi,rdi
    7572:	mov    edx,0x1
    7577:	mov    rdi,rax
    757a:	jmp    2a40 <xengnttab_unmap@plt>
    757f:	nop
    7580:	mov    esi,0x1000
    7585:	jmp    2b00 <munmap@plt>
    758a:	nop    WORD PTR [rax+rax*1+0x0]

0000000000007590 <destroy_domain>:
    7590:	push   rbx
    7591:	mov    rdx,QWORD PTR [rdi]
    7594:	mov    rbx,rdi
    7597:	mov    rax,QWORD PTR [rdi+0x8]
    759b:	mov    QWORD PTR [rdx+0x8],rax
    759f:	mov    QWORD PTR [rax],rdx
    75a2:	mov    esi,DWORD PTR [rdi+0x14]
    75a5:	mov    QWORD PTR [rdi],0x100100
    75ac:	mov    QWORD PTR [rdi+0x8],0x200200
    75b4:	test   esi,esi
    75b6:	jne    7620 <destroy_domain+0x90>
    75b8:	mov    rdi,QWORD PTR [rbx+0x30]
    75bc:	test   rdi,rdi
    75bf:	je     75cd <destroy_domain+0x3d>
    75c1:	mov    eax,DWORD PTR [rbx+0x10]
    75c4:	test   eax,eax
    75c6:	jne    7618 <destroy_domain+0x88>
    75c8:	call   f660 <unmap_xenbus>
    75cd:	lea    rdx,[rip+0x923c]        # 10810 <__FUNCTION__.12321+0x2a8>
    75d4:	xor    ecx,ecx
    75d6:	xor    edi,edi
    75d8:	mov    rsi,rbx
    75db:	call   70b0 <fire_watches>
    75e0:	mov    ecx,DWORD PTR [rip+0x20ed42]        # 216328 <wrl_reserve>
    75e6:	mov    edx,DWORD PTR [rbx+0x4c]
    75e9:	mov    eax,0x2710
    75ee:	sub    QWORD PTR [rip+0x20ed3a],0x1        # 216330 <wrl_ndomains>
    75f6:	sub    eax,ecx
    75f8:	cmp    eax,edx
    75fa:	cmovg  eax,edx
    75fd:	test   eax,eax
    75ff:	jle    760e <destroy_domain+0x7e>
    7601:	sub    edx,eax
    7603:	add    eax,ecx
    7605:	mov    DWORD PTR [rbx+0x4c],edx
    7608:	mov    DWORD PTR [rip+0x20ed1a],eax        # 216328 <wrl_reserve>
    760e:	xor    eax,eax
    7610:	pop    rbx
    7611:	ret    
    7612:	nop    WORD PTR [rax+rax*1+0x0]
    7618:	call   7560 <unmap_interface>
    761d:	jmp    75cd <destroy_domain+0x3d>
    761f:	nop
    7620:	mov    rdi,QWORD PTR [rip+0x20ecf1]        # 216318 <xce_handle>
    7627:	call   29b0 <xenevtchn_unbind@plt>
    762c:	cmp    eax,0xffffffff
    762f:	jne    75b8 <destroy_domain+0x28>
    7631:	mov    edx,DWORD PTR [rbx+0x14]
    7634:	lea    rsi,[rip+0x929d]        # 108d8 <__FUNCTION__.11174>
    763b:	lea    rdi,[rip+0x8f3e]        # 10580 <__FUNCTION__.12321+0x18>
    7642:	xor    eax,eax
    7644:	call   QWORD PTR [rip+0x20ec36]        # 216280 <xprintf>
    764a:	jmp    75b8 <destroy_domain+0x28>
    764f:	nop

0000000000007650 <onearg_domain>:
    7650:	push   rbx
    7651:	mov    rbx,rdi
    7654:	mov    rdi,rsi
    7657:	call   5020 <onearg>
    765c:	test   rax,rax
    765f:	je     76a7 <onearg_domain+0x57>
    7661:	mov    edx,0xa
    7666:	xor    esi,esi
    7668:	mov    rdi,rax
    766b:	call   2a10 <strtol@plt>
    7670:	test   eax,eax
    7672:	mov    rdx,rax
    7675:	mov    ecx,eax
    7677:	je     76a7 <onearg_domain+0x57>
    7679:	test   rbx,rbx
    767c:	je     76b0 <onearg_domain+0x60>
    767e:	mov    rax,QWORD PTR [rbx+0x58]
    7682:	test   rax,rax
    7685:	je     76b0 <onearg_domain+0x60>
    7687:	mov    esi,DWORD PTR [rax+0x10]
    768a:	test   esi,esi
    768c:	je     76b0 <onearg_domain+0x60>
    768e:	cmp    esi,DWORD PTR [rip+0x20ec3c]        # 2162d0 <priv_domid>
    7694:	mov    rax,0xfffffffffffffff3
    769b:	je     76b0 <onearg_domain+0x60>
    769d:	pop    rbx
    769e:	ret    
    769f:	nop
    76a0:	cmp    QWORD PTR [rax+0x38],0x0
    76a5:	jne    769d <onearg_domain+0x4d>
    76a7:	mov    rax,0xffffffffffffffea
    76ae:	pop    rbx
    76af:	ret    
    76b0:	mov    rax,QWORD PTR [rip+0x20ebb9]        # 216270 <domains>
    76b7:	lea    rsi,[rip+0x20ebb2]        # 216270 <domains>
    76be:	cmp    rax,rsi
    76c1:	je     76dd <onearg_domain+0x8d>
    76c3:	cmp    edx,DWORD PTR [rax+0x10]
    76c6:	jne    76d5 <onearg_domain+0x85>
    76c8:	jmp    76a0 <onearg_domain+0x50>
    76ca:	nop    WORD PTR [rax+rax*1+0x0]
    76d0:	cmp    ecx,DWORD PTR [rax+0x10]
    76d3:	je     76a0 <onearg_domain+0x50>
    76d5:	mov    rax,QWORD PTR [rax]
    76d8:	cmp    rax,rsi
    76db:	jne    76d0 <onearg_domain+0x80>
    76dd:	mov    rax,0xfffffffffffffffe
    76e4:	pop    rbx
    76e5:	ret    
    76e6:	nop    WORD PTR cs:[rax+rax*1+0x0]

00000000000076f0 <close_xgt_handle>:
    76f0:	sub    rsp,0x8
    76f4:	mov    rdi,QWORD PTR [rdi]
    76f7:	call   2ae0 <xengnttab_close@plt>
    76fc:	xor    eax,eax
    76fe:	add    rsp,0x8
    7702:	ret    
    7703:	nop    DWORD PTR [rax]
    7706:	nop    WORD PTR cs:[rax+rax*1+0x0]

0000000000007710 <close_xc_handle>:
    7710:	sub    rsp,0x8
    7714:	mov    rdi,QWORD PTR [rdi]
    7717:	call   28f0 <xc_interface_close@plt>
    771c:	xor    eax,eax
    771e:	add    rsp,0x8
    7722:	ret    
    7723:	nop    DWORD PTR [rax]
    7726:	nop    WORD PTR cs:[rax+rax*1+0x0]

0000000000007730 <writechn>:
    7730:	push   rbx
    7731:	mov    rax,QWORD PTR [rdi+0x58]
    7735:	mov    r9,QWORD PTR [rax+0x30]
    7739:	mov    ecx,DWORD PTR [r9+0x808]
    7740:	mov    r10d,DWORD PTR [r9+0x80c]
    7747:	mfence 
    774a:	mov    eax,r10d
    774d:	sub    eax,ecx
    774f:	cmp    eax,0x400
    7754:	ja     7810 <writechn+0xe0>
    775a:	lea    ebx,[rcx+0x400]
    7760:	mov    r8,rdi
    7763:	mov    edi,r10d
    7766:	and    edi,0x3ff
    776c:	mov    ecx,ebx
    776e:	mov    ebx,0x400
    7773:	sub    ecx,r10d
    7776:	sub    ebx,edi
    7778:	cmp    ecx,ebx
    777a:	cmovbe ebx,ecx
    777d:	lea    rcx,[r9+rdi*1+0x400]
    7785:	cmp    ebx,edx
    7787:	cmova  ebx,edx
    778a:	cmp    ebx,0x8
    778d:	jae    77b0 <writechn+0x80>
    778f:	test   bl,0x4
    7792:	jne    7800 <writechn+0xd0>
    7794:	test   ebx,ebx
    7796:	je     77d8 <writechn+0xa8>
    7798:	movzx  eax,BYTE PTR [rsi]
    779b:	test   bl,0x2
    779e:	mov    BYTE PTR [rcx],al
    77a0:	je     77d8 <writechn+0xa8>
    77a2:	mov    eax,ebx
    77a4:	movzx  edx,WORD PTR [rsi+rax*1-0x2]
    77a9:	mov    WORD PTR [rcx+rax*1-0x2],dx
    77ae:	jmp    77d8 <writechn+0xa8>
    77b0:	mov    rax,QWORD PTR [rsi]
    77b3:	lea    rdi,[rcx+0x8]
    77b7:	and    rdi,0xfffffffffffffff8
    77bb:	mov    QWORD PTR [rcx],rax
    77be:	mov    eax,ebx
    77c0:	mov    rdx,QWORD PTR [rsi+rax*1-0x8]
    77c5:	mov    QWORD PTR [rcx+rax*1-0x8],rdx
    77ca:	sub    rcx,rdi
    77cd:	sub    rsi,rcx
    77d0:	add    ecx,ebx
    77d2:	shr    ecx,0x3
    77d5:	rep movs QWORD PTR es:[rdi],QWORD PTR ds:[rsi]
    77d8:	mfence 
    77db:	add    DWORD PTR [r9+0x80c],ebx
    77e2:	mov    rdi,QWORD PTR [rip+0x20eb2f]        # 216318 <xce_handle>
    77e9:	mov    rax,QWORD PTR [r8+0x58]
    77ed:	mov    esi,DWORD PTR [rax+0x14]
    77f0:	call   2730 <xenevtchn_notify@plt>
    77f5:	mov    eax,ebx
    77f7:	pop    rbx
    77f8:	ret    
    77f9:	nop    DWORD PTR [rax+0x0]
    7800:	mov    eax,DWORD PTR [rsi]
    7802:	mov    DWORD PTR [rcx],eax
    7804:	mov    eax,ebx
    7806:	mov    edx,DWORD PTR [rsi+rax*1-0x4]
    780a:	mov    DWORD PTR [rcx+rax*1-0x4],edx
    780e:	jmp    77d8 <writechn+0xa8>
    7810:	call   2750 <__errno_location@plt>
    7815:	mov    DWORD PTR [rax],0x5
    781b:	mov    eax,0xffffffff
    7820:	pop    rbx
    7821:	ret    
    7822:	nop    DWORD PTR [rax+0x0]
    7826:	nop    WORD PTR cs:[rax+rax*1+0x0]

0000000000007830 <readchn>:
    7830:	push   rbx
    7831:	mov    rax,QWORD PTR [rdi+0x58]
    7835:	mov    r9,QWORD PTR [rax+0x30]
    7839:	mov    ecx,DWORD PTR [r9+0x800]
    7840:	mov    ebx,DWORD PTR [r9+0x804]
    7847:	mfence 
    784a:	sub    ebx,ecx
    784c:	cmp    ebx,0x400
    7852:	ja     7910 <readchn+0xe0>
    7858:	and    ecx,0x3ff
    785e:	cmp    edx,ebx
    7860:	mov    r8,rdi
    7863:	cmova  edx,ebx
    7866:	mov    ebx,0x400
    786b:	sub    ebx,ecx
    786d:	cmp    ebx,edx
    786f:	cmova  ebx,edx
    7872:	add    rcx,r9
    7875:	cmp    ebx,0x8
    7878:	jae    78a0 <readchn+0x70>
    787a:	test   bl,0x4
    787d:	jne    78f8 <readchn+0xc8>
    787f:	test   ebx,ebx
    7881:	je     78d3 <readchn+0xa3>
    7883:	movzx  eax,BYTE PTR [rcx]
    7886:	test   bl,0x2
    7889:	mov    BYTE PTR [rsi],al
    788b:	je     78d3 <readchn+0xa3>
    788d:	mov    eax,ebx
    788f:	movzx  edx,WORD PTR [rcx+rax*1-0x2]
    7894:	mov    WORD PTR [rsi+rax*1-0x2],dx
    7899:	jmp    78d3 <readchn+0xa3>
    789b:	nop    DWORD PTR [rax+rax*1+0x0]
    78a0:	mov    rax,QWORD PTR [rcx]
    78a3:	lea    rdi,[rsi+0x8]
    78a7:	and    rdi,0xfffffffffffffff8
    78ab:	mov    QWORD PTR [rsi],rax
    78ae:	mov    eax,ebx
    78b0:	mov    rdx,QWORD PTR [rcx+rax*1-0x8]
    78b5:	mov    QWORD PTR [rsi+rax*1-0x8],rdx
    78ba:	mov    rax,rsi
    78bd:	mov    rsi,rcx
    78c0:	sub    rax,rdi
    78c3:	lea    ecx,[rbx+rax*1]
    78c6:	sub    rsi,rax
    78c9:	mov    eax,ecx
    78cb:	shr    eax,0x3
    78ce:	mov    ecx,eax
    78d0:	rep movs QWORD PTR es:[rdi],QWORD PTR ds:[rsi]
    78d3:	mfence 
    78d6:	add    DWORD PTR [r9+0x800],ebx
    78dd:	mov    rdi,QWORD PTR [rip+0x20ea34]        # 216318 <xce_handle>
    78e4:	mov    rax,QWORD PTR [r8+0x58]
    78e8:	mov    esi,DWORD PTR [rax+0x14]
    78eb:	call   2730 <xenevtchn_notify@plt>
    78f0:	mov    eax,ebx
    78f2:	pop    rbx
    78f3:	ret    
    78f4:	nop    DWORD PTR [rax+0x0]
    78f8:	mov    eax,DWORD PTR [rcx]
    78fa:	mov    DWORD PTR [rsi],eax
    78fc:	mov    eax,ebx
    78fe:	mov    edx,DWORD PTR [rcx+rax*1-0x4]
    7902:	mov    DWORD PTR [rsi+rax*1-0x4],edx
    7906:	jmp    78d3 <readchn+0xa3>
    7908:	nop    DWORD PTR [rax+rax*1+0x0]
    7910:	call   2750 <__errno_location@plt>
    7915:	mov    DWORD PTR [rax],0x5
    791b:	mov    eax,0xffffffff
    7920:	pop    rbx
    7921:	ret    
    7922:	nop    DWORD PTR [rax+0x0]
    7926:	nop    WORD PTR cs:[rax+rax*1+0x0]

0000000000007930 <handle_event>:
    7930:	push   r15
    7932:	push   r14
    7934:	push   r13
    7936:	push   r12
    7938:	push   rbp
    7939:	push   rbx
    793a:	sub    rsp,0x78
    793e:	mov    rdi,QWORD PTR [rip+0x20e9d3]        # 216318 <xce_handle>
    7945:	mov    rax,QWORD PTR fs:0x28
    794e:	mov    QWORD PTR [rsp+0x68],rax
    7953:	xor    eax,eax
    7955:	call   28e0 <xenevtchn_pending@plt>
    795a:	cmp    eax,0xffffffff
    795d:	je     7a86 <handle_event+0x156>
    7963:	cmp    DWORD PTR [rip+0x20e9cf],eax        # 216338 <virq_port>
    7969:	mov    ebp,eax
    796b:	je     79b0 <handle_event+0x80>
    796d:	mov    rdi,QWORD PTR [rip+0x20e9a4]        # 216318 <xce_handle>
    7974:	mov    esi,ebp
    7976:	call   2880 <xenevtchn_unmask@plt>
    797b:	cmp    eax,0xffffffff
    797e:	je     7a78 <handle_event+0x148>
    7984:	mov    rax,QWORD PTR [rsp+0x68]
    7989:	xor    rax,QWORD PTR fs:0x28
    7992:	jne    7a94 <handle_event+0x164>
    7998:	add    rsp,0x78
    799c:	pop    rbx
    799d:	pop    rbp
    799e:	pop    r12
    79a0:	pop    r13
    79a2:	pop    r14
    79a4:	pop    r15
    79a6:	ret    
    79a7:	nop    WORD PTR [rax+rax*1+0x0]
    79b0:	lea    r12,[rip+0x20e8b9]        # 216270 <domains>
    79b7:	mov    r13,rsp
    79ba:	mov    rbx,QWORD PTR [r12]
    79be:	cmp    rbx,r12
    79c1:	je     796d <handle_event+0x3d>
    79c3:	xor    r14d,r14d
    79c6:	jmp    79e1 <handle_event+0xb1>
    79c8:	nop    DWORD PTR [rax+rax*1+0x0]
    79d0:	mov    r15,QWORD PTR [rbx+0x38]
    79d4:	test   r15,r15
    79d7:	jne    7a38 <handle_event+0x108>
    79d9:	mov    rbx,QWORD PTR [rbx]
    79dc:	cmp    rbx,r12
    79df:	je     7a58 <handle_event+0x128>
    79e1:	mov    rax,QWORD PTR [rip+0x20e958]        # 216340 <xc_handle>
    79e8:	mov    esi,DWORD PTR [rbx+0x10]
    79eb:	mov    rcx,r13
    79ee:	mov    edx,0x1
    79f3:	mov    rdi,QWORD PTR [rax]
    79f6:	call   27f0 <xc_domain_getinfo@plt>
    79fb:	cmp    eax,0x1
    79fe:	jne    79d0 <handle_event+0xa0>
    7a00:	mov    eax,DWORD PTR [rbx+0x10]
    7a03:	cmp    DWORD PTR [rsp],eax
    7a06:	jne    79d0 <handle_event+0xa0>
    7a08:	movzx  eax,BYTE PTR [rsp+0x8]
    7a0d:	test   al,0x6
    7a0f:	je     7a25 <handle_event+0xf5>
    7a11:	mov    edx,DWORD PTR [rbx+0x40]
    7a14:	test   edx,edx
    7a16:	jne    7a25 <handle_event+0xf5>
    7a18:	mov    DWORD PTR [rbx+0x40],0x1
    7a1f:	mov    r14d,0x1
    7a25:	test   al,0x1
    7a27:	je     79d9 <handle_event+0xa9>
    7a29:	mov    r15,QWORD PTR [rbx+0x38]
    7a2d:	test   r15,r15
    7a30:	je     79d9 <handle_event+0xa9>
    7a32:	nop    WORD PTR [rax+rax*1+0x0]
    7a38:	call   bb70 <talloc_autofree_context>
    7a3d:	mov    rsi,r15
    7a40:	mov    rdi,rax
    7a43:	call   abf0 <talloc_unlink>
    7a48:	mov    QWORD PTR [rbx+0x38],0x0
    7a50:	jmp    79ba <handle_event+0x8a>
    7a55:	nop    DWORD PTR [rax]
    7a58:	test   r14d,r14d
    7a5b:	je     796d <handle_event+0x3d>
    7a61:	lea    rdx,[rip+0x8da8]        # 10810 <__FUNCTION__.12321+0x2a8>
    7a68:	xor    ecx,ecx
    7a6a:	xor    esi,esi
    7a6c:	xor    edi,edi
    7a6e:	call   70b0 <fire_watches>
    7a73:	jmp    796d <handle_event+0x3d>
    7a78:	lea    rdi,[rip+0x8dbd]        # 1083c <__FUNCTION__.12321+0x2d4>
    7a7f:	xor    eax,eax
    7a81:	call   bf20 <barf_perror>
    7a86:	lea    rdi,[rip+0x8d92]        # 1081f <__FUNCTION__.12321+0x2b7>
    7a8d:	xor    eax,eax
    7a8f:	call   bf20 <barf_perror>
    7a94:	call   2820 <__stack_chk_fail@plt>
    7a99:	nop    DWORD PTR [rax+0x0]

0000000000007aa0 <domain_can_read>:
    7aa0:	mov    rdx,QWORD PTR [rdi+0x58]
    7aa4:	mov    eax,DWORD PTR [rdx+0x10]
    7aa7:	mov    rcx,QWORD PTR [rdx+0x30]
    7aab:	test   eax,eax
    7aad:	je     7ac0 <domain_can_read+0x20>
    7aaf:	cmp    eax,DWORD PTR [rip+0x20e81b]        # 2162d0 <priv_domid>
    7ab5:	je     7ac0 <domain_can_read+0x20>
    7ab7:	mov    edx,DWORD PTR [rdx+0x4c]
    7aba:	xor    eax,eax
    7abc:	test   edx,edx
    7abe:	js     7acf <domain_can_read+0x2f>
    7ac0:	mov    eax,DWORD PTR [rcx+0x804]
    7ac6:	cmp    DWORD PTR [rcx+0x800],eax
    7acc:	setne  al
    7acf:	repz ret 
    7ad1:	nop    DWORD PTR [rax+rax*1+0x0]
    7ad6:	nop    WORD PTR cs:[rax+rax*1+0x0]

0000000000007ae0 <domain_is_unprivileged>:
    7ae0:	xor    eax,eax
    7ae2:	test   rdi,rdi
    7ae5:	je     7b00 <domain_is_unprivileged+0x20>
    7ae7:	mov    rdx,QWORD PTR [rdi+0x58]
    7aeb:	test   rdx,rdx
    7aee:	je     7b00 <domain_is_unprivileged+0x20>
    7af0:	mov    edx,DWORD PTR [rdx+0x10]
    7af3:	test   edx,edx
    7af5:	je     7b00 <domain_is_unprivileged+0x20>
    7af7:	cmp    DWORD PTR [rip+0x20e7d3],edx        # 2162d0 <priv_domid>
    7afd:	setne  al
    7b00:	repz ret 
    7b02:	nop    DWORD PTR [rax+0x0]
    7b06:	nop    WORD PTR cs:[rax+rax*1+0x0]

0000000000007b10 <domain_can_write>:
    7b10:	mov    rax,QWORD PTR [rdi+0x58]
    7b14:	mov    rdx,QWORD PTR [rax+0x30]
    7b18:	mov    eax,DWORD PTR [rdx+0x80c]
    7b1e:	sub    eax,DWORD PTR [rdx+0x808]
    7b24:	cmp    eax,0x400
    7b29:	setne  al
    7b2c:	ret    
    7b2d:	nop    DWORD PTR [rax]

0000000000007b30 <do_set_target>:
    7b30:	push   r13
    7b32:	push   r12
    7b34:	mov    edx,0x2
    7b39:	push   rbp
    7b3a:	push   rbx
    7b3b:	mov    r12,rdi
    7b3e:	mov    rdi,rsi
    7b41:	sub    rsp,0x28
    7b45:	mov    rsi,rsp
    7b48:	mov    rax,QWORD PTR fs:0x28
    7b51:	mov    QWORD PTR [rsp+0x18],rax
    7b56:	xor    eax,eax
    7b58:	call   49c0 <get_strings>
    7b5d:	cmp    eax,0x1
    7b60:	jbe    7c70 <do_set_target+0x140>
    7b66:	test   r12,r12
    7b69:	je     7bb0 <do_set_target+0x80>
    7b6b:	mov    rax,QWORD PTR [r12+0x58]
    7b70:	test   rax,rax
    7b73:	je     7bb0 <do_set_target+0x80>
    7b75:	mov    edx,DWORD PTR [rax+0x10]
    7b78:	test   edx,edx
    7b7a:	je     7bb0 <do_set_target+0x80>
    7b7c:	cmp    edx,DWORD PTR [rip+0x20e74e]        # 2162d0 <priv_domid>
    7b82:	mov    eax,0xd
    7b87:	je     7bb0 <do_set_target+0x80>
    7b89:	nop    DWORD PTR [rax+0x0]
    7b90:	mov    rcx,QWORD PTR [rsp+0x18]
    7b95:	xor    rcx,QWORD PTR fs:0x28
    7b9e:	jne    7cc8 <do_set_target+0x198>
    7ba4:	add    rsp,0x28
    7ba8:	pop    rbx
    7ba9:	pop    rbp
    7baa:	pop    r12
    7bac:	pop    r13
    7bae:	ret    
    7baf:	nop
    7bb0:	cmp    BYTE PTR [r12+0x1c],0x0
    7bb6:	mov    eax,0xd
    7bbb:	je     7b90 <do_set_target+0x60>
    7bbd:	mov    rdi,QWORD PTR [rsp]
    7bc1:	xor    esi,esi
    7bc3:	mov    edx,0xa
    7bc8:	call   2a10 <strtol@plt>
    7bcd:	mov    rdi,QWORD PTR [rsp+0x8]
    7bd2:	mov    edx,0xa
    7bd7:	xor    esi,esi
    7bd9:	mov    rbx,rax
    7bdc:	mov    r13d,eax
    7bdf:	call   2a10 <strtol@plt>
    7be4:	mov    rbp,QWORD PTR [rip+0x20e685]        # 216270 <domains>
    7beb:	lea    rdx,[rip+0x20e67e]        # 216270 <domains>
    7bf2:	mov    r8,rax
    7bf5:	cmp    rbp,rdx
    7bf8:	je     7c1e <do_set_target+0xee>
    7bfa:	mov    esi,DWORD PTR [rbp+0x10]
    7bfd:	cmp    ebx,esi
    7bff:	mov    rbx,rbp
    7c02:	jne    7c16 <do_set_target+0xe6>
    7c04:	jmp    7c30 <do_set_target+0x100>
    7c06:	nop    WORD PTR cs:[rax+rax*1+0x0]
    7c10:	cmp    r13d,DWORD PTR [rbx+0x10]
    7c14:	je     7c30 <do_set_target+0x100>
    7c16:	mov    rbx,QWORD PTR [rbx]
    7c19:	cmp    rbx,rdx
    7c1c:	jne    7c10 <do_set_target+0xe0>
    7c1e:	mov    eax,0x2
    7c23:	jmp    7b90 <do_set_target+0x60>
    7c28:	nop    DWORD PTR [rax+rax*1+0x0]
    7c30:	mov    rdi,QWORD PTR [rbx+0x38]
    7c34:	mov    eax,0x16
    7c39:	test   rdi,rdi
    7c3c:	je     7b90 <do_set_target+0x60>
    7c42:	cmp    rbx,0xfffffffffffffc18
    7c49:	ja     7ccd <do_set_target+0x19d>
    7c4f:	cmp    r8d,esi
    7c52:	mov    ecx,r8d
    7c55:	jne    7c65 <do_set_target+0x135>
    7c57:	jmp    7c80 <do_set_target+0x150>
    7c59:	nop    DWORD PTR [rax+0x0]
    7c60:	cmp    ecx,DWORD PTR [rbp+0x10]
    7c63:	je     7c80 <do_set_target+0x150>
    7c65:	mov    rbp,QWORD PTR [rbp+0x0]
    7c69:	cmp    rbp,rdx
    7c6c:	jne    7c60 <do_set_target+0x130>
    7c6e:	jmp    7c1e <do_set_target+0xee>
    7c70:	mov    eax,0x16
    7c75:	jmp    7b90 <do_set_target+0x60>
    7c7a:	nop    WORD PTR [rax+rax*1+0x0]
    7c80:	mov    rsi,QWORD PTR [rbp+0x38]
    7c84:	mov    eax,0x16
    7c89:	test   rsi,rsi
    7c8c:	je     7b90 <do_set_target+0x60>
    7c92:	mov    eax,ebp
    7c94:	neg    eax
    7c96:	cmp    rbp,0xfffffffffffffc18
    7c9d:	ja     7b90 <do_set_target+0x60>
    7ca3:	call   a270 <talloc_reference>
    7ca8:	mov    rax,QWORD PTR [rbx+0x38]
    7cac:	mov    rdx,QWORD PTR [rbp+0x38]
    7cb0:	mov    esi,0x13
    7cb5:	mov    rdi,r12
    7cb8:	mov    QWORD PTR [rax+0x60],rdx
    7cbc:	call   4f50 <send_ack>
    7cc1:	xor    eax,eax
    7cc3:	jmp    7b90 <do_set_target+0x60>
    7cc8:	call   2820 <__stack_chk_fail@plt>
    7ccd:	mov    eax,ebx
    7ccf:	neg    eax
    7cd1:	jmp    7b90 <do_set_target+0x60>
    7cd6:	nop    WORD PTR cs:[rax+rax*1+0x0]

0000000000007ce0 <do_release>:
    7ce0:	push   rbx
    7ce1:	mov    rbx,rdi
    7ce4:	call   7650 <onearg_domain>
    7ce9:	cmp    rax,0xfffffffffffffc18
    7cef:	jbe    7cf8 <do_release+0x18>
    7cf1:	neg    eax
    7cf3:	pop    rbx
    7cf4:	ret    
    7cf5:	nop    DWORD PTR [rax]
    7cf8:	mov    rdi,QWORD PTR [rax+0x38]
    7cfc:	call   a6a0 <talloc_free>
    7d01:	mov    rdi,rbx
    7d04:	mov    esi,0x9
    7d09:	call   4f50 <send_ack>
    7d0e:	xor    eax,eax
    7d10:	pop    rbx
    7d11:	ret    
    7d12:	nop    DWORD PTR [rax+0x0]
    7d16:	nop    WORD PTR cs:[rax+rax*1+0x0]

0000000000007d20 <do_resume>:
    7d20:	push   rbx
    7d21:	mov    rbx,rdi
    7d24:	call   7650 <onearg_domain>
    7d29:	cmp    rax,0xfffffffffffffc18
    7d2f:	jbe    7d38 <do_resume+0x18>
    7d31:	neg    eax
    7d33:	pop    rbx
    7d34:	ret    
    7d35:	nop    DWORD PTR [rax]
    7d38:	mov    DWORD PTR [rax+0x40],0x0
    7d3f:	mov    rdi,rbx
    7d42:	mov    esi,0x12
    7d47:	call   4f50 <send_ack>
    7d4c:	xor    eax,eax
    7d4e:	pop    rbx
    7d4f:	ret    

0000000000007d50 <do_get_domain_path>:
    7d50:	push   rbp
    7d51:	push   rbx
    7d52:	mov    rbp,rdi
    7d55:	mov    rdi,rsi
    7d58:	sub    rsp,0x8
    7d5c:	call   5020 <onearg>
    7d61:	mov    rdi,rax
    7d64:	mov    eax,0x16
    7d69:	test   rdi,rdi
    7d6c:	je     7dba <do_get_domain_path+0x6a>
    7d6e:	xor    esi,esi
    7d70:	mov    edx,0xa
    7d75:	call   2a10 <strtol@plt>
    7d7a:	lea    rsi,[rip+0x8ad7]        # 10858 <__FUNCTION__.12321+0x2f0>
    7d81:	mov    edx,eax
    7d83:	mov    rdi,rbp
    7d86:	xor    eax,eax
    7d88:	call   b950 <talloc_asprintf>
    7d8d:	test   rax,rax
    7d90:	mov    rbx,rax
    7d93:	je     7dc8 <do_get_domain_path+0x78>
    7d95:	mov    rdi,rax
    7d98:	call   2800 <strlen@plt>
    7d9d:	lea    ecx,[rax+0x1]
    7da0:	mov    rdx,rbx
    7da3:	mov    esi,0xa
    7da8:	mov    rdi,rbp
    7dab:	call   4a40 <send_reply>
    7db0:	mov    rdi,rbx
    7db3:	call   a6a0 <talloc_free>
    7db8:	xor    eax,eax
    7dba:	add    rsp,0x8
    7dbe:	pop    rbx
    7dbf:	pop    rbp
    7dc0:	ret    
    7dc1:	nop    DWORD PTR [rax+0x0]
    7dc8:	call   2750 <__errno_location@plt>
    7dcd:	mov    eax,DWORD PTR [rax]
    7dcf:	add    rsp,0x8
    7dd3:	pop    rbx
    7dd4:	pop    rbp
    7dd5:	ret    
    7dd6:	nop    WORD PTR cs:[rax+rax*1+0x0]

0000000000007de0 <do_is_domain_introduced>:
    7de0:	push   rbx
    7de1:	mov    rbx,rdi
    7de4:	mov    rdi,rsi
    7de7:	call   5020 <onearg>
    7dec:	mov    rdi,rax
    7def:	mov    eax,0x16
    7df4:	test   rdi,rdi
    7df7:	je     7e58 <do_is_domain_introduced+0x78>
    7df9:	mov    edx,0xa
    7dfe:	xor    esi,esi
    7e00:	call   2a10 <strtol@plt>
    7e05:	cmp    eax,0x7ff0
    7e0a:	mov    edi,eax
    7e0c:	lea    rdx,[rip+0x7f17]        # fd2a <_IO_stdin_used+0x4ca>
    7e13:	je     7e44 <do_is_domain_introduced+0x64>
    7e15:	mov    rcx,QWORD PTR [rip+0x20e454]        # 216270 <domains>
    7e1c:	lea    rsi,[rip+0x20e44d]        # 216270 <domains>
    7e23:	cmp    rcx,rsi
    7e26:	je     7e3d <do_is_domain_introduced+0x5d>
    7e28:	cmp    eax,DWORD PTR [rcx+0x10]
    7e2b:	jne    7e35 <do_is_domain_introduced+0x55>
    7e2d:	jmp    7e44 <do_is_domain_introduced+0x64>
    7e2f:	nop
    7e30:	cmp    edi,DWORD PTR [rcx+0x10]
    7e33:	je     7e60 <do_is_domain_introduced+0x80>
    7e35:	mov    rcx,QWORD PTR [rcx]
    7e38:	cmp    rcx,rsi
    7e3b:	jne    7e30 <do_is_domain_introduced+0x50>
    7e3d:	lea    rdx,[rip+0x8a25]        # 10869 <__FUNCTION__.12321+0x301>
    7e44:	mov    ecx,0x2
    7e49:	mov    esi,0x11
    7e4e:	mov    rdi,rbx
    7e51:	call   4a40 <send_reply>
    7e56:	xor    eax,eax
    7e58:	pop    rbx
    7e59:	ret    
    7e5a:	nop    WORD PTR [rax+rax*1+0x0]
    7e60:	lea    rdx,[rip+0x7ec3]        # fd2a <_IO_stdin_used+0x4ca>
    7e67:	jmp    7e44 <do_is_domain_introduced+0x64>
    7e69:	nop    DWORD PTR [rax+0x0]

0000000000007e70 <do_reset_watches>:
    7e70:	push   rbx
    7e71:	mov    rbx,rdi
    7e74:	call   7500 <conn_delete_all_watches>
    7e79:	mov    rdi,rbx
    7e7c:	call   9630 <conn_delete_all_transactions>
    7e81:	mov    rdi,rbx
    7e84:	mov    esi,0x15
    7e89:	call   4f50 <send_ack>
    7e8e:	xor    eax,eax
    7e90:	pop    rbx
    7e91:	ret    
    7e92:	nop    DWORD PTR [rax+0x0]
    7e96:	nop    WORD PTR cs:[rax+rax*1+0x0]

0000000000007ea0 <get_implicit_path>:
    7ea0:	mov    rdx,QWORD PTR [rdi+0x58]
    7ea4:	lea    rax,[rip+0x89c0]        # 1086b <__FUNCTION__.12321+0x303>
    7eab:	test   rdx,rdx
    7eae:	je     7eb4 <get_implicit_path+0x14>
    7eb0:	mov    rax,QWORD PTR [rdx+0x28]
    7eb4:	repz ret 
    7eb6:	nop    WORD PTR cs:[rax+rax*1+0x0]

0000000000007ec0 <restore_existing_connections>:
    7ec0:	repz ret 
    7ec2:	nop    DWORD PTR [rax+0x0]
    7ec6:	nop    WORD PTR cs:[rax+rax*1+0x0]

0000000000007ed0 <domain_entry_inc>:
    7ed0:	test   rdi,rdi
    7ed3:	je     7f19 <domain_entry_inc+0x49>
    7ed5:	mov    rax,QWORD PTR [rsi+0x20]
    7ed9:	test   rax,rax
    7edc:	je     7f20 <domain_entry_inc+0x50>
    7ede:	mov    esi,DWORD PTR [rax]
    7ee0:	cmp    esi,DWORD PTR [rdi+0x18]
    7ee3:	je     7f20 <domain_entry_inc+0x50>
    7ee5:	mov    rdi,QWORD PTR [rdi+0x38]
    7ee9:	test   rdi,rdi
    7eec:	jne    7f35 <domain_entry_inc+0x65>
    7eee:	mov    rax,QWORD PTR [rip+0x20e37b]        # 216270 <domains>
    7ef5:	lea    rdx,[rip+0x20e374]        # 216270 <domains>
    7efc:	cmp    rax,rdx
    7eff:	jne    7f10 <domain_entry_inc+0x40>
    7f01:	jmp    7f19 <domain_entry_inc+0x49>
    7f03:	nop    DWORD PTR [rax+rax*1+0x0]
    7f08:	mov    rax,QWORD PTR [rax]
    7f0b:	cmp    rax,rdx
    7f0e:	je     7f40 <domain_entry_inc+0x70>
    7f10:	cmp    esi,DWORD PTR [rax+0x10]
    7f13:	jne    7f08 <domain_entry_inc+0x38>
    7f15:	add    DWORD PTR [rax+0x44],0x1
    7f19:	repz ret 
    7f1b:	nop    DWORD PTR [rax+rax*1+0x0]
    7f20:	mov    rax,QWORD PTR [rdi+0x58]
    7f24:	test   rax,rax
    7f27:	je     7f19 <domain_entry_inc+0x49>
    7f29:	mov    rdi,QWORD PTR [rdi+0x38]
    7f2d:	test   rdi,rdi
    7f30:	je     7f15 <domain_entry_inc+0x45>
    7f32:	mov    esi,DWORD PTR [rax+0x10]
    7f35:	jmp    9510 <transaction_entry_inc>
    7f3a:	nop    WORD PTR [rax+rax*1+0x0]
    7f40:	repz ret 
    7f42:	nop    DWORD PTR [rax+0x0]
    7f46:	nop    WORD PTR cs:[rax+rax*1+0x0]

0000000000007f50 <domain_entry_dec>:
    7f50:	test   rdi,rdi
    7f53:	je     7fb8 <domain_entry_dec+0x68>
    7f55:	mov    rax,QWORD PTR [rsi+0x20]
    7f59:	test   rax,rax
    7f5c:	je     7fa8 <domain_entry_dec+0x58>
    7f5e:	mov    esi,DWORD PTR [rax]
    7f60:	cmp    esi,DWORD PTR [rdi+0x18]
    7f63:	je     7fa8 <domain_entry_dec+0x58>
    7f65:	mov    rdi,QWORD PTR [rdi+0x38]
    7f69:	test   rdi,rdi
    7f6c:	jne    7fcc <domain_entry_dec+0x7c>
    7f6e:	mov    rax,QWORD PTR [rip+0x20e2fb]        # 216270 <domains>
    7f75:	lea    rdx,[rip+0x20e2f4]        # 216270 <domains>
    7f7c:	cmp    rax,rdx
    7f7f:	jne    7f90 <domain_entry_dec+0x40>
    7f81:	jmp    7fb8 <domain_entry_dec+0x68>
    7f83:	nop    DWORD PTR [rax+rax*1+0x0]
    7f88:	mov    rax,QWORD PTR [rax]
    7f8b:	cmp    rax,rdx
    7f8e:	je     7fd8 <domain_entry_dec+0x88>
    7f90:	cmp    esi,DWORD PTR [rax+0x10]
    7f93:	jne    7f88 <domain_entry_dec+0x38>
    7f95:	mov    edx,DWORD PTR [rax+0x44]
    7f98:	test   edx,edx
    7f9a:	je     7fb8 <domain_entry_dec+0x68>
    7f9c:	sub    edx,0x1
    7f9f:	mov    DWORD PTR [rax+0x44],edx
    7fa2:	ret    
    7fa3:	nop    DWORD PTR [rax+rax*1+0x0]
    7fa8:	mov    rax,QWORD PTR [rdi+0x58]
    7fac:	test   rax,rax
    7faf:	je     7fb8 <domain_entry_dec+0x68>
    7fb1:	mov    edx,DWORD PTR [rax+0x44]
    7fb4:	test   edx,edx
    7fb6:	jne    7fc0 <domain_entry_dec+0x70>
    7fb8:	repz ret 
    7fba:	nop    WORD PTR [rax+rax*1+0x0]
    7fc0:	mov    rdi,QWORD PTR [rdi+0x38]
    7fc4:	test   rdi,rdi
    7fc7:	je     7f9c <domain_entry_dec+0x4c>
    7fc9:	mov    esi,DWORD PTR [rax+0x10]
    7fcc:	jmp    95a0 <transaction_entry_dec>
    7fd1:	nop    DWORD PTR [rax+0x0]
    7fd8:	repz ret 
    7fda:	nop    WORD PTR [rax+rax*1+0x0]

0000000000007fe0 <domain_entry_fix>:
    7fe0:	mov    rcx,QWORD PTR [rip+0x20e289]        # 216270 <domains>
    7fe7:	lea    rax,[rip+0x20e282]        # 216270 <domains>
    7fee:	cmp    rcx,rax
    7ff1:	jne    8000 <domain_entry_fix+0x20>
    7ff3:	jmp    8028 <domain_entry_fix+0x48>
    7ff5:	nop    DWORD PTR [rax]
    7ff8:	mov    rcx,QWORD PTR [rcx]
    7ffb:	cmp    rcx,rax
    7ffe:	je     8028 <domain_entry_fix+0x48>
    8000:	cmp    edi,DWORD PTR [rcx+0x10]
    8003:	jne    7ff8 <domain_entry_fix+0x18>
    8005:	add    esi,DWORD PTR [rcx+0x44]
    8008:	mov    eax,0x0
    800d:	cmovns eax,esi
    8010:	test   dl,dl
    8012:	je     8017 <domain_entry_fix+0x37>
    8014:	mov    DWORD PTR [rcx+0x44],eax
    8017:	test   edi,edi
    8019:	je     8028 <domain_entry_fix+0x48>
    801b:	cmp    edi,DWORD PTR [rip+0x20e2af]        # 2162d0 <priv_domid>
    8021:	je     8028 <domain_entry_fix+0x48>
    8023:	ret    
    8024:	nop    DWORD PTR [rax+0x0]
    8028:	xor    eax,eax
    802a:	ret    
    802b:	nop    DWORD PTR [rax+rax*1+0x0]

0000000000008030 <domain_entry>:
    8030:	xor    eax,eax
    8032:	test   rdi,rdi
    8035:	je     8052 <domain_entry+0x22>
    8037:	mov    rdx,QWORD PTR [rdi+0x58]
    803b:	test   rdx,rdx
    803e:	je     8052 <domain_entry+0x22>
    8040:	mov    ecx,DWORD PTR [rdx+0x10]
    8043:	test   ecx,ecx
    8045:	je     8052 <domain_entry+0x22>
    8047:	cmp    ecx,DWORD PTR [rip+0x20e283]        # 2162d0 <priv_domid>
    804d:	je     8052 <domain_entry+0x22>
    804f:	mov    eax,DWORD PTR [rdx+0x44]
    8052:	repz ret 
    8054:	xchg   ax,ax
    8056:	nop    WORD PTR cs:[rax+rax*1+0x0]

0000000000008060 <domain_watch_inc>:
    8060:	test   rdi,rdi
    8063:	je     8072 <domain_watch_inc+0x12>
    8065:	mov    rax,QWORD PTR [rdi+0x58]
    8069:	test   rax,rax
    806c:	je     8072 <domain_watch_inc+0x12>
    806e:	add    DWORD PTR [rax+0x48],0x1
    8072:	repz ret 
    8074:	xchg   ax,ax
    8076:	nop    WORD PTR cs:[rax+rax*1+0x0]

0000000000008080 <domain_watch_dec>:
    8080:	test   rdi,rdi
    8083:	je     809b <domain_watch_dec+0x1b>
    8085:	mov    rax,QWORD PTR [rdi+0x58]
    8089:	test   rax,rax
    808c:	je     809b <domain_watch_dec+0x1b>
    808e:	mov    edx,DWORD PTR [rax+0x48]
    8091:	test   edx,edx
    8093:	je     809b <domain_watch_dec+0x1b>
    8095:	sub    edx,0x1
    8098:	mov    DWORD PTR [rax+0x48],edx
    809b:	repz ret 
    809d:	nop    DWORD PTR [rax]

00000000000080a0 <domain_watch>:
    80a0:	xor    eax,eax
    80a2:	test   rdi,rdi
    80a5:	je     80c2 <domain_watch+0x22>
    80a7:	mov    rdx,QWORD PTR [rdi+0x58]
    80ab:	test   rdx,rdx
    80ae:	je     80c2 <domain_watch+0x22>
    80b0:	mov    ecx,DWORD PTR [rdx+0x10]
    80b3:	test   ecx,ecx
    80b5:	je     80c2 <domain_watch+0x22>
    80b7:	cmp    ecx,DWORD PTR [rip+0x20e213]        # 2162d0 <priv_domid>
    80bd:	je     80c2 <domain_watch+0x22>
    80bf:	mov    eax,DWORD PTR [rdx+0x48]
    80c2:	repz ret 
    80c4:	xchg   ax,ax
    80c6:	nop    WORD PTR cs:[rax+rax*1+0x0]

00000000000080d0 <wrl_gettime_now>:
    80d0:	push   rbx
    80d1:	mov    rbx,rdi
    80d4:	mov    edi,0x1
    80d9:	sub    rsp,0x20
    80dd:	mov    rsi,rsp
    80e0:	mov    rax,QWORD PTR fs:0x28
    80e9:	mov    QWORD PTR [rsp+0x18],rax
    80ee:	xor    eax,eax
    80f0:	call   2aa0 <clock_gettime@plt>
    80f5:	test   eax,eax
    80f7:	jne    8139 <wrl_gettime_now+0x69>
    80f9:	mov    rax,QWORD PTR [rsp]
    80fd:	mov    rcx,QWORD PTR [rsp+0x8]
    8102:	movabs rdx,0x431bde82d7b634db
    810c:	mov    QWORD PTR [rbx],rax
    810f:	mov    rax,rcx
    8112:	sar    rcx,0x3f
    8116:	imul   rdx
    8119:	sar    rdx,0x12
    811d:	sub    rdx,rcx
    8120:	mov    rax,QWORD PTR [rsp+0x18]
    8125:	xor    rax,QWORD PTR fs:0x28
    812e:	mov    DWORD PTR [rbx+0x8],edx
    8131:	jne    8147 <wrl_gettime_now+0x77>
    8133:	add    rsp,0x20
    8137:	pop    rbx
    8138:	ret    
    8139:	lea    rdi,[rip+0x8468]        # 105a8 <__FUNCTION__.12321+0x40>
    8140:	xor    eax,eax
    8142:	call   bf20 <barf_perror>
    8147:	call   2820 <__stack_chk_fail@plt>
    814c:	nop    DWORD PTR [rax+0x0]

0000000000008150 <wrl_domain_new>:
    8150:	push   rbx
    8151:	mov    DWORD PTR [rdi+0x4c],0x0
    8158:	mov    rbx,rdi
    815b:	add    rdi,0x50
    815f:	call   80d0 <wrl_gettime_now>
    8164:	mov    ecx,DWORD PTR [rip+0x20e1be]        # 216328 <wrl_reserve>
    816a:	mov    edx,DWORD PTR [rbx+0x4c]
    816d:	mov    eax,0x2710
    8172:	add    QWORD PTR [rip+0x20e1b6],0x1        # 216330 <wrl_ndomains>
    817a:	lea    esi,[rcx+0xc350]
    8180:	sub    eax,edx
    8182:	cmp    eax,esi
    8184:	cmovg  eax,esi
    8187:	test   eax,eax
    8189:	jle    8198 <wrl_domain_new+0x48>
    818b:	sub    ecx,eax
    818d:	add    eax,edx
    818f:	mov    DWORD PTR [rip+0x20e193],ecx        # 216328 <wrl_reserve>
    8195:	mov    DWORD PTR [rbx+0x4c],eax
    8198:	pop    rbx
    8199:	ret    
    819a:	nop    WORD PTR [rax+rax*1+0x0]

00000000000081a0 <new_domain>:
    81a0:	push   r12
    81a2:	mov    r12d,edx
    81a5:	push   rbp
    81a6:	lea    rdx,[rip+0x86ce]        # 1087b <__FUNCTION__.12321+0x313>
    81ad:	push   rbx
    81ae:	mov    ebp,esi
    81b0:	mov    esi,0x68
    81b5:	call   a240 <talloc_named_const>
    81ba:	test   rax,rax
    81bd:	je     8288 <new_domain+0xe8>
    81c3:	lea    rsi,[rip+0x868e]        # 10858 <__FUNCTION__.12321+0x2f0>
    81ca:	mov    rbx,rax
    81cd:	mov    DWORD PTR [rax+0x14],0x0
    81d4:	mov    DWORD PTR [rax+0x40],0x0
    81db:	mov    DWORD PTR [rax+0x10],ebp
    81de:	mov    rdi,rax
    81e1:	mov    edx,ebp
    81e3:	xor    eax,eax
    81e5:	call   b950 <talloc_asprintf>
    81ea:	test   rax,rax
    81ed:	mov    QWORD PTR [rbx+0x28],rax
    81f1:	je     8288 <new_domain+0xe8>
    81f7:	mov    rdi,rbx
    81fa:	call   8150 <wrl_domain_new>
    81ff:	mov    rax,QWORD PTR [rip+0x20e06a]        # 216270 <domains>
    8206:	lea    rsi,[rip+0xfffffffffffff383]        # 7590 <destroy_domain>
    820d:	mov    rdi,rbx
    8210:	mov    QWORD PTR [rax+0x8],rbx
    8214:	mov    QWORD PTR [rbx],rax
    8217:	lea    rax,[rip+0x20e052]        # 216270 <domains>
    821e:	mov    QWORD PTR [rip+0x20e04b],rbx        # 216270 <domains>
    8225:	mov    QWORD PTR [rbx+0x8],rax
    8229:	call   a1f0 <talloc_set_destructor>
    822e:	mov    rdi,QWORD PTR [rip+0x20e0e3]        # 216318 <xce_handle>
    8235:	mov    edx,r12d
    8238:	mov    esi,ebp
    823a:	call   2830 <xenevtchn_bind_interdomain@plt>
    823f:	cmp    eax,0xffffffff
    8242:	je     8288 <new_domain+0xe8>
    8244:	lea    rsi,[rip+0xfffffffffffff5e5]        # 7830 <readchn>
    824b:	lea    rdi,[rip+0xfffffffffffff4de]        # 7730 <writechn>
    8252:	mov    DWORD PTR [rbx+0x14],eax
    8255:	call   50d0 <new_connection>
    825a:	test   rax,rax
    825d:	mov    QWORD PTR [rbx+0x38],rax
    8261:	je     8288 <new_domain+0xe8>
    8263:	mov    QWORD PTR [rax+0x58],rbx
    8267:	mov    rax,QWORD PTR [rbx+0x38]
    826b:	mov    DWORD PTR [rax+0x18],ebp
    826e:	mov    DWORD PTR [rbx+0x18],r12d
    8272:	mov    rax,rbx
    8275:	mov    QWORD PTR [rbx+0x44],0x0
    827d:	pop    rbx
    827e:	pop    rbp
    827f:	pop    r12
    8281:	ret    
    8282:	nop    WORD PTR [rax+rax*1+0x0]
    8288:	xor    ebx,ebx
    828a:	mov    rax,rbx
    828d:	pop    rbx
    828e:	pop    rbp
    828f:	pop    r12
    8291:	ret    
    8292:	nop    DWORD PTR [rax+0x0]
    8296:	nop    WORD PTR cs:[rax+rax*1+0x0]

00000000000082a0 <do_introduce>:
    82a0:	push   r15
    82a2:	push   r14
    82a4:	mov    edx,0x3
    82a9:	push   r13
    82ab:	push   r12
    82ad:	mov    r12,rsi
    82b0:	push   rbp
    82b1:	push   rbx
    82b2:	mov    rbp,rdi
    82b5:	mov    rdi,r12
    82b8:	sub    rsp,0x38
    82bc:	lea    rsi,[rsp+0x10]
    82c1:	mov    rax,QWORD PTR fs:0x28
    82ca:	mov    QWORD PTR [rsp+0x28],rax
    82cf:	xor    eax,eax
    82d1:	call   49c0 <get_strings>
    82d6:	cmp    eax,0x2
    82d9:	jbe    8408 <do_introduce+0x168>
    82df:	test   rbp,rbp
    82e2:	je     82f8 <do_introduce+0x58>
    82e4:	mov    rax,QWORD PTR [rbp+0x58]
    82e8:	test   rax,rax
    82eb:	je     82f8 <do_introduce+0x58>
    82ed:	mov    edx,DWORD PTR [rax+0x10]
    82f0:	test   edx,edx
    82f2:	jne    8430 <do_introduce+0x190>
    82f8:	cmp    BYTE PTR [rbp+0x1c],0x0
    82fc:	mov    eax,0xd
    8301:	je     840d <do_introduce+0x16d>
    8307:	mov    rdi,QWORD PTR [rsp+0x10]
    830c:	xor    esi,esi
    830e:	mov    edx,0xa
    8313:	call   2a10 <strtol@plt>
    8318:	mov    rdi,QWORD PTR [rsp+0x18]
    831d:	xor    esi,esi
    831f:	mov    edx,0xa
    8324:	mov    r14,rax
    8327:	call   2a10 <strtol@plt>
    832c:	mov    rdi,QWORD PTR [rsp+0x20]
    8331:	xor    esi,esi
    8333:	mov    edx,0xa
    8338:	mov    r13,rax
    833b:	call   2a10 <strtol@plt>
    8340:	test   eax,eax
    8342:	mov    r15,rax
    8345:	je     8408 <do_introduce+0x168>
    834b:	mov    rbx,QWORD PTR [rip+0x20df1e]        # 216270 <domains>
    8352:	lea    rax,[rip+0x20df17]        # 216270 <domains>
    8359:	mov    edx,r14d
    835c:	cmp    rbx,rax
    835f:	je     8381 <do_introduce+0xe1>
    8361:	cmp    r14d,DWORD PTR [rbx+0x10]
    8365:	jne    8379 <do_introduce+0xd9>
    8367:	jmp    8448 <do_introduce+0x1a8>
    836c:	nop    DWORD PTR [rax+0x0]
    8370:	cmp    edx,DWORD PTR [rbx+0x10]
    8373:	je     8448 <do_introduce+0x1a8>
    8379:	mov    rbx,QWORD PTR [rbx]
    837c:	cmp    rbx,rax
    837f:	jne    8370 <do_introduce+0xd0>
    8381:	mov    rax,QWORD PTR [rip+0x211008]        # 219390 <xgt_handle>
    8388:	movzx  esi,r14w
    838c:	mov    rdi,QWORD PTR [rax]
    838f:	test   rdi,rdi
    8392:	je     8568 <do_introduce+0x2c8>
    8398:	mov    ecx,0x3
    839d:	mov    edx,0x1
    83a2:	call   2c70 <xengnttab_map_grant_ref@plt>
    83a7:	mov    rcx,rax
    83aa:	test   rcx,rcx
    83ad:	je     8558 <do_introduce+0x2b8>
    83b3:	mov    edx,r15d
    83b6:	mov    esi,r14d
    83b9:	mov    rdi,r12
    83bc:	mov    QWORD PTR [rsp],rcx
    83c0:	call   81a0 <new_domain>
    83c5:	test   rax,rax
    83c8:	mov    rbx,rax
    83cb:	mov    rcx,QWORD PTR [rsp]
    83cf:	je     858c <do_introduce+0x2ec>
    83d5:	mov    rdi,QWORD PTR [rax+0x38]
    83d9:	mov    QWORD PTR [rax+0x30],rcx
    83dd:	mov    rsi,rax
    83e0:	mov    QWORD PTR [rax+0x20],r13
    83e4:	call   a3f0 <talloc_steal>
    83e9:	lea    rdx,[rip+0x8499]        # 10889 <__FUNCTION__.12321+0x321>
    83f0:	xor    ecx,ecx
    83f2:	mov    rsi,r12
    83f5:	xor    edi,edi
    83f7:	call   70b0 <fire_watches>
    83fc:	jmp    8483 <do_introduce+0x1e3>
    8401:	nop    DWORD PTR [rax+0x0]
    8408:	mov    eax,0x16
    840d:	mov    rcx,QWORD PTR [rsp+0x28]
    8412:	xor    rcx,QWORD PTR fs:0x28
    841b:	jne    85b0 <do_introduce+0x310>
    8421:	add    rsp,0x38
    8425:	pop    rbx
    8426:	pop    rbp
    8427:	pop    r12
    8429:	pop    r13
    842b:	pop    r14
    842d:	pop    r15
    842f:	ret    
    8430:	cmp    edx,DWORD PTR [rip+0x20de9a]        # 2162d0 <priv_domid>
    8436:	mov    eax,0xd
    843b:	jne    840d <do_introduce+0x16d>
    843d:	jmp    82f8 <do_introduce+0x58>
    8442:	nop    WORD PTR [rax+rax*1+0x0]
    8448:	cmp    QWORD PTR [rbx+0x20],r13
    844c:	jne    8408 <do_introduce+0x168>
    844e:	cmp    QWORD PTR [rbx+0x38],rbp
    8452:	je     8408 <do_introduce+0x168>
    8454:	mov    esi,DWORD PTR [rbx+0x14]
    8457:	mov    rdi,QWORD PTR [rip+0x20deba]        # 216318 <xce_handle>
    845e:	test   esi,esi
    8460:	jne    8540 <do_introduce+0x2a0>
    8466:	mov    edx,r15d
    8469:	mov    esi,r14d
    846c:	call   2830 <xenevtchn_bind_interdomain@plt>
    8471:	mov    edx,0x0
    8476:	cmp    eax,0xffffffff
    8479:	mov    DWORD PTR [rbx+0x18],r15d
    847d:	cmove  eax,edx
    8480:	mov    DWORD PTR [rbx+0x14],eax
    8483:	mov    r12,QWORD PTR [rbx+0x38]
    8487:	mov    rdi,r12
    848a:	lea    r13,[r12+0x28]
    848f:	call   7500 <conn_delete_all_watches>
    8494:	mov    rdi,r12
    8497:	call   9630 <conn_delete_all_transactions>
    849c:	mov    rdi,QWORD PTR [r12+0x28]
    84a1:	cmp    r13,rdi
    84a4:	jne    84dc <do_introduce+0x23c>
    84a6:	jmp    84e1 <do_introduce+0x241>
    84a8:	nop    DWORD PTR [rax+rax*1+0x0]
    84b0:	mov    rdx,QWORD PTR [rdi]
    84b3:	mov    rax,QWORD PTR [rdi+0x8]
    84b7:	mov    QWORD PTR [rdx+0x8],rax
    84bb:	mov    QWORD PTR [rax],rdx
    84be:	mov    QWORD PTR [rdi],0x100100
    84c5:	mov    QWORD PTR [rdi+0x8],0x200200
    84cd:	call   a6a0 <talloc_free>
    84d2:	mov    rdi,QWORD PTR [r12+0x28]
    84d7:	cmp    rdi,r13
    84da:	je     84e1 <do_introduce+0x241>
    84dc:	test   rdi,rdi
    84df:	jne    84b0 <do_introduce+0x210>
    84e1:	mov    rdi,QWORD PTR [r12+0x20]
    84e6:	call   a6a0 <talloc_free>
    84eb:	mov    rax,QWORD PTR [rbx+0x30]
    84ef:	mov    esi,0x8
    84f4:	mov    rdi,rbp
    84f7:	mov    DWORD PTR [rax+0x804],0x0
    8501:	mov    rax,QWORD PTR [rbx+0x30]
    8505:	mov    DWORD PTR [rax+0x800],0x0
    850f:	mov    rax,QWORD PTR [rbx+0x30]
    8513:	mov    DWORD PTR [rax+0x80c],0x0
    851d:	mov    rax,QWORD PTR [rbx+0x30]
    8521:	mov    DWORD PTR [rax+0x808],0x0
    852b:	call   4f50 <send_ack>
    8530:	xor    eax,eax
    8532:	jmp    840d <do_introduce+0x16d>
    8537:	nop    WORD PTR [rax+rax*1+0x0]
    8540:	call   29b0 <xenevtchn_unbind@plt>
    8545:	mov    rdi,QWORD PTR [rip+0x20ddcc]        # 216318 <xce_handle>
    854c:	jmp    8466 <do_introduce+0x1c6>
    8551:	nop    DWORD PTR [rax+0x0]
    8558:	call   2750 <__errno_location@plt>
    855d:	mov    eax,DWORD PTR [rax]
    855f:	jmp    840d <do_introduce+0x16d>
    8564:	nop    DWORD PTR [rax+0x0]
    8568:	mov    rax,QWORD PTR [rip+0x20ddd1]        # 216340 <xc_handle>
    856f:	mov    ecx,0x3
    8574:	mov    r8,r13
    8577:	mov    edx,0x1000
    857c:	mov    rdi,QWORD PTR [rax]
    857f:	call   2c40 <xc_map_foreign_range@plt>
    8584:	mov    rcx,rax
    8587:	jmp    83aa <do_introduce+0x10a>
    858c:	mov    QWORD PTR [rsp+0x8],rcx
    8591:	call   2750 <__errno_location@plt>
    8596:	mov    rcx,QWORD PTR [rsp+0x8]
    859b:	mov    eax,DWORD PTR [rax]
    859d:	mov    rdi,rcx
    85a0:	mov    DWORD PTR [rsp],eax
    85a3:	call   7560 <unmap_interface>
    85a8:	mov    eax,DWORD PTR [rsp]
    85ab:	jmp    840d <do_introduce+0x16d>
    85b0:	call   2820 <__stack_chk_fail@plt>
    85b5:	nop
    85b6:	nop    WORD PTR cs:[rax+rax*1+0x0]

00000000000085c0 <domain_init>:
    85c0:	push   rbx
    85c1:	call   bb70 <talloc_autofree_context>
    85c6:	lea    rdx,[rip+0x82cd]        # 1089a <__FUNCTION__.12321+0x332>
    85cd:	mov    esi,0x8
    85d2:	mov    rdi,rax
    85d5:	call   a240 <talloc_named_const>
    85da:	test   rax,rax
    85dd:	mov    QWORD PTR [rip+0x20dd5c],rax        # 216340 <xc_handle>
    85e4:	je     8746 <domain_init+0x186>
    85ea:	xor    edi,edi
    85ec:	xor    edx,edx
    85ee:	xor    esi,esi
    85f0:	mov    rbx,rax
    85f3:	call   27d0 <xc_interface_open@plt>
    85f8:	mov    rdi,QWORD PTR [rip+0x20dd41]        # 216340 <xc_handle>
    85ff:	mov    QWORD PTR [rbx],rax
    8602:	cmp    QWORD PTR [rdi],0x0
    8606:	je     8738 <domain_init+0x178>
    860c:	lea    rsi,[rip+0xfffffffffffff0fd]        # 7710 <close_xc_handle>
    8613:	call   a1f0 <talloc_set_destructor>
    8618:	call   bb70 <talloc_autofree_context>
    861d:	lea    rdx,[rip+0x8284]        # 108a8 <__FUNCTION__.12321+0x340>
    8624:	mov    esi,0x8
    8629:	mov    rdi,rax
    862c:	call   a240 <talloc_named_const>
    8631:	test   rax,rax
    8634:	mov    rbx,rax
    8637:	mov    QWORD PTR [rip+0x210d52],rax        # 219390 <xgt_handle>
    863e:	je     872a <domain_init+0x16a>
    8644:	xor    edi,edi
    8646:	xor    esi,esi
    8648:	call   2900 <xengnttab_open@plt>
    864d:	mov    QWORD PTR [rbx],rax
    8650:	mov    rdi,QWORD PTR [rip+0x210d39]        # 219390 <xgt_handle>
    8657:	cmp    QWORD PTR [rdi],0x0
    865b:	jne    86f8 <domain_init+0x138>
    8661:	lea    rdi,[rip+0x7fe8]        # 10650 <__FUNCTION__.12321+0xe8>
    8668:	xor    eax,eax
    866a:	call   QWORD PTR [rip+0x20dc10]        # 216280 <xprintf>
    8670:	xor    esi,esi
    8672:	xor    edi,edi
    8674:	call   26e0 <xenevtchn_open@plt>
    8679:	test   rax,rax
    867c:	mov    QWORD PTR [rip+0x20dc95],rax        # 216318 <xce_handle>
    8683:	je     871e <domain_init+0x15e>
    8689:	call   f680 <xenbus_evtchn>
    868e:	cmp    eax,0xffffffff
    8691:	je     8710 <domain_init+0x150>
    8693:	mov    esi,DWORD PTR [rip+0x20dc3f]        # 2162d8 <dom0_domid>
    8699:	xor    edi,edi
    869b:	mov    edx,eax
    869d:	call   81a0 <new_domain>
    86a2:	test   rax,rax
    86a5:	mov    rbx,rax
    86a8:	je     8710 <domain_init+0x150>
    86aa:	call   f730 <xenbus_map>
    86af:	test   rax,rax
    86b2:	mov    QWORD PTR [rbx+0x30],rax
    86b6:	je     8710 <domain_init+0x150>
    86b8:	mov    rdi,QWORD PTR [rbx+0x38]
    86bc:	mov    rsi,rbx
    86bf:	call   a3f0 <talloc_steal>
    86c4:	mov    esi,DWORD PTR [rbx+0x14]
    86c7:	mov    rdi,QWORD PTR [rip+0x20dc4a]        # 216318 <xce_handle>
    86ce:	call   2730 <xenevtchn_notify@plt>
    86d3:	mov    rdi,QWORD PTR [rip+0x20dc3e]        # 216318 <xce_handle>
    86da:	mov    esi,0x3
    86df:	call   29d0 <xenevtchn_bind_virq@plt>
    86e4:	cmp    eax,0xffffffff
    86e7:	je     8754 <domain_init+0x194>
    86e9:	mov    DWORD PTR [rip+0x20dc49],eax        # 216338 <virq_port>
    86ef:	pop    rbx
    86f0:	ret    
    86f1:	nop    DWORD PTR [rax+0x0]
    86f8:	lea    rsi,[rip+0xffffffffffffeff1]        # 76f0 <close_xgt_handle>
    86ff:	call   a1f0 <talloc_set_destructor>
    8704:	jmp    8670 <domain_init+0xb0>
    8709:	nop    DWORD PTR [rax+0x0]
    8710:	lea    rdi,[rip+0x7f69]        # 10680 <__FUNCTION__.12321+0x118>
    8717:	xor    eax,eax
    8719:	call   bf20 <barf_perror>
    871e:	lea    rdi,[rip+0x8195]        # 108ba <__FUNCTION__.12321+0x352>
    8725:	call   bf20 <barf_perror>
    872a:	lea    rdi,[rip+0x7ef7]        # 10628 <__FUNCTION__.12321+0xc0>
    8731:	xor    eax,eax
    8733:	call   bf20 <barf_perror>
    8738:	lea    rdi,[rip+0x7ec1]        # 10600 <__FUNCTION__.12321+0x98>
    873f:	xor    eax,eax
    8741:	call   bf20 <barf_perror>
    8746:	lea    rdi,[rip+0x7e8b]        # 105d8 <__FUNCTION__.12321+0x70>
    874d:	xor    eax,eax
    874f:	call   bf20 <barf_perror>
    8754:	lea    rdi,[rip+0x7f45]        # 106a0 <__FUNCTION__.12321+0x138>
    875b:	xor    eax,eax
    875d:	call   bf20 <barf_perror>
    8762:	nop    DWORD PTR [rax+0x0]
    8766:	nop    WORD PTR cs:[rax+rax*1+0x0]

0000000000008770 <wrl_domain_destroy>:
    8770:	mov    ecx,DWORD PTR [rip+0x20dbb2]        # 216328 <wrl_reserve>
    8776:	mov    edx,DWORD PTR [rdi+0x4c]
    8779:	mov    eax,0x2710
    877e:	sub    QWORD PTR [rip+0x20dbaa],0x1        # 216330 <wrl_ndomains>
    8786:	sub    eax,ecx
    8788:	cmp    eax,edx
    878a:	cmovg  eax,edx
    878d:	test   eax,eax
    878f:	jle    879e <wrl_domain_destroy+0x2e>
    8791:	sub    edx,eax
    8793:	add    eax,ecx
    8795:	mov    DWORD PTR [rdi+0x4c],edx
    8798:	mov    DWORD PTR [rip+0x20db8a],eax        # 216328 <wrl_reserve>
    879e:	repz ret 

00000000000087a0 <wrl_credit_update>:
    87a0:	mov    r11,rdx
    87a3:	mov    rdx,rsi
    87a6:	sub    rdx,QWORD PTR [rdi+0x50]
    87aa:	mov    r10d,r11d
    87ad:	mov    eax,0xf4240
    87b2:	sub    r10d,DWORD PTR [rdi+0x58]
    87b6:	mov    r8d,DWORD PTR [rip+0x20db6b]        # 216328 <wrl_reserve>
    87bd:	cmp    rdx,0xf4240
    87c4:	cmovle rax,rdx
    87c8:	movsxd r10,r10d
    87cb:	imul   rax,rax,0x3e8
    87d2:	add    r10,rax
    87d5:	mov    eax,0x0
    87da:	cmovs  r10,rax
    87de:	imul   rcx,QWORD PTR [rip+0x20db47],0x3e8        # 216330 <wrl_ndomains>
    87e9:	imul   rax,r10,0x30d40
    87f0:	cqo    
    87f2:	idiv   rcx
    87f5:	movsxd rdx,DWORD PTR [rdi+0x4c]
    87f9:	add    rax,rdx
    87fc:	mov    edx,0x3b9aca00
    8801:	cmp    rax,0x3b9aca00
    8807:	cmovg  rax,rdx
    880b:	mov    edx,eax
    880d:	mov    ecx,eax
    880f:	mov    DWORD PTR [rdi+0x4c],eax
    8812:	neg    edx
    8814:	cmp    edx,r8d
    8817:	cmovg  edx,r8d
    881b:	test   edx,edx
    881d:	jle    882f <wrl_credit_update+0x8f>
    881f:	lea    ecx,[rdx+rax*1]
    8822:	sub    r8d,edx
    8825:	mov    DWORD PTR [rip+0x20dafc],r8d        # 216328 <wrl_reserve>
    882c:	mov    DWORD PTR [rdi+0x4c],ecx
    882f:	lea    eax,[rcx-0x2710]
    8835:	xor    r9d,r9d
    8838:	test   eax,eax
    883a:	jle    8851 <wrl_credit_update+0xb1>
    883c:	cmp    eax,0x3b9aca00
    8841:	mov    r9d,0x3b9aca00
    8847:	cmovle r9d,eax
    884b:	sub    ecx,r9d
    884e:	mov    DWORD PTR [rdi+0x4c],ecx
    8851:	mov    eax,0xf4240
    8856:	sub    eax,r8d
    8859:	cmp    eax,r9d
    885c:	cmovg  eax,r9d
    8860:	test   eax,eax
    8862:	jle    8871 <wrl_credit_update+0xd1>
    8864:	add    r8d,eax
    8867:	sub    r9d,eax
    886a:	mov    DWORD PTR [rip+0x20dab7],r8d        # 216328 <wrl_reserve>
    8871:	mov    QWORD PTR [rdi+0x50],rsi
    8875:	mov    esi,DWORD PTR [rdi+0x10]
    8878:	movsxd rcx,ecx
    887b:	mov    QWORD PTR [rdi+0x58],r11
    887f:	lea    rdi,[rip+0x7e4a]        # 106d0 <__FUNCTION__.12321+0x168>
    8886:	movsxd r9,r9d
    8889:	movsxd r8,r8d
    888c:	mov    rdx,r10
    888f:	xor    eax,eax
    8891:	jmp    3d00 <trace>
    8896:	nop    WORD PTR cs:[rax+rax*1+0x0]

00000000000088a0 <wrl_apply_debit_actual.part.3>:
    88a0:	push   rbx
    88a1:	mov    rbx,rdi
    88a4:	sub    rsp,0x20
    88a8:	mov    rdi,rsp
    88ab:	mov    rax,QWORD PTR fs:0x28
    88b4:	mov    QWORD PTR [rsp+0x18],rax
    88b9:	xor    eax,eax
    88bb:	call   80d0 <wrl_gettime_now>
    88c0:	mov    rsi,QWORD PTR [rsp]
    88c4:	mov    rdx,QWORD PTR [rsp+0x8]
    88c9:	mov    rdi,rbx
    88cc:	call   87a0 <wrl_credit_update>
    88d1:	mov    eax,DWORD PTR [rbx+0x4c]
    88d4:	movsxd rcx,DWORD PTR [rip+0x20da4d]        # 216328 <wrl_reserve>
    88db:	lea    rdi,[rip+0x7e36]        # 10718 <__FUNCTION__.12321+0x1b0>
    88e2:	mov    esi,DWORD PTR [rbx+0x10]
    88e5:	lea    edx,[rax-0x3e8]
    88eb:	xor    eax,eax
    88ed:	mov    DWORD PTR [rbx+0x4c],edx
    88f0:	movsxd rdx,edx
    88f3:	call   3d00 <trace>
    88f8:	mov    eax,DWORD PTR [rbx+0x4c]
    88fb:	test   eax,eax
    88fd:	js     8918 <wrl_apply_debit_actual.part.3+0x78>
    88ff:	mov    rax,QWORD PTR [rsp+0x18]
    8904:	xor    rax,QWORD PTR fs:0x28
    890d:	jne    8987 <wrl_apply_debit_actual.part.3+0xe7>
    890f:	add    rsp,0x20
    8913:	pop    rbx
    8914:	ret    
    8915:	nop    DWORD PTR [rax]
    8918:	cmp    BYTE PTR [rbx+0x60],0x0
    891c:	je     8958 <wrl_apply_debit_actual.part.3+0xb8>
    891e:	cmp    QWORD PTR [rip+0x20d9fa],0x0        # 216320 <wrl_log_last_warning>
    8926:	je     8938 <wrl_apply_debit_actual.part.3+0x98>
    8928:	mov    rax,QWORD PTR [rsp]
    892c:	mov    QWORD PTR [rip+0x20d9ed],rax        # 216320 <wrl_log_last_warning>
    8933:	jmp    88ff <wrl_apply_debit_actual.part.3+0x5f>
    8935:	nop    DWORD PTR [rax]
    8938:	lea    rdx,[rip+0x7e39]        # 10778 <__FUNCTION__.12321+0x210>
    893f:	mov    esi,0x1
    8944:	mov    edi,0x4
    8949:	xor    eax,eax
    894b:	call   2b60 <__syslog_chk@plt>
    8950:	jmp    8928 <wrl_apply_debit_actual.part.3+0x88>
    8952:	nop    WORD PTR [rax+rax*1+0x0]
    8958:	mov    ecx,DWORD PTR [rbx+0x10]
    895b:	lea    rdx,[rip+0x7de6]        # 10748 <__FUNCTION__.12321+0x1e0>
    8962:	xor    eax,eax
    8964:	mov    BYTE PTR [rbx+0x60],0x1
    8968:	mov    esi,0x1
    896d:	mov    edi,0x4
    8972:	call   2b60 <__syslog_chk@plt>
    8977:	mov    rax,QWORD PTR [rsp]
    897b:	mov    QWORD PTR [rip+0x20d99e],rax        # 216320 <wrl_log_last_warning>
    8982:	jmp    88ff <wrl_apply_debit_actual.part.3+0x5f>
    8987:	call   2820 <__stack_chk_fail@plt>
    898c:	nop    DWORD PTR [rax+0x0]

0000000000008990 <wrl_check_timeout>:
    8990:	push   rbp
    8991:	push   rbx
    8992:	mov    rbp,rdi
    8995:	mov    rbx,rcx
    8998:	sub    rsp,0x8
    899c:	call   87a0 <wrl_credit_update>
    89a1:	mov    esi,DWORD PTR [rbp+0x4c]
    89a4:	test   esi,esi
    89a6:	js     89b0 <wrl_check_timeout+0x20>
    89a8:	add    rsp,0x8
    89ac:	pop    rbx
    89ad:	pop    rbp
    89ae:	ret    
    89af:	nop
    89b0:	mov    ecx,DWORD PTR [rbx]
    89b2:	test   ecx,ecx
    89b4:	je     89a8 <wrl_check_timeout+0x18>
    89b6:	imul   edx,esi,0xfffffc18
    89bc:	movabs rdi,0x29f16b11c6d1e11
    89c6:	movsxd rdx,edx
    89c9:	imul   rdx,QWORD PTR [rip+0x20d95f]        # 216330 <wrl_ndomains>
    89d1:	shr    rdx,0x6
    89d5:	mov    rax,rdx
    89d8:	mul    rdi
    89db:	mov    eax,0x7fffffff
    89e0:	shr    rdx,0x5
    89e4:	cmp    rdx,0x7fffffff
    89eb:	cmova  rdx,rax
    89ef:	cmp    ecx,edx
    89f1:	mov    r8d,edx
    89f4:	jg     89fb <wrl_check_timeout+0x6b>
    89f6:	cmp    ecx,0xffffffff
    89f9:	jne    8a01 <wrl_check_timeout+0x71>
    89fb:	mov    DWORD PTR [rbx],r8d
    89fe:	mov    esi,DWORD PTR [rbp+0x4c]
    8a01:	movsxd rcx,DWORD PTR [rip+0x20d920]        # 216328 <wrl_reserve>
    8a08:	movsxd rdx,esi
    8a0b:	mov    esi,DWORD PTR [rbp+0x10]
    8a0e:	add    rsp,0x8
    8a12:	lea    rdi,[rip+0x7d8f]        # 107a8 <__FUNCTION__.12321+0x240>
    8a19:	xor    eax,eax
    8a1b:	pop    rbx
    8a1c:	pop    rbp
    8a1d:	jmp    3d00 <trace>
    8a22:	nop    DWORD PTR [rax+0x0]
    8a26:	nop    WORD PTR cs:[rax+rax*1+0x0]

0000000000008a30 <wrl_apply_debit_actual>:
    8a30:	test   rdi,rdi
    8a33:	je     8a40 <wrl_apply_debit_actual+0x10>
    8a35:	jmp    88a0 <wrl_apply_debit_actual.part.3>
    8a3a:	nop    WORD PTR [rax+rax*1+0x0]
    8a40:	repz ret 
    8a42:	nop    DWORD PTR [rax+0x0]
    8a46:	nop    WORD PTR cs:[rax+rax*1+0x0]

0000000000008a50 <wrl_log_periodic>:
    8a50:	mov    rax,QWORD PTR [rip+0x20d8c9]        # 216320 <wrl_log_last_warning>
    8a57:	test   rax,rax
    8a5a:	je     8a65 <wrl_log_periodic+0x15>
    8a5c:	sub    rdi,rax
    8a5f:	cmp    rdi,0x78
    8a63:	jg     8a70 <wrl_log_periodic+0x20>
    8a65:	repz ret 
    8a67:	nop    WORD PTR [rax+rax*1+0x0]
    8a70:	lea    rdx,[rip+0x7d71]        # 107e8 <__FUNCTION__.12321+0x280>
    8a77:	sub    rsp,0x8
    8a7b:	mov    esi,0x1
    8a80:	mov    edi,0x4
    8a85:	xor    eax,eax
    8a87:	call   2b60 <__syslog_chk@plt>
    8a8c:	mov    QWORD PTR [rip+0x20d889],0x0        # 216320 <wrl_log_last_warning>
    8a97:	add    rsp,0x8
    8a9b:	ret    
    8a9c:	nop    DWORD PTR [rax+0x0]

0000000000008aa0 <wrl_apply_debit_direct>:
    8aa0:	test   rdi,rdi
    8aa3:	je     8aac <wrl_apply_debit_direct+0xc>
    8aa5:	cmp    QWORD PTR [rdi+0x38],0x0
    8aaa:	je     8ab0 <wrl_apply_debit_direct+0x10>
    8aac:	repz ret 
    8aae:	xchg   ax,ax
    8ab0:	cmp    QWORD PTR [rip+0x2108e0],0x0        # 219398 <wrl_ntransactions>
    8ab8:	je     8aac <wrl_apply_debit_direct+0xc>
    8aba:	mov    rdi,QWORD PTR [rdi+0x58]
    8abe:	test   rdi,rdi
    8ac1:	je     8aac <wrl_apply_debit_direct+0xc>
    8ac3:	jmp    88a0 <wrl_apply_debit_actual.part.3>
    8ac8:	nop    DWORD PTR [rax+rax*1+0x0]

0000000000008ad0 <wrl_apply_debit_trans_commit>:
    8ad0:	cmp    QWORD PTR [rip+0x2108c0],0x1        # 219398 <wrl_ntransactions>
    8ad8:	jle    8af0 <wrl_apply_debit_trans_commit+0x20>
    8ada:	mov    rdi,QWORD PTR [rdi+0x58]
    8ade:	test   rdi,rdi
    8ae1:	je     8af0 <wrl_apply_debit_trans_commit+0x20>
    8ae3:	jmp    88a0 <wrl_apply_debit_actual.part.3>
    8ae8:	nop    DWORD PTR [rax+rax*1+0x0]
    8af0:	repz ret 
    8af2:	nop    WORD PTR cs:[rax+rax*1+0x0]
    8afc:	nop    DWORD PTR [rax+0x0]

0000000000008b00 <destroy_transaction>:
    8b00:	push   r14
    8b02:	lea    rsi,[rip+0x7e15]        # 1091e <__FUNCTION__.11174+0x46>
    8b09:	push   r13
    8b0b:	push   r12
    8b0d:	push   rbp
    8b0e:	mov    rbp,rdi
    8b11:	push   rbx
    8b12:	sub    QWORD PTR [rip+0x21087e],0x1        # 219398 <wrl_ntransactions>
    8b1a:	call   48d0 <trace_destroy>
    8b1f:	mov    rbx,QWORD PTR [rbp+0x20]
    8b23:	test   rbx,rbx
    8b26:	je     8bc0 <destroy_transaction+0xc0>
    8b2c:	lea    r12,[rbp+0x20]
    8b30:	cmp    rbx,r12
    8b33:	je     8bc0 <destroy_transaction+0xc0>
    8b39:	lea    r13,[rip+0x7da7]        # 108e7 <__FUNCTION__.11174+0xf>
    8b40:	jmp    8b7b <destroy_transaction+0x7b>
    8b42:	nop    WORD PTR [rax+rax*1+0x0]
    8b48:	mov    rdx,QWORD PTR [rbx]
    8b4b:	mov    rax,QWORD PTR [rbx+0x8]
    8b4f:	mov    rdi,rbx
    8b52:	mov    QWORD PTR [rdx+0x8],rax
    8b56:	mov    QWORD PTR [rax],rdx
    8b59:	mov    QWORD PTR [rbx],0x100100
    8b60:	mov    QWORD PTR [rbx+0x8],0x200200
    8b68:	call   a6a0 <talloc_free>
    8b6d:	mov    rbx,QWORD PTR [rbp+0x20]
    8b71:	cmp    rbx,r12
    8b74:	je     8bc0 <destroy_transaction+0xc0>
    8b76:	test   rbx,rbx
    8b79:	je     8bc0 <destroy_transaction+0xc0>
    8b7b:	cmp    BYTE PTR [rbx+0x22],0x0
    8b7f:	je     8b48 <destroy_transaction+0x48>
    8b81:	mov    rcx,QWORD PTR [rbx+0x10]
    8b85:	mov    rdx,QWORD PTR [rbp+0x18]
    8b89:	xor    eax,eax
    8b8b:	mov    rsi,r13
    8b8e:	mov    rdi,rbx
    8b91:	call   b950 <talloc_asprintf>
    8b96:	test   rax,rax
    8b99:	mov    r14,rax
    8b9c:	je     8b48 <destroy_transaction+0x48>
    8b9e:	mov    rdi,rax
    8ba1:	call   2800 <strlen@plt>
    8ba6:	mov    rdi,QWORD PTR [rip+0x20d733]        # 2162e0 <tdb_ctx>
    8bad:	mov    rsi,r14
    8bb0:	mov    rdx,rax
    8bb3:	call   e000 <tdb_delete>
    8bb8:	jmp    8b48 <destroy_transaction+0x48>
    8bba:	nop    WORD PTR [rax+rax*1+0x0]
    8bc0:	pop    rbx
    8bc1:	xor    eax,eax
    8bc3:	pop    rbp
    8bc4:	pop    r12
    8bc6:	pop    r13
    8bc8:	pop    r14
    8bca:	ret    
    8bcb:	nop    DWORD PTR [rax+rax*1+0x0]

0000000000008bd0 <transaction_fix_domains>:
    8bd0:	push   r13
    8bd2:	push   r12
    8bd4:	lea    r12,[rdi+0x30]
    8bd8:	push   rbp
    8bd9:	push   rbx
    8bda:	sub    rsp,0x8
    8bde:	mov    rbx,QWORD PTR [rdi+0x30]
    8be2:	cmp    rbx,r12
    8be5:	je     8c12 <transaction_fix_domains+0x42>
    8be7:	mov    r13d,esi
    8bea:	movzx  ebp,sil
    8bee:	xchg   ax,ax
    8bf0:	mov    esi,DWORD PTR [rbx+0x14]
    8bf3:	mov    edi,DWORD PTR [rbx+0x10]
    8bf6:	mov    edx,ebp
    8bf8:	call   7fe0 <domain_entry_fix>
    8bfd:	test   r13b,r13b
    8c00:	jne    8c0a <transaction_fix_domains+0x3a>
    8c02:	cmp    DWORD PTR [rip+0x20d414],eax        # 21601c <quota_nb_entry_per_domain>
    8c08:	jle    8c20 <transaction_fix_domains+0x50>
    8c0a:	mov    rbx,QWORD PTR [rbx]
    8c0d:	cmp    rbx,r12
    8c10:	jne    8bf0 <transaction_fix_domains+0x20>
    8c12:	add    rsp,0x8
    8c16:	xor    eax,eax
    8c18:	pop    rbx
    8c19:	pop    rbp
    8c1a:	pop    r12
    8c1c:	pop    r13
    8c1e:	ret    
    8c1f:	nop
    8c20:	add    rsp,0x8
    8c24:	mov    eax,0x1c
    8c29:	pop    rbx
    8c2a:	pop    rbp
    8c2b:	pop    r12
    8c2d:	pop    r13
    8c2f:	ret    

0000000000008c30 <transaction_prepend>:
    8c30:	push   r15
    8c32:	push   r14
    8c34:	mov    r15,rdx
    8c37:	push   r13
    8c39:	push   r12
    8c3b:	mov    r12,rsi
    8c3e:	push   rbp
    8c3f:	push   rbx
    8c40:	sub    rsp,0x8
    8c44:	test   rdi,rdi
    8c47:	je     8c60 <transaction_prepend+0x30>
    8c49:	mov    r14,QWORD PTR [rdi+0x38]
    8c4d:	test   r14,r14
    8c50:	je     8c60 <transaction_prepend+0x30>
    8c52:	mov    rbx,QWORD PTR [r14+0x20]
    8c56:	lea    r13,[r14+0x20]
    8c5a:	cmp    r13,rbx
    8c5d:	jne    8c90 <transaction_prepend+0x60>
    8c5f:	nop
    8c60:	mov    QWORD PTR [r15],r12
    8c63:	mov    rdi,r12
    8c66:	xor    ebp,ebp
    8c68:	call   2800 <strlen@plt>
    8c6d:	mov    QWORD PTR [r15+0x8],rax
    8c71:	add    rsp,0x8
    8c75:	mov    eax,ebp
    8c77:	pop    rbx
    8c78:	pop    rbp
    8c79:	pop    r12
    8c7b:	pop    r13
    8c7d:	pop    r14
    8c7f:	pop    r15
    8c81:	ret    
    8c82:	nop    WORD PTR [rax+rax*1+0x0]
    8c88:	mov    rbx,QWORD PTR [rbx]
    8c8b:	cmp    rbx,r13
    8c8e:	je     8c60 <transaction_prepend+0x30>
    8c90:	mov    rdi,QWORD PTR [rbx+0x10]
    8c94:	mov    rsi,r12
    8c97:	call   29c0 <strcmp@plt>
    8c9c:	test   eax,eax
    8c9e:	mov    ebp,eax
    8ca0:	jne    8c88 <transaction_prepend+0x58>
    8ca2:	mov    rdx,QWORD PTR [r14+0x18]
    8ca6:	lea    rsi,[rip+0x7c3a]        # 108e7 <__FUNCTION__.11174+0xf>
    8cad:	xor    eax,eax
    8caf:	mov    rcx,r12
    8cb2:	mov    rdi,r14
    8cb5:	call   b950 <talloc_asprintf>
    8cba:	test   rax,rax
    8cbd:	je     8cd0 <transaction_prepend+0xa0>
    8cbf:	mov    QWORD PTR [r15],rax
    8cc2:	mov    rdi,rax
    8cc5:	call   2800 <strlen@plt>
    8cca:	mov    QWORD PTR [r15+0x8],rax
    8cce:	jmp    8c71 <transaction_prepend+0x41>
    8cd0:	call   2750 <__errno_location@plt>
    8cd5:	mov    ebp,DWORD PTR [rax]
    8cd7:	jmp    8c71 <transaction_prepend+0x41>
    8cd9:	nop    DWORD PTR [rax+0x0]

0000000000008ce0 <access_node>:
    8ce0:	push   r15
    8ce2:	push   r14
    8ce4:	mov    r14d,edx
    8ce7:	push   r13
    8ce9:	push   r12
    8ceb:	mov    r13,rdi
    8cee:	push   rbp
    8cef:	push   rbx
    8cf0:	mov    rbp,rsi
    8cf3:	mov    rbx,rcx
    8cf6:	sub    rsp,0x48
    8cfa:	mov    rax,QWORD PTR fs:0x28
    8d03:	mov    QWORD PTR [rsp+0x38],rax
    8d08:	xor    eax,eax
    8d0a:	test   edx,edx
    8d0c:	je     8e48 <access_node+0x168>
    8d12:	mov    rax,QWORD PTR [rip+0x20d62f]        # 216348 <generation>
    8d19:	test   rdi,rdi
    8d1c:	lea    rdx,[rax+0x1]
    8d20:	mov    QWORD PTR [rsi+0x10],rax
    8d24:	mov    QWORD PTR [rip+0x20d61d],rdx        # 216348 <generation>
    8d2b:	je     8e08 <access_node+0x128>
    8d31:	mov    r12,QWORD PTR [rdi+0x38]
    8d35:	test   r12,r12
    8d38:	je     8df0 <access_node+0x110>
    8d3e:	mov    rdx,QWORD PTR [r12+0x18]
    8d43:	mov    rcx,QWORD PTR [rbp+0x0]
    8d47:	lea    rsi,[rip+0x7b99]        # 108e7 <__FUNCTION__.11174+0xf>
    8d4e:	xor    eax,eax
    8d50:	mov    rdi,rbp
    8d53:	call   b950 <talloc_asprintf>
    8d58:	test   rax,rax
    8d5b:	mov    QWORD PTR [rsp+0x18],rax
    8d60:	je     8f28 <access_node+0x248>
    8d66:	mov    rax,QWORD PTR [rbp+0x0]
    8d6a:	mov    r15,QWORD PTR [r12+0x20]
    8d6f:	mov    QWORD PTR [rsp+0x8],rax
    8d74:	lea    rax,[r12+0x20]
    8d79:	cmp    rax,r15
    8d7c:	mov    QWORD PTR [rsp+0x10],rax
    8d81:	jne    8d9e <access_node+0xbe>
    8d83:	jmp    8e60 <access_node+0x180>
    8d88:	nop    DWORD PTR [rax+rax*1+0x0]
    8d90:	mov    r15,QWORD PTR [r15]
    8d93:	cmp    r15,QWORD PTR [rsp+0x10]
    8d98:	je     8e60 <access_node+0x180>
    8d9e:	mov    rdi,QWORD PTR [r15+0x10]
    8da2:	mov    rsi,QWORD PTR [rsp+0x8]
    8da7:	call   29c0 <strcmp@plt>
    8dac:	test   eax,eax
    8dae:	jne    8d90 <access_node+0xb0>
    8db0:	test   r14d,r14d
    8db3:	je     8dba <access_node+0xda>
    8db5:	mov    BYTE PTR [r15+0x21],0x1
    8dba:	test   rbx,rbx
    8dbd:	je     8e1d <access_node+0x13d>
    8dbf:	mov    rax,QWORD PTR [rsp+0x18]
    8dc4:	mov    QWORD PTR [rbx],rax
    8dc7:	mov    rdi,rax
    8dca:	call   2800 <strlen@plt>
    8dcf:	cmp    r14d,0x1
    8dd3:	mov    QWORD PTR [rbx+0x8],rax
    8dd7:	je     8f58 <access_node+0x278>
    8ddd:	cmp    r14d,0x2
    8de1:	jne    8e1d <access_node+0x13d>
    8de3:	mov    BYTE PTR [r15+0x22],0x0
    8de8:	xor    ebp,ebp
    8dea:	jmp    8e1f <access_node+0x13f>
    8dec:	nop    DWORD PTR [rax+0x0]
    8df0:	call   8aa0 <wrl_apply_debit_direct>
    8df5:	mov    r12,QWORD PTR [r13+0x38]
    8df9:	test   r12,r12
    8dfc:	jne    8d3e <access_node+0x5e>
    8e02:	nop    WORD PTR [rax+rax*1+0x0]
    8e08:	test   rbx,rbx
    8e0b:	je     8e1d <access_node+0x13d>
    8e0d:	mov    rdi,QWORD PTR [rbp+0x0]
    8e11:	mov    QWORD PTR [rbx],rdi
    8e14:	call   2800 <strlen@plt>
    8e19:	mov    QWORD PTR [rbx+0x8],rax
    8e1d:	xor    ebp,ebp
    8e1f:	mov    rcx,QWORD PTR [rsp+0x38]
    8e24:	xor    rcx,QWORD PTR fs:0x28
    8e2d:	mov    eax,ebp
    8e2f:	jne    8f6b <access_node+0x28b>
    8e35:	add    rsp,0x48
    8e39:	pop    rbx
    8e3a:	pop    rbp
    8e3b:	pop    r12
    8e3d:	pop    r13
    8e3f:	pop    r14
    8e41:	pop    r15
    8e43:	ret    
    8e44:	nop    DWORD PTR [rax+0x0]
    8e48:	test   rdi,rdi
    8e4b:	je     8e08 <access_node+0x128>
    8e4d:	mov    r12,QWORD PTR [r13+0x38]
    8e51:	test   r12,r12
    8e54:	je     8e08 <access_node+0x128>
    8e56:	jmp    8d3e <access_node+0x5e>
    8e5b:	nop    DWORD PTR [rax+rax*1+0x0]
    8e60:	lea    rdx,[rip+0x7a87]        # 108ee <__FUNCTION__.11174+0x16>
    8e67:	mov    esi,0x28
    8e6c:	mov    rdi,r12
    8e6f:	call   b280 <_talloc_zero>
    8e74:	test   rax,rax
    8e77:	mov    r15,rax
    8e7a:	je     8f28 <access_node+0x248>
    8e80:	mov    rsi,QWORD PTR [rbp+0x0]
    8e84:	mov    rdi,r15
    8e87:	call   b2f0 <talloc_strdup>
    8e8c:	test   rax,rax
    8e8f:	mov    QWORD PTR [r15+0x10],rax
    8e93:	je     8f64 <access_node+0x284>
    8e99:	test   r14d,r14d
    8e9c:	mov    BYTE PTR [r15+0x22],0x0
    8ea1:	jne    8ee9 <access_node+0x209>
    8ea3:	mov    rax,QWORD PTR [rbp+0x10]
    8ea7:	mov    BYTE PTR [r15+0x20],0x1
    8eac:	mov    QWORD PTR [r15+0x18],rax
    8eb0:	cmp    QWORD PTR [rbp+0x10],0xffffffffffffffff
    8eb5:	je     8ee9 <access_node+0x209>
    8eb7:	mov    rax,QWORD PTR [rsp+0x18]
    8ebc:	mov    rdi,rax
    8ebf:	mov    QWORD PTR [rsp+0x20],rax
    8ec4:	call   2800 <strlen@plt>
    8ec9:	lea    rsi,[rsp+0x20]
    8ece:	mov    rdx,rbp
    8ed1:	mov    rdi,r13
    8ed4:	mov    QWORD PTR [rsp+0x28],rax
    8ed9:	call   53a0 <write_node_raw>
    8ede:	test   eax,eax
    8ee0:	mov    ebp,eax
    8ee2:	jne    8f30 <access_node+0x250>
    8ee4:	mov    BYTE PTR [r15+0x22],0x1
    8ee9:	mov    rax,QWORD PTR [r12+0x28]
    8eee:	mov    rcx,QWORD PTR [rsp+0x10]
    8ef3:	test   r14d,r14d
    8ef6:	mov    QWORD PTR [r12+0x28],r15
    8efb:	mov    QWORD PTR [r15],rcx
    8efe:	mov    QWORD PTR [r15+0x8],rax
    8f02:	mov    QWORD PTR [rax],r15
    8f05:	je     8dba <access_node+0xda>
    8f0b:	cmp    r14d,0x2
    8f0f:	mov    BYTE PTR [r15+0x21],0x1
    8f14:	mov    ebp,0xffffffff
    8f19:	jne    8dba <access_node+0xda>
    8f1f:	jmp    8e1f <access_node+0x13f>
    8f24:	nop    DWORD PTR [rax+0x0]
    8f28:	mov    ebp,0xc
    8f2d:	xor    r15d,r15d
    8f30:	mov    rdi,QWORD PTR [rsp+0x18]
    8f35:	call   a6a0 <talloc_free>
    8f3a:	mov    rdi,r15
    8f3d:	call   a6a0 <talloc_free>
    8f42:	mov    BYTE PTR [r12+0x40],0x1
    8f48:	call   2750 <__errno_location@plt>
    8f4d:	mov    DWORD PTR [rax],ebp
    8f4f:	jmp    8e1f <access_node+0x13f>
    8f54:	nop    DWORD PTR [rax+0x0]
    8f58:	mov    BYTE PTR [r15+0x22],0x1
    8f5d:	xor    ebp,ebp
    8f5f:	jmp    8e1f <access_node+0x13f>
    8f64:	mov    ebp,0xc
    8f69:	jmp    8f30 <access_node+0x250>
    8f6b:	call   2820 <__stack_chk_fail@plt>

0000000000008f70 <transaction_lookup>:
    8f70:	test   esi,esi
    8f72:	je     8fb0 <transaction_lookup+0x40>
    8f74:	mov    rax,QWORD PTR [rdi+0x40]
    8f78:	add    rdi,0x40
    8f7c:	cmp    rdi,rax
    8f7f:	je     8f9d <transaction_lookup+0x2d>
    8f81:	cmp    esi,DWORD PTR [rax+0x10]
    8f84:	jne    8f95 <transaction_lookup+0x25>
