
libxenguest.so.4.12.0:     file format elf64-x86-64


Disassembly of section .init:

0000000000005848 <_init>:
    5848:	sub    rsp,0x8
    584c:	mov    rax,QWORD PTR [rip+0x22777d]        # 22cfd0 <__gmon_start__>
    5853:	test   rax,rax
    5856:	je     585a <_init+0x12>
    5858:	call   rax
    585a:	add    rsp,0x8
    585e:	ret    

Disassembly of section .plt:

0000000000005860 <.plt>:
    5860:	push   QWORD PTR [rip+0x2277a2]        # 22d008 <_GLOBAL_OFFSET_TABLE_+0x8>
    5866:	jmp    QWORD PTR [rip+0x2277a4]        # 22d010 <_GLOBAL_OFFSET_TABLE_+0x10>
    586c:	nop    DWORD PTR [rax+0x0]

0000000000005870 <write_split_record@plt>:
    5870:	jmp    QWORD PTR [rip+0x2277a2]        # 22d018 <write_split_record@@Base+0x225dd8>
    5876:	push   0x0
    587b:	jmp    5860 <.plt>

0000000000005880 <writev_exact@plt>:
    5880:	jmp    QWORD PTR [rip+0x22779a]        # 22d020 <writev_exact>
    5886:	push   0x1
    588b:	jmp    5860 <.plt>

0000000000005890 <elf_xen_parse_guest_info@plt>:
    5890:	jmp    QWORD PTR [rip+0x227792]        # 22d028 <elf_xen_parse_guest_info@@Base+0x2183e8>
    5896:	push   0x2
    589b:	jmp    5860 <.plt>

00000000000058a0 <elf_check_broken@plt>:
    58a0:	jmp    QWORD PTR [rip+0x22778a]        # 22d030 <elf_check_broken@@Base+0x21a850>
    58a6:	push   0x3
    58ab:	jmp    5860 <.plt>

00000000000058b0 <xc_await_suspend@plt>:
    58b0:	jmp    QWORD PTR [rip+0x227782]        # 22d038 <xc_await_suspend@@Base+0x226158>
    58b6:	push   0x4
    58bb:	jmp    5860 <.plt>

00000000000058c0 <xc_suspend_evtchn_init_sane@plt>:
    58c0:	jmp    QWORD PTR [rip+0x22777a]        # 22d040 <xc_suspend_evtchn_init_sane@@Base+0x225fa0>
    58c6:	push   0x5
    58cb:	jmp    5860 <.plt>

00000000000058d0 <xc_domain_memory_exchange_pages@plt>:
    58d0:	jmp    QWORD PTR [rip+0x227772]        # 22d048 <xc_domain_memory_exchange_pages>
    58d6:	push   0x6
    58db:	jmp    5860 <.plt>

00000000000058e0 <gzclose@plt>:
    58e0:	jmp    QWORD PTR [rip+0x22776a]        # 22d050 <gzclose>
    58e6:	push   0x7
    58eb:	jmp    5860 <.plt>

00000000000058f0 <__snprintf_chk@plt>:
    58f0:	jmp    QWORD PTR [rip+0x227762]        # 22d058 <__snprintf_chk@GLIBC_2.3.4>
    58f6:	push   0x8
    58fb:	jmp    5860 <.plt>

0000000000005900 <free@plt>:
    5900:	jmp    QWORD PTR [rip+0x22775a]        # 22d060 <free@GLIBC_2.2.5>
    5906:	push   0x9
    590b:	jmp    5860 <.plt>

0000000000005910 <xc_clear_domain_pages@plt>:
    5910:	jmp    QWORD PTR [rip+0x227752]        # 22d068 <xc_clear_domain_pages>
    5916:	push   0xa
    591b:	jmp    5860 <.plt>

0000000000005920 <xc_unmap_domain_meminfo@plt>:
    5920:	jmp    QWORD PTR [rip+0x22774a]        # 22d070 <xc_unmap_domain_meminfo>
    5926:	push   0xb
    592b:	jmp    5860 <.plt>

0000000000005930 <elf_xen_parse_features@plt>:
    5930:	jmp    QWORD PTR [rip+0x227742]        # 22d078 <elf_xen_parse_features@@Base+0x218a38>
    5936:	push   0xc
    593b:	jmp    5860 <.plt>

0000000000005940 <__errno_location@plt>:
    5940:	jmp    QWORD PTR [rip+0x22773a]        # 22d080 <__errno_location@GLIBC_2.2.5>
    5946:	push   0xd
    594b:	jmp    5860 <.plt>

0000000000005950 <xc_vcpu_getinfo@plt>:
    5950:	jmp    QWORD PTR [rip+0x227732]        # 22d088 <xc_vcpu_getinfo>
    5956:	push   0xe
    595b:	jmp    5860 <.plt>

0000000000005960 <unlink@plt>:
    5960:	jmp    QWORD PTR [rip+0x22772a]        # 22d090 <unlink@GLIBC_2.2.5>
    5966:	push   0xf
    596b:	jmp    5860 <.plt>

0000000000005970 <xc_dom_update_guest_p2m@plt>:
    5970:	jmp    QWORD PTR [rip+0x227722]        # 22d098 <xc_dom_update_guest_p2m@@Base+0x215238>
    5976:	push   0x10
    597b:	jmp    5860 <.plt>

0000000000005980 <strncpy@plt>:
    5980:	jmp    QWORD PTR [rip+0x22771a]        # 22d0a0 <strncpy@GLIBC_2.2.5>
    5986:	push   0x11
    598b:	jmp    5860 <.plt>

0000000000005990 <mfn_in_pseudophysmap@plt>:
    5990:	jmp    QWORD PTR [rip+0x227712]        # 22d0a8 <mfn_in_pseudophysmap@@Base+0x2258b8>
    5996:	push   0x12
    599b:	jmp    5860 <.plt>

00000000000059a0 <xc_gnttab_op@plt>:
    59a0:	jmp    QWORD PTR [rip+0x22770a]        # 22d0b0 <xc_gnttab_op>
    59a6:	push   0x13
    59ab:	jmp    5860 <.plt>

00000000000059b0 <lzma_code@plt>:
    59b0:	jmp    QWORD PTR [rip+0x227702]        # 22d0b8 <lzma_code@XZ_5.0>
    59b6:	push   0x14
    59bb:	jmp    5860 <.plt>

00000000000059c0 <xenforeignmemory_map@plt>:
    59c0:	jmp    QWORD PTR [rip+0x2276fa]        # 22d0c0 <xenforeignmemory_map>
    59c6:	push   0x15
    59cb:	jmp    5860 <.plt>

00000000000059d0 <xc_domctl@plt>:
    59d0:	jmp    QWORD PTR [rip+0x2276f2]        # 22d0c8 <xc_domctl>
    59d6:	push   0x16
    59db:	jmp    5860 <.plt>

00000000000059e0 <xc_dom_do_gunzip@plt>:
    59e0:	jmp    QWORD PTR [rip+0x2276ea]        # 22d0d0 <xc_dom_do_gunzip@@Base+0x2165a0>
    59e6:	push   0x17
    59eb:	jmp    5860 <.plt>

00000000000059f0 <inflate@plt>:
    59f0:	jmp    QWORD PTR [rip+0x2276e2]        # 22d0d8 <inflate>
    59f6:	push   0x18
    59fb:	jmp    5860 <.plt>

0000000000005a00 <xc_dom_alloc_segment@plt>:
    5a00:	jmp    QWORD PTR [rip+0x2276da]        # 22d0e0 <xc_dom_alloc_segment@@Base+0x2160c0>
    5a06:	push   0x19
    5a0b:	jmp    5860 <.plt>

0000000000005a10 <xenforeignmemory_unmap_resource@plt>:
    5a10:	jmp    QWORD PTR [rip+0x2276d2]        # 22d0e8 <xenforeignmemory_unmap_resource>
    5a16:	push   0x1a
    5a1b:	jmp    5860 <.plt>

0000000000005a20 <xc_set_progress_prefix@plt>:
    5a20:	jmp    QWORD PTR [rip+0x2276ca]        # 22d0f0 <xc_set_progress_prefix>
    5a26:	push   0x1b
    5a2b:	jmp    5860 <.plt>

0000000000005a30 <xc_get_cpu_featureset_size@plt>:
    5a30:	jmp    QWORD PTR [rip+0x2276c2]        # 22d0f8 <xc_get_cpu_featureset_size@@Base+0x20d5e8>
    5a36:	push   0x1c
    5a3b:	jmp    5860 <.plt>

0000000000005a40 <xc__hypercall_bounce_pre@plt>:
    5a40:	jmp    QWORD PTR [rip+0x2276ba]        # 22d100 <xc__hypercall_bounce_pre>
    5a46:	push   0x1d
    5a4b:	jmp    5860 <.plt>

0000000000005a50 <xc_dom_strdup@plt>:
    5a50:	jmp    QWORD PTR [rip+0x2276b2]        # 22d108 <xc_dom_strdup@@Base+0x2166e8>
    5a56:	push   0x1e
    5a5b:	jmp    5860 <.plt>

0000000000005a60 <xc_dom_malloc@plt>:
    5a60:	jmp    QWORD PTR [rip+0x2276aa]        # 22d110 <xc_dom_malloc@@Base+0x216c50>
    5a66:	push   0x1f
    5a6b:	jmp    5860 <.plt>

0000000000005a70 <elf_mark_broken@plt>:
    5a70:	jmp    QWORD PTR [rip+0x2276a2]        # 22d118 <elf_mark_broken@@Base+0x21a958>
    5a76:	push   0x20
    5a7b:	jmp    5860 <.plt>

0000000000005a80 <x86_cpuid_lookup_deep_deps@plt>:
    5a80:	jmp    QWORD PTR [rip+0x22769a]        # 22d120 <x86_cpuid_lookup_deep_deps@@Base+0x2175e0>
    5a86:	push   0x21
    5a8b:	jmp    5860 <.plt>

0000000000005a90 <elf_shdr_count@plt>:
    5a90:	jmp    QWORD PTR [rip+0x227692]        # 22d128 <elf_shdr_count@@Base+0x21a718>
    5a96:	push   0x22
    5a9b:	jmp    5860 <.plt>

0000000000005aa0 <fcntl@plt>:
    5aa0:	jmp    QWORD PTR [rip+0x22768a]        # 22d130 <fcntl@GLIBC_2.2.5>
    5aa6:	push   0x23
    5aab:	jmp    5860 <.plt>

0000000000005ab0 <xc_gnttab_map_table_v2@plt>:
    5ab0:	jmp    QWORD PTR [rip+0x227682]        # 22d138 <xc_gnttab_map_table_v2>
    5ab6:	push   0x24
    5abb:	jmp    5860 <.plt>

0000000000005ac0 <xc_dom_boot_image@plt>:
    5ac0:	jmp    QWORD PTR [rip+0x22767a]        # 22d140 <xc_dom_boot_image@@Base+0x214470>
    5ac6:	push   0x25
    5acb:	jmp    5860 <.plt>

0000000000005ad0 <xc_dom_register_external@plt>:
    5ad0:	jmp    QWORD PTR [rip+0x227672]        # 22d148 <xc_dom_register_external@@Base+0x216a98>
    5ad6:	push   0x26
    5adb:	jmp    5860 <.plt>

0000000000005ae0 <gzdopen@plt>:
    5ae0:	jmp    QWORD PTR [rip+0x22766a]        # 22d150 <gzdopen>
    5ae6:	push   0x27
    5aeb:	jmp    5860 <.plt>

0000000000005af0 <xc_dom_translated@plt>:
    5af0:	jmp    QWORD PTR [rip+0x227662]        # 22d158 <xc_dom_translated@@Base+0x20f348>
    5af6:	push   0x28
    5afb:	jmp    5860 <.plt>

0000000000005b00 <xc_make_page_below_4G@plt>:
    5b00:	jmp    QWORD PTR [rip+0x22765a]        # 22d160 <xc_make_page_below_4G>
    5b06:	push   0x29
    5b0b:	jmp    5860 <.plt>

0000000000005b10 <xc_core_arch_get_scratch_gpfn@plt>:
    5b10:	jmp    QWORD PTR [rip+0x227652]        # 22d168 <xc_core_arch_get_scratch_gpfn>
    5b16:	push   0x2a
    5b1b:	jmp    5860 <.plt>

0000000000005b20 <elf_init@plt>:
    5b20:	jmp    QWORD PTR [rip+0x22764a]        # 22d170 <elf_init@@Base+0x219db0>
    5b26:	push   0x2b
    5b2b:	jmp    5860 <.plt>

0000000000005b30 <elf_xen_parse@plt>:
    5b30:	jmp    QWORD PTR [rip+0x227642]        # 22d178 <elf_xen_parse@@Base+0x218048>
    5b36:	push   0x2c
    5b3b:	jmp    5860 <.plt>

0000000000005b40 <xc_domain_getinfo@plt>:
    5b40:	jmp    QWORD PTR [rip+0x22763a]        # 22d180 <xc_domain_getinfo>
    5b46:	push   0x2d
    5b4b:	jmp    5860 <.plt>

0000000000005b50 <strlen@plt>:
    5b50:	jmp    QWORD PTR [rip+0x227632]        # 22d188 <strlen@GLIBC_2.2.5>
    5b56:	push   0x2e
    5b5b:	jmp    5860 <.plt>

0000000000005b60 <xc_dom_printf@plt>:
    5b60:	jmp    QWORD PTR [rip+0x22762a]        # 22d190 <xc_dom_printf@@Base+0x217230>
    5b66:	push   0x2f
    5b6b:	jmp    5860 <.plt>

0000000000005b70 <populate_pfns@plt>:
    5b70:	jmp    QWORD PTR [rip+0x227622]        # 22d198 <populate_pfns@@Base+0x220448>
    5b76:	push   0x30
    5b7b:	jmp    5860 <.plt>

0000000000005b80 <__stack_chk_fail@plt>:
    5b80:	jmp    QWORD PTR [rip+0x22761a]        # 22d1a0 <__stack_chk_fail@GLIBC_2.4>
    5b86:	push   0x31
    5b8b:	jmp    5860 <.plt>

0000000000005b90 <xenevtchn_bind_interdomain@plt>:
    5b90:	jmp    QWORD PTR [rip+0x227612]        # 22d1a8 <xenevtchn_bind_interdomain@VERS_1.0>
    5b96:	push   0x32
    5b9b:	jmp    5860 <.plt>

0000000000005ba0 <mmap@plt>:
    5ba0:	jmp    QWORD PTR [rip+0x22760a]        # 22d1b0 <mmap@GLIBC_2.2.5>
    5ba6:	push   0x33
    5bab:	jmp    5860 <.plt>

0000000000005bb0 <xtl_logv@plt>:
    5bb0:	jmp    QWORD PTR [rip+0x227602]        # 22d1b8 <xtl_logv>
    5bb6:	push   0x34
    5bbb:	jmp    5860 <.plt>

0000000000005bc0 <read_record@plt>:
    5bc0:	jmp    QWORD PTR [rip+0x2275fa]        # 22d1c0 <read_record@@Base+0x225db0>
    5bc6:	push   0x35
    5bcb:	jmp    5860 <.plt>

0000000000005bd0 <elf_note_name@plt>:
    5bd0:	jmp    QWORD PTR [rip+0x2275f2]        # 22d1c8 <elf_note_name@@Base+0x21a178>
    5bd6:	push   0x36
    5bdb:	jmp    5860 <.plt>

0000000000005be0 <xc_version@plt>:
    5be0:	jmp    QWORD PTR [rip+0x2275ea]        # 22d1d0 <xc_version>
    5be6:	push   0x37
    5beb:	jmp    5860 <.plt>

0000000000005bf0 <strchr@plt>:
    5bf0:	jmp    QWORD PTR [rip+0x2275e2]        # 22d1d8 <strchr@GLIBC_2.2.5>
    5bf6:	push   0x38
    5bfb:	jmp    5860 <.plt>

0000000000005c00 <elf_memcpy_safe@plt>:
    5c00:	jmp    QWORD PTR [rip+0x2275da]        # 22d1e0 <elf_memcpy_safe@@Base+0x21a940>
    5c06:	push   0x39
    5c0b:	jmp    5860 <.plt>

0000000000005c10 <xc_report_progress_single@plt>:
    5c10:	jmp    QWORD PTR [rip+0x2275d2]        # 22d1e8 <xc_report_progress_single>
    5c16:	push   0x3a
    5c1b:	jmp    5860 <.plt>

0000000000005c20 <xenevtchn_unmask@plt>:
    5c20:	jmp    QWORD PTR [rip+0x2275ca]        # 22d1f0 <xenevtchn_unmask@VERS_1.0>
    5c26:	push   0x3b
    5c2b:	jmp    5860 <.plt>

0000000000005c30 <xc_domain_subscribe_for_suspend@plt>:
    5c30:	jmp    QWORD PTR [rip+0x2275c2]        # 22d1f8 <xc_domain_subscribe_for_suspend>
    5c36:	push   0x3c
    5c3b:	jmp    5860 <.plt>

0000000000005c40 <xc_report_progress_step@plt>:
    5c40:	jmp    QWORD PTR [rip+0x2275ba]        # 22d200 <xc_report_progress_step>
    5c46:	push   0x3d
    5c4b:	jmp    5860 <.plt>

0000000000005c50 <xc_domain_hvm_getcontext@plt>:
    5c50:	jmp    QWORD PTR [rip+0x2275b2]        # 22d208 <xc_domain_hvm_getcontext>
    5c56:	push   0x3e
    5c5b:	jmp    5860 <.plt>

0000000000005c60 <lseek@plt>:
    5c60:	jmp    QWORD PTR [rip+0x2275aa]        # 22d210 <lseek@GLIBC_2.2.5>
    5c66:	push   0x3f
    5c6b:	jmp    5860 <.plt>

0000000000005c70 <__assert_fail@plt>:
    5c70:	jmp    QWORD PTR [rip+0x2275a2]        # 22d218 <__assert_fail@GLIBC_2.2.5>
    5c76:	push   0x40
    5c7b:	jmp    5860 <.plt>

0000000000005c80 <xenevtchn_pending@plt>:
    5c80:	jmp    QWORD PTR [rip+0x22759a]        # 22d220 <xenevtchn_pending@VERS_1.0>
    5c86:	push   0x41
    5c8b:	jmp    5860 <.plt>

0000000000005c90 <elf_phdr_is_loadable@plt>:
    5c90:	jmp    QWORD PTR [rip+0x227592]        # 22d228 <elf_phdr_is_loadable@@Base+0x21a028>
    5c96:	push   0x42
    5c9b:	jmp    5860 <.plt>

0000000000005ca0 <memset@plt>:
    5ca0:	jmp    QWORD PTR [rip+0x22758a]        # 22d230 <memset@GLIBC_2.2.5>
    5ca6:	push   0x43
    5cab:	jmp    5860 <.plt>

0000000000005cb0 <xc_try_lz4_decode@plt>:
    5cb0:	jmp    QWORD PTR [rip+0x227582]        # 22d238 <xc_try_lz4_decode@@Base+0x212b18>
    5cb6:	push   0x44
    5cbb:	jmp    5860 <.plt>

0000000000005cc0 <strnlen@plt>:
    5cc0:	jmp    QWORD PTR [rip+0x22757a]        # 22d240 <strnlen@GLIBC_2.2.5>
    5cc6:	push   0x45
    5ccb:	jmp    5860 <.plt>

0000000000005cd0 <x86_pv_domain_info@plt>:
    5cd0:	jmp    QWORD PTR [rip+0x227572]        # 22d248 <x86_pv_domain_info@@Base+0x225848>
    5cd6:	push   0x46
    5cdb:	jmp    5860 <.plt>

0000000000005ce0 <xc_dom_pfn_to_ptr_retcount@plt>:
    5ce0:	jmp    QWORD PTR [rip+0x22756a]        # 22d250 <xc_dom_pfn_to_ptr_retcount@@Base+0x216530>
    5ce6:	push   0x47
    5ceb:	jmp    5860 <.plt>

0000000000005cf0 <close@plt>:
    5cf0:	jmp    QWORD PTR [rip+0x227562]        # 22d258 <close@GLIBC_2.2.5>
    5cf6:	push   0x48
    5cfb:	jmp    5860 <.plt>

0000000000005d00 <elf_note_numeric_array@plt>:
    5d00:	jmp    QWORD PTR [rip+0x22755a]        # 22d260 <elf_note_numeric_array@@Base+0x21a180>
    5d06:	push   0x49
    5d0b:	jmp    5860 <.plt>

0000000000005d10 <xc_vcpu_setcontext@plt>:
    5d10:	jmp    QWORD PTR [rip+0x227552]        # 22d268 <xc_vcpu_setcontext>
    5d16:	push   0x4a
    5d1b:	jmp    5860 <.plt>

0000000000005d20 <xc_domain_populate_physmap_exact@plt>:
    5d20:	jmp    QWORD PTR [rip+0x22754a]        # 22d270 <xc_domain_populate_physmap_exact>
    5d26:	push   0x4b
    5d2b:	jmp    5860 <.plt>

0000000000005d30 <dhdr_type_to_str@plt>:
    5d30:	jmp    QWORD PTR [rip+0x227542]        # 22d278 <dhdr_type_to_str@@Base+0x226098>
    5d36:	push   0x4c
    5d3b:	jmp    5860 <.plt>

0000000000005d40 <strtok_r@plt>:
    5d40:	jmp    QWORD PTR [rip+0x22753a]        # 22d280 <strtok_r@GLIBC_2.2.5>
    5d46:	push   0x4d
    5d4b:	jmp    5860 <.plt>

0000000000005d50 <xc_report_error@plt>:
    5d50:	jmp    QWORD PTR [rip+0x227532]        # 22d288 <xc_report_error>
    5d56:	push   0x4e
    5d5b:	jmp    5860 <.plt>

0000000000005d60 <xc_elf_set_logfile@plt>:
    5d60:	jmp    QWORD PTR [rip+0x22752a]        # 22d290 <xc_elf_set_logfile@@Base+0x213b00>
    5d66:	push   0x4f
    5d6b:	jmp    5860 <.plt>

0000000000005d70 <memcmp@plt>:
    5d70:	jmp    QWORD PTR [rip+0x227522]        # 22d298 <memcmp@GLIBC_2.2.5>
    5d76:	push   0x50
    5d7b:	jmp    5860 <.plt>

0000000000005d80 <xc_dom_unmap_one@plt>:
    5d80:	jmp    QWORD PTR [rip+0x22751a]        # 22d2a0 <xc_dom_unmap_one@@Base+0x215ea0>
    5d86:	push   0x51
    5d8b:	jmp    5860 <.plt>

0000000000005d90 <dump_bad_pseudophysmap_entry@plt>:
    5d90:	jmp    QWORD PTR [rip+0x227512]        # 22d2a8 <dump_bad_pseudophysmap_entry@@Base+0x225a28>
    5d96:	push   0x52
    5d9b:	jmp    5860 <.plt>

0000000000005da0 <x86_pv_map_m2p@plt>:
    5da0:	jmp    QWORD PTR [rip+0x22750a]        # 22d2b0 <x86_pv_map_m2p@@Base+0x225780>
    5da6:	push   0x53
    5dab:	jmp    5860 <.plt>

0000000000005db0 <strtoull@plt>:
    5db0:	jmp    QWORD PTR [rip+0x227502]        # 22d2b8 <strtoull@GLIBC_2.2.5>
    5db6:	push   0x54
    5dbb:	jmp    5860 <.plt>

0000000000005dc0 <__asprintf_chk@plt>:
    5dc0:	jmp    QWORD PTR [rip+0x2274fa]        # 22d2c0 <__asprintf_chk@GLIBC_2.8>
    5dc6:	push   0x55
    5dcb:	jmp    5860 <.plt>

0000000000005dd0 <xc_domain_nr_gpfns@plt>:
    5dd0:	jmp    QWORD PTR [rip+0x2274f2]        # 22d2c8 <xc_domain_nr_gpfns>
    5dd6:	push   0x56
    5ddb:	jmp    5860 <.plt>

0000000000005de0 <calloc@plt>:
    5de0:	jmp    QWORD PTR [rip+0x2274ea]        # 22d2d0 <calloc@GLIBC_2.2.5>
    5de6:	push   0x57
    5deb:	jmp    5860 <.plt>

0000000000005df0 <xenevtchn_unbind@plt>:
    5df0:	jmp    QWORD PTR [rip+0x2274e2]        # 22d2d8 <xenevtchn_unbind@VERS_1.0>
    5df6:	push   0x58
    5dfb:	jmp    5860 <.plt>

0000000000005e00 <xc_map_domain_meminfo@plt>:
    5e00:	jmp    QWORD PTR [rip+0x2274da]        # 22d2e0 <xc_map_domain_meminfo>
    5e06:	push   0x59
    5e0b:	jmp    5860 <.plt>

0000000000005e10 <strcmp@plt>:
    5e10:	jmp    QWORD PTR [rip+0x2274d2]        # 22d2e8 <strcmp@GLIBC_2.2.5>
    5e16:	push   0x5a
    5e1b:	jmp    5860 <.plt>

0000000000005e20 <xc_dom_module_file@plt>:
    5e20:	jmp    QWORD PTR [rip+0x2274ca]        # 22d2f0 <xc_dom_module_file@@Base+0x215960>
    5e26:	push   0x5b
    5e2b:	jmp    5860 <.plt>

0000000000005e30 <xencall1@plt>:
    5e30:	jmp    QWORD PTR [rip+0x2274c2]        # 22d2f8 <xencall1>
    5e36:	push   0x5c
    5e3b:	jmp    5860 <.plt>

0000000000005e40 <xenforeignmemory_unmap@plt>:
    5e40:	jmp    QWORD PTR [rip+0x2274ba]        # 22d300 <xenforeignmemory_unmap>
    5e46:	push   0x5d
    5e4b:	jmp    5860 <.plt>

0000000000005e50 <cr3_to_mfn@plt>:
    5e50:	jmp    QWORD PTR [rip+0x2274b2]        # 22d308 <cr3_to_mfn@@Base+0x225988>
    5e56:	push   0x5e
    5e5b:	jmp    5860 <.plt>

0000000000005e60 <gzread@plt>:
    5e60:	jmp    QWORD PTR [rip+0x2274aa]        # 22d310 <gzread>
    5e66:	push   0x5f
    5e6b:	jmp    5860 <.plt>

0000000000005e70 <__memcpy_chk@plt>:
    5e70:	jmp    QWORD PTR [rip+0x2274a2]        # 22d318 <__memcpy_chk@GLIBC_2.3.4>
    5e76:	push   0x60
    5e7b:	jmp    5860 <.plt>

0000000000005e80 <xc_get_pfn_type_batch@plt>:
    5e80:	jmp    QWORD PTR [rip+0x22749a]        # 22d320 <xc_get_pfn_type_batch>
    5e86:	push   0x61
    5e8b:	jmp    5860 <.plt>

0000000000005e90 <elf_call_log_callback@plt>:
    5e90:	jmp    QWORD PTR [rip+0x227492]        # 22d328 <elf_call_log_callback@@Base+0x21a048>
    5e96:	push   0x62
    5e9b:	jmp    5860 <.plt>

0000000000005ea0 <rec_type_to_str@plt>:
    5ea0:	jmp    QWORD PTR [rip+0x22748a]        # 22d330 <rec_type_to_str@@Base+0x226120>
    5ea6:	push   0x63
    5eab:	jmp    5860 <.plt>

0000000000005eb0 <memcpy@plt>:
    5eb0:	jmp    QWORD PTR [rip+0x227482]        # 22d338 <memcpy@GLIBC_2.14>
    5eb6:	push   0x64
    5ebb:	jmp    5860 <.plt>

0000000000005ec0 <xc_dom_mem_init@plt>:
    5ec0:	jmp    QWORD PTR [rip+0x22747a]        # 22d340 <xc_dom_mem_init@@Base+0x2155b0>
    5ec6:	push   0x65
    5ecb:	jmp    5860 <.plt>

0000000000005ed0 <elf_parse_binary@plt>:
    5ed0:	jmp    QWORD PTR [rip+0x227472]        # 22d348 <elf_parse_binary@@Base+0x219a78>
    5ed6:	push   0x66
    5edb:	jmp    5860 <.plt>

0000000000005ee0 <elf_round_up@plt>:
    5ee0:	jmp    QWORD PTR [rip+0x22746a]        # 22d350 <elf_round_up@@Base+0x21a960>
    5ee6:	push   0x67
    5eeb:	jmp    5860 <.plt>

0000000000005ef0 <xc_add_mmu_update@plt>:
    5ef0:	jmp    QWORD PTR [rip+0x227462]        # 22d358 <xc_add_mmu_update>
    5ef6:	push   0x68
    5efb:	jmp    5860 <.plt>

0000000000005f00 <inflateEnd@plt>:
    5f00:	jmp    QWORD PTR [rip+0x22745a]        # 22d360 <inflateEnd>
    5f06:	push   0x69
    5f0b:	jmp    5860 <.plt>

0000000000005f10 <elf_strval@plt>:
    5f10:	jmp    QWORD PTR [rip+0x227452]        # 22d368 <elf_strval@@Base+0x21a758>
    5f16:	push   0x6a
    5f1b:	jmp    5860 <.plt>

0000000000005f20 <xc_dom_boot_domU_map@plt>:
    5f20:	jmp    QWORD PTR [rip+0x22744a]        # 22d370 <xc_dom_boot_domU_map@@Base+0x214840>
    5f26:	push   0x6b
    5f2b:	jmp    5860 <.plt>

0000000000005f30 <xc_alloc_mmu_updates@plt>:
    5f30:	jmp    QWORD PTR [rip+0x227442]        # 22d378 <xc_alloc_mmu_updates>
    5f36:	push   0x6c
    5f3b:	jmp    5860 <.plt>

0000000000005f40 <xc_dom_gnttab_init@plt>:
    5f40:	jmp    QWORD PTR [rip+0x22743a]        # 22d380 <xc_dom_gnttab_init@@Base+0x213f20>
    5f46:	push   0x6d
    5f4b:	jmp    5860 <.plt>

0000000000005f50 <xc_map_foreign_pages@plt>:
    5f50:	jmp    QWORD PTR [rip+0x227432]        # 22d388 <xc_map_foreign_pages>
    5f56:	push   0x6e
    5f5b:	jmp    5860 <.plt>

0000000000005f60 <xc_mmuext_op@plt>:
    5f60:	jmp    QWORD PTR [rip+0x22742a]        # 22d390 <xc_mmuext_op>
    5f66:	push   0x6f
    5f6b:	jmp    5860 <.plt>

0000000000005f70 <xc_dom_boot_mem_init@plt>:
    5f70:	jmp    QWORD PTR [rip+0x227422]        # 22d398 <xc_dom_boot_mem_init@@Base+0x2148d8>
    5f76:	push   0x70
    5f7b:	jmp    5860 <.plt>

0000000000005f80 <elf_sym_by_name@plt>:
    5f80:	jmp    QWORD PTR [rip+0x22741a]        # 22d3a0 <elf_sym_by_name@@Base+0x21a470>
    5f86:	push   0x71
    5f8b:	jmp    5860 <.plt>

0000000000005f90 <lzma_stream_decoder@plt>:
    5f90:	jmp    QWORD PTR [rip+0x227412]        # 22d3a8 <lzma_stream_decoder@XZ_5.0>
    5f96:	push   0x72
    5f9b:	jmp    5860 <.plt>

0000000000005fa0 <handle_tsc_info@plt>:
    5fa0:	jmp    QWORD PTR [rip+0x22740a]        # 22d3b0 <handle_tsc_info@@Base+0x225cc0>
    5fa6:	push   0x73
    5fab:	jmp    5860 <.plt>

0000000000005fb0 <__xstat@plt>:
    5fb0:	jmp    QWORD PTR [rip+0x227402]        # 22d3b8 <__xstat@GLIBC_2.2.5>
    5fb6:	push   0x74
    5fbb:	jmp    5860 <.plt>

0000000000005fc0 <lzma_alone_decoder@plt>:
    5fc0:	jmp    QWORD PTR [rip+0x2273fa]        # 22d3c0 <lzma_alone_decoder@XZ_5.0>
    5fc6:	push   0x75
    5fcb:	jmp    5860 <.plt>

0000000000005fd0 <xc_dom_release@plt>:
    5fd0:	jmp    QWORD PTR [rip+0x2273f2]        # 22d3c8 <xc_dom_release@@Base+0x215d98>
    5fd6:	push   0x76
    5fdb:	jmp    5860 <.plt>

0000000000005fe0 <lzma_end@plt>:
    5fe0:	jmp    QWORD PTR [rip+0x2273ea]        # 22d3d0 <lzma_end@XZ_5.0>
    5fe6:	push   0x77
    5feb:	jmp    5860 <.plt>

0000000000005ff0 <malloc@plt>:
    5ff0:	jmp    QWORD PTR [rip+0x2273e2]        # 22d3d8 <malloc@GLIBC_2.2.5>
    5ff6:	push   0x78
    5ffb:	jmp    5860 <.plt>

0000000000006000 <xtl_createlogger_stdiostream@plt>:
    6000:	jmp    QWORD PTR [rip+0x2273da]        # 22d3e0 <xtl_createlogger_stdiostream>
    6006:	push   0x79
    600b:	jmp    5860 <.plt>

0000000000006010 <xc_domain_set_pod_target@plt>:
    6010:	jmp    QWORD PTR [rip+0x2273d2]        # 22d3e8 <xc_domain_set_pod_target>
    6016:	push   0x7a
    601b:	jmp    5860 <.plt>

0000000000006020 <pin_table@plt>:
    6020:	jmp    QWORD PTR [rip+0x2273ca]        # 22d3f0 <pin_table@@Base+0x226840>
    6026:	push   0x7b
    602b:	jmp    5860 <.plt>

0000000000006030 <write_exact@plt>:
    6030:	jmp    QWORD PTR [rip+0x2273c2]        # 22d3f8 <write_exact>
    6036:	push   0x7c
    603b:	jmp    5860 <.plt>

0000000000006040 <elf_segment_end@plt>:
    6040:	jmp    QWORD PTR [rip+0x2273ba]        # 22d400 <elf_segment_end@@Base+0x21a560>
    6046:	push   0x7d
    604b:	jmp    5860 <.plt>

0000000000006050 <xc_hvm_param_set@plt>:
    6050:	jmp    QWORD PTR [rip+0x2273b2]        # 22d408 <xc_hvm_param_set>
    6056:	push   0x7e
    605b:	jmp    5860 <.plt>

0000000000006060 <__fxstat@plt>:
    6060:	jmp    QWORD PTR [rip+0x2273aa]        # 22d410 <__fxstat@GLIBC_2.2.5>
    6066:	push   0x7f
    606b:	jmp    5860 <.plt>

0000000000006070 <elf_shdr_by_index@plt>:
    6070:	jmp    QWORD PTR [rip+0x2273a2]        # 22d418 <elf_shdr_by_index@@Base+0x21a948>
    6076:	push   0x80
    607b:	jmp    5860 <.plt>

0000000000006080 <elf_strfmt@plt>:
    6080:	jmp    QWORD PTR [rip+0x22739a]        # 22d420 <elf_strfmt@@Base+0x21a6b0>
    6086:	push   0x81
    608b:	jmp    5860 <.plt>

0000000000006090 <do_memory_op@plt>:
    6090:	jmp    QWORD PTR [rip+0x227392]        # 22d428 <do_memory_op>
    6096:	push   0x82
    609b:	jmp    5860 <.plt>

00000000000060a0 <xc_dom_panic_func@plt>:
    60a0:	jmp    QWORD PTR [rip+0x22738a]        # 22d430 <xc_dom_panic_func@@Base+0x2172d0>
    60a6:	push   0x83
    60ab:	jmp    5860 <.plt>

00000000000060b0 <write_tsc_info@plt>:
    60b0:	jmp    QWORD PTR [rip+0x227382]        # 22d438 <write_tsc_info@@Base+0x225e18>
    60b6:	push   0x84
    60bb:	jmp    5860 <.plt>

00000000000060c0 <xc_memalign@plt>:
    60c0:	jmp    QWORD PTR [rip+0x22737a]        # 22d440 <xc_memalign>
    60c6:	push   0x85
    60cb:	jmp    5860 <.plt>

00000000000060d0 <elf_note_next@plt>:
    60d0:	jmp    QWORD PTR [rip+0x227372]        # 22d448 <elf_note_next@@Base+0x21a2e8>
    60d6:	push   0x86
    60db:	jmp    5860 <.plt>

00000000000060e0 <__vsnprintf_chk@plt>:
    60e0:	jmp    QWORD PTR [rip+0x22736a]        # 22d450 <__vsnprintf_chk@GLIBC_2.3.4>
    60e6:	push   0x87
    60eb:	jmp    5860 <.plt>

00000000000060f0 <xc_domain_claim_pages@plt>:
    60f0:	jmp    QWORD PTR [rip+0x227362]        # 22d458 <xc_domain_claim_pages>
    60f6:	push   0x88
    60fb:	jmp    5860 <.plt>

0000000000006100 <xc_gnttab_map_table_v1@plt>:
    6100:	jmp    QWORD PTR [rip+0x22735a]        # 22d460 <xc_gnttab_map_table_v1>
    6106:	push   0x89
    610b:	jmp    5860 <.plt>

0000000000006110 <elf_note_numeric@plt>:
    6110:	jmp    QWORD PTR [rip+0x227352]        # 22d468 <elf_note_numeric@@Base+0x21a3e8>
    6116:	push   0x8a
    611b:	jmp    5860 <.plt>

0000000000006120 <elf_is_elfbinary@plt>:
    6120:	jmp    QWORD PTR [rip+0x22734a]        # 22d470 <elf_is_elfbinary@@Base+0x21a290>
    6126:	push   0x8b
    612b:	jmp    5860 <.plt>

0000000000006130 <elf_segment_start@plt>:
    6130:	jmp    QWORD PTR [rip+0x227342]        # 22d478 <elf_segment_start@@Base+0x21a618>
    6136:	push   0x8c
    613b:	jmp    5860 <.plt>

0000000000006140 <elf_access_unsigned@plt>:
    6140:	jmp    QWORD PTR [rip+0x22733a]        # 22d480 <elf_access_unsigned@@Base+0x21ab40>
    6146:	push   0x8d
    614b:	jmp    5860 <.plt>

0000000000006150 <elf_shdr_by_name@plt>:
    6150:	jmp    QWORD PTR [rip+0x227332]        # 22d488 <elf_shdr_by_name@@Base+0x21a7a8>
    6156:	push   0x8e
    615b:	jmp    5860 <.plt>

0000000000006160 <realloc@plt>:
    6160:	jmp    QWORD PTR [rip+0x22732a]        # 22d490 <realloc@GLIBC_2.2.5>
    6166:	push   0x8f
    616b:	jmp    5860 <.plt>

0000000000006170 <xc_domain_get_guest_width@plt>:
    6170:	jmp    QWORD PTR [rip+0x227322]        # 22d498 <xc_domain_get_guest_width>
    6176:	push   0x90
    617b:	jmp    5860 <.plt>

0000000000006180 <elf_get_ptr@plt>:
    6180:	jmp    QWORD PTR [rip+0x22731a]        # 22d4a0 <elf_get_ptr@@Base+0x219a60>
    6186:	push   0x91
    618b:	jmp    5860 <.plt>

0000000000006190 <xc__hypercall_buffer_free@plt>:
    6190:	jmp    QWORD PTR [rip+0x227312]        # 22d4a8 <xc__hypercall_buffer_free>
    6196:	push   0x92
    619b:	jmp    5860 <.plt>

00000000000061a0 <elf_xen_parse_note@plt>:
    61a0:	jmp    QWORD PTR [rip+0x22730a]        # 22d4b0 <elf_xen_parse_note@@Base+0x218cd0>
    61a6:	push   0x93
    61ab:	jmp    5860 <.plt>

00000000000061b0 <munmap@plt>:
    61b0:	jmp    QWORD PTR [rip+0x227302]        # 22d4b8 <munmap@GLIBC_2.2.5>
    61b6:	push   0x94
    61bb:	jmp    5860 <.plt>

00000000000061c0 <elf_set_log@plt>:
    61c0:	jmp    QWORD PTR [rip+0x2272fa]        # 22d4c0 <elf_set_log@@Base+0x219d90>
    61c6:	push   0x95
    61cb:	jmp    5860 <.plt>

00000000000061d0 <xc_domain_hvm_setcontext@plt>:
    61d0:	jmp    QWORD PTR [rip+0x2272f2]        # 22d4c8 <xc_domain_hvm_setcontext>
    61d6:	push   0x96
    61db:	jmp    5860 <.plt>

00000000000061e0 <xc_dom_gnttab_seed@plt>:
    61e0:	jmp    QWORD PTR [rip+0x2272ea]        # 22d4d0 <xc_dom_gnttab_seed@@Base+0x2143a0>
    61e6:	push   0x97
    61eb:	jmp    5860 <.plt>

00000000000061f0 <xc_flush_mmu_updates@plt>:
    61f0:	jmp    QWORD PTR [rip+0x2272e2]        # 22d4d8 <xc_flush_mmu_updates>
    61f6:	push   0x98
    61fb:	jmp    5860 <.plt>

0000000000006200 <xc_dom_log_memory_footprint@plt>:
    6200:	jmp    QWORD PTR [rip+0x2272da]        # 22d4e0 <xc_dom_log_memory_footprint@@Base+0x2170d0>
    6206:	push   0x99
    620b:	jmp    5860 <.plt>

0000000000006210 <xc__hypercall_bounce_post@plt>:
    6210:	jmp    QWORD PTR [rip+0x2272d2]        # 22d4e8 <xc__hypercall_bounce_post>
    6216:	push   0x9a
    621b:	jmp    5860 <.plt>

0000000000006220 <xc__hypercall_buffer_alloc@plt>:
    6220:	jmp    QWORD PTR [rip+0x2272ca]        # 22d4f0 <xc__hypercall_buffer_alloc>
    6226:	push   0x9b
    622b:	jmp    5860 <.plt>

0000000000006230 <memmove@plt>:
    6230:	jmp    QWORD PTR [rip+0x2272c2]        # 22d4f8 <memmove@GLIBC_2.2.5>
    6236:	push   0x9c
    623b:	jmp    5860 <.plt>

0000000000006240 <xc_dom_unmap_all@plt>:
    6240:	jmp    QWORD PTR [rip+0x2272ba]        # 22d500 <xc_dom_unmap_all@@Base+0x216040>
    6246:	push   0x9d
    624b:	jmp    5860 <.plt>

0000000000006250 <lz4_decompress_unknownoutputsize@plt>:
    6250:	jmp    QWORD PTR [rip+0x2272b2]        # 22d508 <lz4_decompress_unknownoutputsize@@Base+0x213198>
    6256:	push   0x9e
    625b:	jmp    5860 <.plt>

0000000000006260 <elf_memset_safe@plt>:
    6260:	jmp    QWORD PTR [rip+0x2272aa]        # 22d510 <elf_memset_safe@@Base+0x21ac10>
    6266:	push   0x9f
    626b:	jmp    5860 <.plt>

0000000000006270 <xc_dom_check_gzip@plt>:
    6270:	jmp    QWORD PTR [rip+0x2272a2]        # 22d518 <xc_dom_check_gzip@@Base+0x216a58>
    6276:	push   0xa0
    627b:	jmp    5860 <.plt>

0000000000006280 <elf_phdr_count@plt>:
    6280:	jmp    QWORD PTR [rip+0x22729a]        # 22d520 <elf_phdr_count@@Base+0x21aa90>
    6286:	push   0xa1
    628b:	jmp    5860 <.plt>

0000000000006290 <xc_vcpu_getcontext@plt>:
    6290:	jmp    QWORD PTR [rip+0x227292]        # 22d528 <xc_vcpu_getcontext>
    6296:	push   0xa2
    629b:	jmp    5860 <.plt>

00000000000062a0 <xc_domain_set_tsc_info@plt>:
    62a0:	jmp    QWORD PTR [rip+0x22728a]        # 22d530 <xc_domain_set_tsc_info>
    62a6:	push   0xa3
    62ab:	jmp    5860 <.plt>

00000000000062b0 <xc_dom_parse_image@plt>:
    62b0:	jmp    QWORD PTR [rip+0x227282]        # 22d538 <xc_dom_parse_image@@Base+0x215998>
    62b6:	push   0xa4
    62bb:	jmp    5860 <.plt>

00000000000062c0 <open@plt>:
    62c0:	jmp    QWORD PTR [rip+0x22727a]        # 22d540 <open@GLIBC_2.2.5>
    62c6:	push   0xa5
    62cb:	jmp    5860 <.plt>

00000000000062d0 <elf_note_desc@plt>:
    62d0:	jmp    QWORD PTR [rip+0x227272]        # 22d548 <elf_note_desc@@Base+0x21a4e8>
    62d6:	push   0xa6
    62db:	jmp    5860 <.plt>

00000000000062e0 <elf_section_end@plt>:
    62e0:	jmp    QWORD PTR [rip+0x22726a]        # 22d550 <elf_section_end@@Base+0x21a780>
    62e6:	push   0xa7
    62eb:	jmp    5860 <.plt>

00000000000062f0 <xc_machphys_mfn_list@plt>:
    62f0:	jmp    QWORD PTR [rip+0x227262]        # 22d558 <xc_machphys_mfn_list>
    62f6:	push   0xa8
    62fb:	jmp    5860 <.plt>

0000000000006300 <fopen@plt>:
    6300:	jmp    QWORD PTR [rip+0x22725a]        # 22d560 <fopen@GLIBC_2.2.5>
    6306:	push   0xa9
    630b:	jmp    5860 <.plt>

0000000000006310 <inflateInit2_@plt>:
    6310:	jmp    QWORD PTR [rip+0x227252]        # 22d568 <inflateInit2_>
    6316:	push   0xaa
    631b:	jmp    5860 <.plt>

0000000000006320 <xc_dom_pfn_to_ptr@plt>:
    6320:	jmp    QWORD PTR [rip+0x22724a]        # 22d570 <xc_dom_pfn_to_ptr@@Base+0x216590>
    6326:	push   0xab
    632b:	jmp    5860 <.plt>

0000000000006330 <xc__hypercall_buffer_free_pages@plt>:
    6330:	jmp    QWORD PTR [rip+0x227242]        # 22d578 <xc__hypercall_buffer_free_pages>
    6336:	push   0xac
    633b:	jmp    5860 <.plt>

0000000000006340 <xc_dom_compat_check@plt>:
    6340:	jmp    QWORD PTR [rip+0x22723a]        # 22d580 <xc_dom_compat_check@@Base+0x214ce0>
    6346:	push   0xad
    634b:	jmp    5860 <.plt>

0000000000006350 <elf_phdr_by_index@plt>:
    6350:	jmp    QWORD PTR [rip+0x227232]        # 22d588 <elf_phdr_by_index@@Base+0x21aa18>
    6356:	push   0xae
    635b:	jmp    5860 <.plt>

0000000000006360 <elf_set_xdest@plt>:
    6360:	jmp    QWORD PTR [rip+0x22722a]        # 22d590 <elf_set_xdest@@Base+0x21a320>
    6366:	push   0xaf
    636b:	jmp    5860 <.plt>

0000000000006370 <read_exact@plt>:
    6370:	jmp    QWORD PTR [rip+0x227222]        # 22d598 <read_exact>
    6376:	push   0xb0
    637b:	jmp    5860 <.plt>

0000000000006380 <xc_domain_populate_physmap@plt>:
    6380:	jmp    QWORD PTR [rip+0x22721a]        # 22d5a0 <xc_domain_populate_physmap>
    6386:	push   0xb1
    638b:	jmp    5860 <.plt>

0000000000006390 <xc_dom_register_arch_hooks@plt>:
    6390:	jmp    QWORD PTR [rip+0x227212]        # 22d5a8 <xc_dom_register_arch_hooks@@Base+0x216088>
    6396:	push   0xb2
    639b:	jmp    5860 <.plt>

00000000000063a0 <xc_dom_loginit@plt>:
    63a0:	jmp    QWORD PTR [rip+0x22720a]        # 22d5b0 <xc_dom_loginit@@Base+0x217580>
    63a6:	push   0xb3
    63ab:	jmp    5860 <.plt>

00000000000063b0 <xenforeignmemory_map_resource@plt>:
    63b0:	jmp    QWORD PTR [rip+0x227202]        # 22d5b8 <xenforeignmemory_map_resource>
    63b6:	push   0xb4
    63bb:	jmp    5860 <.plt>

00000000000063c0 <xc_dom_alloc_page@plt>:
    63c0:	jmp    QWORD PTR [rip+0x2271fa]        # 22d5c0 <xc_dom_alloc_page@@Base+0x216240>
    63c6:	push   0xb5
    63cb:	jmp    5860 <.plt>

00000000000063d0 <xc__hypercall_buffer_alloc_pages@plt>:
    63d0:	jmp    QWORD PTR [rip+0x2271f2]        # 22d5c8 <xc__hypercall_buffer_alloc_pages>
    63d6:	push   0xb6
    63db:	jmp    5860 <.plt>

00000000000063e0 <xc_dom_kernel_check_size@plt>:
    63e0:	jmp    QWORD PTR [rip+0x2271ea]        # 22d5d0 <xc_dom_kernel_check_size@@Base+0x216b60>
    63e6:	push   0xb7
    63eb:	jmp    5860 <.plt>

00000000000063f0 <xc_dom_boot_xen_init@plt>:
    63f0:	jmp    QWORD PTR [rip+0x2271e2]        # 22d5d8 <xc_dom_boot_xen_init@@Base+0x214bc8>
    63f6:	push   0xb8
    63fb:	jmp    5860 <.plt>

0000000000006400 <xc_dom_kernel_file@plt>:
    6400:	jmp    QWORD PTR [rip+0x2271da]        # 22d5e0 <xc_dom_kernel_file@@Base+0x215cc0>
    6406:	push   0xb9
    640b:	jmp    5860 <.plt>

0000000000006410 <xc_query_page_offline_status@plt>:
    6410:	jmp    QWORD PTR [rip+0x2271d2]        # 22d5e8 <xc_query_page_offline_status@@Base+0x21c6c8>
    6416:	push   0xba
    641b:	jmp    5860 <.plt>

0000000000006420 <xc_maximum_ram_page@plt>:
    6420:	jmp    QWORD PTR [rip+0x2271ca]        # 22d5f0 <xc_maximum_ram_page>
    6426:	push   0xbb
    642b:	jmp    5860 <.plt>

0000000000006430 <xc_dom_try_gunzip@plt>:
    6430:	jmp    QWORD PTR [rip+0x2271c2]        # 22d5f8 <xc_dom_try_gunzip@@Base+0x216978>
    6436:	push   0xbc
    643b:	jmp    5860 <.plt>

0000000000006440 <elf_access_ok@plt>:
    6440:	jmp    QWORD PTR [rip+0x2271ba]        # 22d600 <elf_access_ok@@Base+0x21ae10>
    6446:	push   0xbd
    644b:	jmp    5860 <.plt>

0000000000006450 <mfn_to_pfn@plt>:
    6450:	jmp    QWORD PTR [rip+0x2271b2]        # 22d608 <mfn_to_pfn@@Base+0x225e58>
    6456:	push   0xbe
    645b:	jmp    5860 <.plt>

0000000000006460 <elf_load_binary@plt>:
    6460:	jmp    QWORD PTR [rip+0x2271aa]        # 22d610 <elf_load_binary@@Base+0x2192b0>
    6466:	push   0xbf
    646b:	jmp    5860 <.plt>

0000000000006470 <xc_dom_register_loader@plt>:
    6470:	jmp    QWORD PTR [rip+0x2271a2]        # 22d618 <xc_dom_register_loader@@Base+0x216118>
    6476:	push   0xc0
    647b:	jmp    5860 <.plt>

0000000000006480 <elf_parse_bsdsyms@plt>:
    6480:	jmp    QWORD PTR [rip+0x22719a]        # 22d620 <elf_parse_bsdsyms@@Base+0x219ed0>
    6486:	push   0xc1
    648b:	jmp    5860 <.plt>

0000000000006490 <xc_dom_build_image@plt>:
    6490:	jmp    QWORD PTR [rip+0x227192]        # 22d628 <xc_dom_build_image@@Base+0x2156a8>
    6496:	push   0xc2
    649b:	jmp    5860 <.plt>

00000000000064a0 <mfn_to_cr3@plt>:
    64a0:	jmp    QWORD PTR [rip+0x22718a]        # 22d630 <mfn_to_cr3@@Base+0x225c70>
    64a6:	push   0xc3
    64ab:	jmp    5860 <.plt>

00000000000064b0 <xc_shadow_control@plt>:
    64b0:	jmp    QWORD PTR [rip+0x227182]        # 22d638 <xc_shadow_control>
    64b6:	push   0xc4
    64bb:	jmp    5860 <.plt>

00000000000064c0 <xc_map_m2p@plt>:
    64c0:	jmp    QWORD PTR [rip+0x22717a]        # 22d640 <xc_map_m2p@@Base+0x21c5e0>
    64c6:	push   0xc5
    64cb:	jmp    5860 <.plt>

00000000000064d0 <xc_dom_allocate@plt>:
    64d0:	jmp    QWORD PTR [rip+0x227172]        # 22d648 <xc_dom_allocate@@Base+0x215f68>
    64d6:	push   0xc6
    64db:	jmp    5860 <.plt>

00000000000064e0 <xc_domain_add_to_physmap@plt>:
    64e0:	jmp    QWORD PTR [rip+0x22716a]        # 22d650 <xc_domain_add_to_physmap>
    64e6:	push   0xc7
    64eb:	jmp    5860 <.plt>

00000000000064f0 <elf_section_name@plt>:
    64f0:	jmp    QWORD PTR [rip+0x227162]        # 22d658 <elf_section_name@@Base+0x21a9c8>
    64f6:	push   0xc8
    64fb:	jmp    5860 <.plt>

0000000000006500 <xc_sysctl@plt>:
    6500:	jmp    QWORD PTR [rip+0x22715a]        # 22d660 <xc_sysctl>
    6506:	push   0xc9
    650b:	jmp    5860 <.plt>

0000000000006510 <xc_compression_free_context@plt>:
    6510:	jmp    QWORD PTR [rip+0x227152]        # 22d668 <xc_compression_free_context@@Base+0x21b118>
    6516:	push   0xca
    651b:	jmp    5860 <.plt>

0000000000006520 <strerror@plt>:
    6520:	jmp    QWORD PTR [rip+0x22714a]        # 22d670 <strerror@GLIBC_2.2.5>
    6526:	push   0xcb
    652b:	jmp    5860 <.plt>

0000000000006530 <xc_get_cpu_featureset@plt>:
    6530:	jmp    QWORD PTR [rip+0x227142]        # 22d678 <xc_get_cpu_featureset@@Base+0x20dd88>
    6536:	push   0xcc
    653b:	jmp    5860 <.plt>

0000000000006540 <xc_report@plt>:
    6540:	jmp    QWORD PTR [rip+0x22713a]        # 22d680 <xc_report>
    6546:	push   0xcd
    654b:	jmp    5860 <.plt>

0000000000006550 <xc_hvm_param_get@plt>:
    6550:	jmp    QWORD PTR [rip+0x227132]        # 22d688 <xc_hvm_param_get>
    6556:	push   0xce
    655b:	jmp    5860 <.plt>

0000000000006560 <xc_reportv@plt>:
    6560:	jmp    QWORD PTR [rip+0x22712a]        # 22d690 <xc_reportv>
    6566:	push   0xcf
    656b:	jmp    5860 <.plt>

0000000000006570 <xc_strerror@plt>:
    6570:	jmp    QWORD PTR [rip+0x227122]        # 22d698 <xc_strerror>
    6576:	push   0xd0
    657b:	jmp    5860 <.plt>

0000000000006580 <xc_map_foreign_ranges@plt>:
    6580:	jmp    QWORD PTR [rip+0x22711a]        # 22d6a0 <xc_map_foreign_ranges>
    6586:	push   0xd1
    658b:	jmp    5860 <.plt>

0000000000006590 <xc_map_foreign_range@plt>:
    6590:	jmp    QWORD PTR [rip+0x227112]        # 22d6a8 <xc_map_foreign_range>
    6596:	push   0xd2
    659b:	jmp    5860 <.plt>

00000000000065a0 <xc_suspend_evtchn_release@plt>:
    65a0:	jmp    QWORD PTR [rip+0x22710a]        # 22d6b0 <xc_suspend_evtchn_release@@Base+0x226720>
    65a6:	push   0xd3
    65ab:	jmp    5860 <.plt>

00000000000065b0 <xc_domain_cacheflush@plt>:
    65b0:	jmp    QWORD PTR [rip+0x227102]        # 22d6b8 <xc_domain_cacheflush>
    65b6:	push   0xd4
    65bb:	jmp    5860 <.plt>

00000000000065c0 <strstr@plt>:
    65c0:	jmp    QWORD PTR [rip+0x2270fa]        # 22d6c0 <strstr@GLIBC_2.2.5>
    65c6:	push   0xd5
    65cb:	jmp    5860 <.plt>

00000000000065d0 <xc_dom_malloc_filemap@plt>:
    65d0:	jmp    QWORD PTR [rip+0x2270f2]        # 22d6c8 <xc_dom_malloc_filemap@@Base+0x216f98>
    65d6:	push   0xd6
    65db:	jmp    5860 <.plt>

00000000000065e0 <xc_dom_set_arch_hooks@plt>:
    65e0:	jmp    QWORD PTR [rip+0x2270ea]        # 22d6d0 <xc_dom_set_arch_hooks@@Base+0x216190>
    65e6:	push   0xd7
    65eb:	jmp    5860 <.plt>

00000000000065f0 <elf_section_start@plt>:
    65f0:	jmp    QWORD PTR [rip+0x2270e2]        # 22d6d8 <elf_section_start@@Base+0x21a948>
    65f6:	push   0xd8
    65fb:	jmp    5860 <.plt>

0000000000006600 <xc_domain_get_tsc_info@plt>:
    6600:	jmp    QWORD PTR [rip+0x2270da]        # 22d6e0 <xc_domain_get_tsc_info>
    6606:	push   0xd9
    660b:	jmp    5860 <.plt>

Disassembly of section .plt.got:

0000000000006610 <__cxa_finalize@plt>:
    6610:	jmp    QWORD PTR [rip+0x2269e2]        # 22cff8 <__cxa_finalize@GLIBC_2.2.5>
    6616:	xchg   ax,ax

Disassembly of section .text:

0000000000006620 <xc_dom_p2m>:
    6620:	push   rbp
    6621:	push   rbx
    6622:	mov    rbp,rdi
    6625:	mov    rbx,rsi
    6628:	sub    rsp,0x8
    662c:	call   5af0 <xc_dom_translated@plt>
    6631:	test   al,al
    6633:	jne    6664 <xc_dom_p2m+0x44>
    6635:	mov    rax,QWORD PTR [rbp+0x460]
    663c:	cmp    rbx,rax
    663f:	jb     6660 <xc_dom_p2m+0x40>
    6641:	mov    rdx,QWORD PTR [rbp+0x468]
    6648:	add    rdx,rax
    664b:	cmp    rbx,rdx
    664e:	jae    6660 <xc_dom_p2m+0x40>
    6650:	sub    rbx,rax
    6653:	mov    rax,QWORD PTR [rbp+0x450]
    665a:	mov    rbx,QWORD PTR [rax+rbx*8]
    665e:	jmp    6664 <xc_dom_p2m+0x44>
    6660:	or     rbx,0xffffffffffffffff
    6664:	mov    rax,rbx
    6667:	pop    rdx
    6668:	pop    rbx
    6669:	pop    rbp
    666a:	ret    
    666b:	nop    DWORD PTR [rax+rax*1+0x0]

0000000000006670 <register_loader>:
    6670:	mov    rdi,QWORD PTR [rip+0x226941]        # 22cfb8 <elf_loader@@Base-0x8a8>
    6677:	jmp    6470 <xc_dom_register_loader@plt>
    667c:	nop    DWORD PTR [rax+0x0]

0000000000006680 <register_loader>:
    6680:	lea    rdi,[rip+0x227219]        # 22d8a0 <bzimage_loader>
    6687:	jmp    6470 <xc_dom_register_loader@plt>
    668c:	nop    DWORD PTR [rax+0x0]

0000000000006690 <register_loader>:
    6690:	mov    rdi,QWORD PTR [rip+0x226959]        # 22cff0 <hvm_loader@@Base-0x8f0>
    6697:	jmp    6470 <xc_dom_register_loader@plt>
    669c:	nop    DWORD PTR [rax+0x0]

00000000000066a0 <register_loader>:
    66a0:	lea    rdi,[rip+0x227279]        # 22d920 <bin_loader>
    66a7:	jmp    6470 <xc_dom_register_loader@plt>
    66ac:	nop    DWORD PTR [rax+0x0]

00000000000066b0 <register_arch_hooks>:
    66b0:	lea    rdi,[rip+0x227429]        # 22dae0 <xc_dom_32_pae>
    66b7:	sub    rsp,0x8
    66bb:	call   6390 <xc_dom_register_arch_hooks@plt>
    66c0:	lea    rdi,[rip+0x227399]        # 22da60 <xc_dom_64>
    66c7:	call   6390 <xc_dom_register_arch_hooks@plt>
    66cc:	lea    rdi,[rip+0x22730d]        # 22d9e0 <xc_hvm_32>
    66d3:	add    rsp,0x8
    66d7:	jmp    6390 <xc_dom_register_arch_hooks@plt>
    66dc:	nop    DWORD PTR [rax+0x0]

00000000000066e0 <deregister_tm_clones>:
    66e0:	lea    rdi,[rip+0x227471]        # 22db58 <__TMC_END__>
    66e7:	push   rbp
    66e8:	lea    rax,[rip+0x227469]        # 22db58 <__TMC_END__>
    66ef:	cmp    rax,rdi
    66f2:	mov    rbp,rsp
    66f5:	je     6710 <deregister_tm_clones+0x30>
    66f7:	mov    rax,QWORD PTR [rip+0x2268c2]        # 22cfc0 <_ITM_deregisterTMCloneTable>
    66fe:	test   rax,rax
    6701:	je     6710 <deregister_tm_clones+0x30>
    6703:	pop    rbp
    6704:	jmp    rax
    6706:	nop    WORD PTR cs:[rax+rax*1+0x0]
    6710:	pop    rbp
    6711:	ret    
    6712:	nop    DWORD PTR [rax+0x0]
    6716:	nop    WORD PTR cs:[rax+rax*1+0x0]

0000000000006720 <register_tm_clones>:
    6720:	lea    rdi,[rip+0x227431]        # 22db58 <__TMC_END__>
    6727:	lea    rsi,[rip+0x22742a]        # 22db58 <__TMC_END__>
    672e:	push   rbp
    672f:	sub    rsi,rdi
    6732:	mov    rbp,rsp
    6735:	sar    rsi,0x3
    6739:	mov    rax,rsi
    673c:	shr    rax,0x3f
    6740:	add    rsi,rax
    6743:	sar    rsi,1
    6746:	je     6760 <register_tm_clones+0x40>
    6748:	mov    rax,QWORD PTR [rip+0x226899]        # 22cfe8 <_ITM_registerTMCloneTable>
    674f:	test   rax,rax
    6752:	je     6760 <register_tm_clones+0x40>
    6754:	pop    rbp
    6755:	jmp    rax
    6757:	nop    WORD PTR [rax+rax*1+0x0]
    6760:	pop    rbp
    6761:	ret    
    6762:	nop    DWORD PTR [rax+0x0]
    6766:	nop    WORD PTR cs:[rax+rax*1+0x0]

0000000000006770 <__do_global_dtors_aux>:
    6770:	cmp    BYTE PTR [rip+0x2273e9],0x0        # 22db60 <completed.7697>
    6777:	jne    67a8 <__do_global_dtors_aux+0x38>
    6779:	cmp    QWORD PTR [rip+0x226877],0x0        # 22cff8 <__cxa_finalize@GLIBC_2.2.5>
    6781:	push   rbp
    6782:	mov    rbp,rsp
    6785:	je     6793 <__do_global_dtors_aux+0x23>
    6787:	mov    rdi,QWORD PTR [rip+0x226f72]        # 22d700 <__dso_handle>
    678e:	call   6610 <__cxa_finalize@plt>
    6793:	call   66e0 <deregister_tm_clones>
    6798:	mov    BYTE PTR [rip+0x2273c1],0x1        # 22db60 <completed.7697>
    679f:	pop    rbp
    67a0:	ret    
    67a1:	nop    DWORD PTR [rax+0x0]
    67a8:	repz ret 
    67aa:	nop    WORD PTR [rax+rax*1+0x0]

00000000000067b0 <frame_dummy>:
    67b0:	push   rbp
    67b1:	mov    rbp,rsp
    67b4:	pop    rbp
    67b5:	jmp    6720 <register_tm_clones>
    67ba:	nop    WORD PTR [rax+rax*1+0x0]

00000000000067c0 <xc_read_image>:
    67c0:	push   r15
    67c2:	push   r14
    67c4:	push   r13
    67c6:	push   r12
    67c8:	push   rbp
    67c9:	push   rbx
    67ca:	sub    rsp,0x8
    67ce:	test   rsi,rsi
    67d1:	je     69b0 <xc_read_image+0x1f0>
    67d7:	test   rdx,rdx
    67da:	je     69b0 <xc_read_image+0x1f0>
    67e0:	mov    rbx,rsi
    67e3:	xor    eax,eax
    67e5:	xor    esi,esi
    67e7:	mov    r12,rdi
    67ea:	mov    rdi,rbx
    67ed:	mov    rbp,rdx
    67f0:	call   62c0 <open@plt>
    67f5:	test   eax,eax
    67f7:	mov    r14d,eax
    67fa:	js     6900 <xc_read_image+0x140>
    6800:	lea    rsi,[rip+0x1a6cf]        # 20ed6 <_fini+0x10a>
    6807:	mov    edi,eax
    6809:	call   5ae0 <gzdopen@plt>
    680e:	test   rax,rax
    6811:	mov    r13,rax
    6814:	je     68c0 <xc_read_image+0x100>
    681a:	mov    QWORD PTR [rbp+0x0],0x0
    6822:	xor    ebx,ebx
    6824:	xor    r15d,r15d
    6827:	lea    rsi,[rbx+0x100000]
    682e:	mov    rdi,r15
    6831:	call   6160 <realloc@plt>
    6836:	test   rax,rax
    6839:	mov    r14,rax
    683c:	je     69c0 <xc_read_image+0x200>
    6842:	lea    rsi,[rax+rbx*1]
    6846:	mov    edx,0x100000
    684b:	mov    rdi,r13
    684e:	call   5e60 <gzread@plt>
    6853:	test   eax,eax
    6855:	je     6960 <xc_read_image+0x1a0>
    685b:	cmp    eax,0xffffffff
    685e:	jne    6948 <xc_read_image+0x188>
    6864:	call   5940 <__errno_location@plt>
    6869:	mov    ebp,DWORD PTR [rax]
    686b:	mov    rbx,rax
    686e:	mov    rdi,r12
    6871:	mov    esi,ebp
    6873:	call   6570 <xc_strerror@plt>
    6878:	mov    ecx,DWORD PTR [rbx]
    687a:	lea    rdx,[rip+0x1a607]        # 20e88 <_fini+0xbc>
    6881:	mov    r8,rax
    6884:	mov    esi,0x1
    6889:	mov    rdi,r12
    688c:	xor    eax,eax
    688e:	call   5d50 <xc_report_error@plt>
    6893:	mov    DWORD PTR [rbx],ebp
    6895:	mov    rdi,r14
    6898:	xor    ebx,ebx
    689a:	call   5900 <free@plt>
    689f:	mov    rdi,r13
    68a2:	call   58e0 <gzclose@plt>
    68a7:	add    rsp,0x8
    68ab:	mov    rax,rbx
    68ae:	pop    rbx
    68af:	pop    rbp
    68b0:	pop    r12
    68b2:	pop    r13
    68b4:	pop    r14
    68b6:	pop    r15
    68b8:	ret    
    68b9:	nop    DWORD PTR [rax+0x0]
    68c0:	call   5940 <__errno_location@plt>
    68c5:	mov    ebp,DWORD PTR [rax]
    68c7:	mov    rbx,rax
    68ca:	mov    rdi,r12
    68cd:	mov    esi,ebp
    68cf:	call   6570 <xc_strerror@plt>
    68d4:	mov    ecx,DWORD PTR [rbx]
    68d6:	lea    rdx,[rip+0x1a533]        # 20e10 <_fini+0x44>
    68dd:	mov    r8,rax
    68e0:	mov    esi,0x1
    68e5:	mov    rdi,r12
    68e8:	xor    eax,eax
    68ea:	call   5d50 <xc_report_error@plt>
    68ef:	mov    DWORD PTR [rbx],ebp
    68f1:	mov    edi,r14d
    68f4:	xor    ebx,ebx
    68f6:	call   5cf0 <close@plt>
    68fb:	jmp    68a7 <xc_read_image+0xe7>
    68fd:	nop    DWORD PTR [rax]
    6900:	call   5940 <__errno_location@plt>
    6905:	mov    r13d,DWORD PTR [rax]
    6908:	mov    rbp,rax
    690b:	mov    rdi,r12
    690e:	mov    esi,r13d
    6911:	call   6570 <xc_strerror@plt>
    6916:	mov    r8d,DWORD PTR [rbp+0x0]
    691a:	lea    rdx,[rip+0x1a4bf]        # 20de0 <_fini+0x14>
    6921:	mov    r9,rax
    6924:	mov    rcx,rbx
    6927:	mov    esi,0x1
    692c:	mov    rdi,r12
    692f:	xor    eax,eax
    6931:	xor    ebx,ebx
    6933:	call   5d50 <xc_report_error@plt>
    6938:	mov    DWORD PTR [rbp+0x0],r13d
    693c:	jmp    68a7 <xc_read_image+0xe7>
    6941:	nop    DWORD PTR [rax+0x0]
    6948:	mov    eax,eax
    694a:	add    rax,QWORD PTR [rbp+0x0]
    694e:	mov    r15,r14
    6951:	mov    rbx,rax
    6954:	mov    QWORD PTR [rbp+0x0],rax
    6958:	jmp    6827 <xc_read_image+0x67>
    695d:	nop    DWORD PTR [rax]
    6960:	mov    rsi,QWORD PTR [rbp+0x0]
    6964:	test   rsi,rsi
    6967:	jne    6990 <xc_read_image+0x1d0>
    6969:	call   5940 <__errno_location@plt>
    696e:	mov    ebp,DWORD PTR [rax]
    6970:	mov    rbx,rax
    6973:	mov    rdi,r12
    6976:	mov    esi,ebp
    6978:	call   6570 <xc_strerror@plt>
    697d:	mov    ecx,DWORD PTR [rbx]
    697f:	mov    r8,rax
    6982:	lea    rdx,[rip+0x1a527]        # 20eb0 <_fini+0xe4>
    6989:	jmp    6884 <xc_read_image+0xc4>
    698e:	xchg   ax,ax
    6990:	mov    rdi,r14
    6993:	call   6160 <realloc@plt>
    6998:	mov    rbx,rax
    699b:	test   rax,rax
    699e:	cmove  rbx,r14
    69a2:	jmp    689f <xc_read_image+0xdf>
    69a7:	nop    WORD PTR [rax+rax*1+0x0]
    69b0:	xor    ebx,ebx
    69b2:	jmp    68a7 <xc_read_image+0xe7>
    69b7:	nop    WORD PTR [rax+rax*1+0x0]
    69c0:	call   5940 <__errno_location@plt>
    69c5:	mov    ebp,DWORD PTR [rax]
    69c7:	mov    rbx,rax
    69ca:	mov    rdi,r12
    69cd:	mov    esi,ebp
    69cf:	call   6570 <xc_strerror@plt>
    69d4:	mov    ecx,DWORD PTR [rbx]
    69d6:	lea    rdx,[rip+0x1a473]        # 20e50 <_fini+0x84>
    69dd:	mov    r8,rax
    69e0:	mov    esi,0x1
    69e5:	mov    rdi,r12
    69e8:	xor    eax,eax
    69ea:	call   5d50 <xc_report_error@plt>
    69ef:	mov    DWORD PTR [rbx],ebp
    69f1:	mov    rdi,r15
    69f4:	xor    ebx,ebx
    69f6:	call   5900 <free@plt>
    69fb:	jmp    689f <xc_read_image+0xdf>

0000000000006a00 <xc_inflate_buffer>:
    6a00:	push   r15
    6a02:	push   r14
    6a04:	push   r13
    6a06:	push   r12
    6a08:	push   rbp
    6a09:	push   rbx
    6a0a:	mov    rbx,rcx
    6a0d:	sub    rsp,0x98
    6a14:	mov    rax,QWORD PTR fs:0x28
    6a1d:	mov    QWORD PTR [rsp+0x88],rax
    6a25:	xor    eax,eax
    6a27:	cmp    BYTE PTR [rsi],0x1f
    6a2a:	je     6a60 <xc_inflate_buffer+0x60>
    6a2c:	test   rbx,rbx
    6a2f:	je     6a34 <xc_inflate_buffer+0x34>
    6a31:	mov    QWORD PTR [rbx],rdx
    6a34:	mov    rcx,QWORD PTR [rsp+0x88]
    6a3c:	xor    rcx,QWORD PTR fs:0x28
    6a45:	mov    rax,rsi
    6a48:	jne    6bab <xc_inflate_buffer+0x1ab>
    6a4e:	add    rsp,0x98
    6a55:	pop    rbx
    6a56:	pop    rbp
    6a57:	pop    r12
    6a59:	pop    r13
    6a5b:	pop    r14
    6a5d:	pop    r15
    6a5f:	ret    
    6a60:	cmp    BYTE PTR [rsi+0x1],0x8b
    6a64:	jne    6a2c <xc_inflate_buffer+0x2c>
    6a66:	movzx  r14d,BYTE PTR [rsi+rdx*1-0x1]
    6a6c:	movzx  eax,BYTE PTR [rsi+rdx*1-0x2]
    6a71:	lea    rbp,[rsp+0x10]
    6a76:	mov    r15,rdi
    6a79:	mov    ecx,0xe
    6a7e:	mov    QWORD PTR [rsp+0x8],rdx
    6a83:	mov    rdi,rbp
    6a86:	mov    QWORD PTR [rsp],rsi
    6a8a:	shl    r14d,0x8
    6a8e:	add    r14d,eax
    6a91:	movzx  eax,BYTE PTR [rsi+rdx*1-0x3]
    6a96:	shl    r14d,0x8
    6a9a:	add    r14d,eax
    6a9d:	movzx  eax,BYTE PTR [rsi+rdx*1-0x4]
    6aa2:	shl    r14d,0x8
    6aa6:	add    r14d,eax
    6aa9:	xor    eax,eax
    6aab:	rep stos QWORD PTR es:[rdi],rax
    6aae:	movsxd r13,r14d
    6ab1:	lea    rdi,[r13+0x10]
    6ab5:	call   5ff0 <malloc@plt>
    6aba:	test   rax,rax
    6abd:	mov    r12,rax
    6ac0:	mov    rsi,QWORD PTR [rsp]
    6ac4:	mov    rdx,QWORD PTR [rsp+0x8]
    6ac9:	je     6b82 <xc_inflate_buffer+0x182>
    6acf:	mov    DWORD PTR [rsp+0x18],edx
    6ad3:	lea    rdx,[rip+0x1a417]        # 20ef1 <_fini+0x125>
    6ada:	add    r14d,0x10
    6ade:	mov    QWORD PTR [rsp+0x10],rsi
    6ae3:	mov    ecx,0x70
    6ae8:	mov    esi,0x2f
    6aed:	mov    rdi,rbp
    6af0:	mov    DWORD PTR [rsp+0x30],r14d
    6af5:	mov    QWORD PTR [rsp+0x28],rax
    6afa:	call   6310 <inflateInit2_@plt>
    6aff:	test   eax,eax
    6b01:	mov    r14d,eax
    6b04:	jne    6b38 <xc_inflate_buffer+0x138>
    6b06:	mov    esi,0x4
    6b0b:	mov    rdi,rbp
    6b0e:	call   59f0 <inflate@plt>
    6b13:	mov    rdi,rbp
    6b16:	mov    r14d,eax
    6b19:	call   5f00 <inflateEnd@plt>
    6b1e:	cmp    r14d,0x1
    6b22:	jne    6b6c <xc_inflate_buffer+0x16c>
    6b24:	test   rbx,rbx
    6b27:	mov    rsi,r12
    6b2a:	je     6a34 <xc_inflate_buffer+0x34>
    6b30:	mov    QWORD PTR [rbx],r13
    6b33:	jmp    6a34 <xc_inflate_buffer+0x34>
    6b38:	call   5940 <__errno_location@plt>
    6b3d:	mov    ebp,DWORD PTR [rax]
    6b3f:	lea    rdx,[rip+0x1a3b2]        # 20ef8 <_fini+0x12c>
    6b46:	mov    rbx,rax
    6b49:	mov    ecx,r14d
    6b4c:	mov    esi,0x1
    6b51:	mov    rdi,r15
    6b54:	xor    eax,eax
    6b56:	call   5d50 <xc_report_error@plt>
    6b5b:	mov    DWORD PTR [rbx],ebp
    6b5d:	mov    rdi,r12
    6b60:	call   5900 <free@plt>
    6b65:	xor    esi,esi
    6b67:	jmp    6a34 <xc_inflate_buffer+0x34>
    6b6c:	call   5940 <__errno_location@plt>
    6b71:	mov    ecx,r14d
    6b74:	mov    rbx,rax
    6b77:	mov    ebp,DWORD PTR [rax]
    6b79:	lea    rdx,[rip+0x1a394]        # 20f14 <_fini+0x148>
    6b80:	jmp    6b4c <xc_inflate_buffer+0x14c>
    6b82:	call   5940 <__errno_location@plt>
    6b87:	mov    ebp,DWORD PTR [rax]
    6b89:	lea    rdx,[rip+0x1a349]        # 20ed9 <_fini+0x10d>
    6b90:	mov    rbx,rax
    6b93:	mov    esi,0x1
    6b98:	mov    rdi,r15
    6b9b:	xor    eax,eax
    6b9d:	call   5d50 <xc_report_error@plt>
    6ba2:	mov    DWORD PTR [rbx],ebp
    6ba4:	xor    esi,esi
    6ba6:	jmp    6a34 <xc_inflate_buffer+0x34>
    6bab:	call   5b80 <__stack_chk_fail@plt>

0000000000006bb0 <pin_table>:
    6bb0:	sub    rsp,0x28
    6bb4:	mov    DWORD PTR [rsp],esi
    6bb7:	mov    QWORD PTR [rsp+0x8],rdx
    6bbc:	mov    rsi,rsp
    6bbf:	mov    edx,0x1
    6bc4:	mov    rax,QWORD PTR fs:0x28
    6bcd:	mov    QWORD PTR [rsp+0x18],rax
    6bd2:	xor    eax,eax
    6bd4:	call   5f60 <xc_mmuext_op@plt>
    6bd9:	shr    eax,0x1f
    6bdc:	mov    rdx,QWORD PTR [rsp+0x18]
    6be1:	xor    rdx,QWORD PTR fs:0x28
    6bea:	jne    6bf1 <pin_table+0x41>
    6bec:	add    rsp,0x28
    6bf0:	ret    
    6bf1:	call   5b80 <__stack_chk_fail@plt>
    6bf6:	nop    WORD PTR cs:[rax+rax*1+0x0]

0000000000006c00 <csum_page>:
    6c00:	lea    rdx,[rdi+0x1000]
    6c07:	xor    eax,eax
    6c09:	nop    DWORD PTR [rax+0x0]
    6c10:	add    rax,QWORD PTR [rdi]
    6c13:	add    rdi,0x8
    6c17:	cmp    rdx,rdi
    6c1a:	jne    6c10 <csum_page+0x10>
    6c1c:	mov    rdx,rax
    6c1f:	shr    rdx,0x20
    6c23:	xor    rax,rdx
    6c26:	ret    
    6c27:	nop    WORD PTR [rax+rax*1+0x0]

0000000000006c30 <lock_suspend_event>:
    6c30:	push   r15
    6c32:	push   r14
    6c34:	lea    r8,[rip+0x1a2f5]        # 20f30 <_fini+0x164>
    6c3b:	push   r13
    6c3d:	push   r12
    6c3f:	mov    r9d,esi
    6c42:	push   rbp
    6c43:	push   rbx
    6c44:	mov    r15,rdx
    6c47:	mov    ecx,0x2e
    6c4c:	mov    edx,0x1
    6c51:	mov    esi,0x2e
    6c56:	sub    rsp,0x1a8
    6c5d:	lea    rbp,[rsp+0x160]
    6c65:	mov    QWORD PTR [rsp+0x8],rdi
    6c6a:	lea    r12,[rsp+0x20]
    6c6f:	mov    rax,QWORD PTR fs:0x28
    6c78:	mov    QWORD PTR [rsp+0x198],rax
    6c80:	xor    eax,eax
    6c82:	mov    rdi,rbp
    6c85:	lea    r13,[rsp+0x40]
    6c8a:	lea    r14,[rsp+0xd0]
    6c92:	call   58f0 <__snprintf_chk@plt>
    6c97:	mov    DWORD PTR [r15],0xffffffff
    6c9e:	xor    eax,eax
    6ca0:	mov    edx,0x180
    6ca5:	mov    esi,0x42
    6caa:	mov    rdi,rbp
    6cad:	call   62c0 <open@plt>
    6cb2:	test   eax,eax
    6cb4:	mov    ebx,eax
    6cb6:	js     6e08 <lock_suspend_event+0x1d8>
    6cbc:	mov    edi,eax
    6cbe:	mov    edx,0x1
    6cc3:	xor    eax,eax
    6cc5:	mov    esi,0x2
    6cca:	call   5aa0 <fcntl@plt>
    6ccf:	test   eax,eax
    6cd1:	jne    6e50 <lock_suspend_event+0x220>
    6cd7:	pxor   xmm0,xmm0
    6cdb:	xor    eax,eax
    6cdd:	mov    edx,0x1
    6ce2:	mov    QWORD PTR [r12+0x12],0x0
    6ceb:	mov    WORD PTR [r12+0x1e],ax
    6cf1:	mov    esi,0x6
    6cf6:	mov    WORD PTR [rsp+0x20],dx
    6cfb:	xor    eax,eax
    6cfd:	mov    DWORD PTR [r12+0x1a],0x0
    6d06:	movups XMMWORD PTR [r12+0x2],xmm0
    6d0c:	mov    rdx,r12
    6d0f:	mov    edi,ebx
    6d11:	mov    QWORD PTR [rsp+0x30],0x1
    6d1a:	call   5aa0 <fcntl@plt>
    6d1f:	test   eax,eax
    6d21:	jne    6e90 <lock_suspend_event+0x260>
    6d27:	mov    rdx,r13
    6d2a:	mov    esi,ebx
    6d2c:	mov    edi,0x1
    6d31:	call   6060 <__fxstat@plt>
    6d36:	test   eax,eax
    6d38:	jne    6eb8 <lock_suspend_event+0x288>
    6d3e:	mov    rdx,r14
    6d41:	mov    rsi,rbp
    6d44:	mov    edi,0x1
    6d49:	call   5fb0 <__xstat@plt>
    6d4e:	test   eax,eax
    6d50:	je     6de0 <lock_suspend_event+0x1b0>
    6d56:	call   5940 <__errno_location@plt>
    6d5b:	mov    r9d,DWORD PTR [rax]
    6d5e:	mov    QWORD PTR [rsp+0x10],rax
    6d63:	cmp    r9d,0x2
    6d67:	je     6def <lock_suspend_event+0x1bf>
    6d6d:	mov    edi,r9d
    6d70:	mov    DWORD PTR [rsp+0x1c],r9d
    6d75:	call   6520 <strerror@plt>
    6d7a:	mov    rdi,QWORD PTR [rsp+0x8]
    6d7f:	lea    rdx,[rip+0x1a2ea]        # 21070 <_fini+0x2a4>
    6d86:	mov    r8,rax
    6d89:	mov    rcx,rbp
    6d8c:	mov    esi,0x1
    6d91:	xor    eax,eax
    6d93:	call   5d50 <xc_report_error@plt>
    6d98:	mov    r9d,DWORD PTR [rsp+0x1c]
    6d9d:	mov    r10,QWORD PTR [rsp+0x10]
    6da2:	mov    DWORD PTR [r10],r9d
    6da5:	mov    edi,ebx
    6da7:	call   5cf0 <close@plt>
    6dac:	mov    eax,0xffffffff
    6db1:	mov    rcx,QWORD PTR [rsp+0x198]
    6db9:	xor    rcx,QWORD PTR fs:0x28
    6dc2:	jne    6eda <lock_suspend_event+0x2aa>
    6dc8:	add    rsp,0x1a8
    6dcf:	pop    rbx
    6dd0:	pop    rbp
    6dd1:	pop    r12
    6dd3:	pop    r13
    6dd5:	pop    r14
    6dd7:	pop    r15
    6dd9:	ret    
    6dda:	nop    WORD PTR [rax+rax*1+0x0]
    6de0:	mov    rcx,QWORD PTR [rsp+0xd8]
    6de8:	cmp    QWORD PTR [rsp+0x48],rcx
    6ded:	je     6e00 <lock_suspend_event+0x1d0>
    6def:	mov    edi,ebx
    6df1:	call   5cf0 <close@plt>
    6df6:	jmp    6c9e <lock_suspend_event+0x6e>
    6dfb:	nop    DWORD PTR [rax+rax*1+0x0]
    6e00:	mov    DWORD PTR [r15],ebx
    6e03:	jmp    6db1 <lock_suspend_event+0x181>
    6e05:	nop    DWORD PTR [rax]
    6e08:	call   5940 <__errno_location@plt>
    6e0d:	mov    r12d,DWORD PTR [rax]
    6e10:	mov    rbx,rax
    6e13:	mov    edi,r12d
    6e16:	call   6520 <strerror@plt>
    6e1b:	mov    rdi,QWORD PTR [rsp+0x8]
    6e20:	lea    rdx,[rip+0x1a131]        # 20f58 <_fini+0x18c>
    6e27:	mov    r8,rax
    6e2a:	mov    rcx,rbp
    6e2d:	xor    eax,eax
    6e2f:	mov    esi,0x1
    6e34:	call   5d50 <xc_report_error@plt>
    6e39:	mov    DWORD PTR [rbx],r12d
    6e3c:	mov    eax,0xffffffff
    6e41:	jmp    6db1 <lock_suspend_event+0x181>
    6e46:	nop    WORD PTR cs:[rax+rax*1+0x0]
    6e50:	call   5940 <__errno_location@plt>
    6e55:	mov    r13d,DWORD PTR [rax]
    6e58:	mov    r12,rax
    6e5b:	mov    edi,r13d
    6e5e:	call   6520 <strerror@plt>
    6e63:	lea    rdx,[rip+0x1a12e]        # 20f98 <_fini+0x1cc>
    6e6a:	mov    r8,rax
    6e6d:	mov    rcx,rbp
    6e70:	mov    rdi,QWORD PTR [rsp+0x8]
    6e75:	mov    esi,0x1
    6e7a:	xor    eax,eax
    6e7c:	call   5d50 <xc_report_error@plt>
    6e81:	mov    DWORD PTR [r12],r13d
    6e85:	jmp    6da5 <lock_suspend_event+0x175>
    6e8a:	nop    WORD PTR [rax+rax*1+0x0]
    6e90:	call   5940 <__errno_location@plt>
    6e95:	mov    r13d,DWORD PTR [rax]
    6e98:	mov    r12,rax
    6e9b:	mov    edi,r13d
    6e9e:	call   6520 <strerror@plt>
    6ea3:	mov    rcx,rbp
    6ea6:	mov    r8,rax
    6ea9:	lea    rdx,[rip+0x1a138]        # 20fe8 <_fini+0x21c>
    6eb0:	jmp    6e70 <lock_suspend_event+0x240>
    6eb2:	nop    WORD PTR [rax+rax*1+0x0]
    6eb8:	call   5940 <__errno_location@plt>
    6ebd:	mov    r13d,DWORD PTR [rax]
    6ec0:	mov    r12,rax
    6ec3:	mov    edi,r13d
    6ec6:	call   6520 <strerror@plt>
    6ecb:	mov    rcx,rbp
    6ece:	mov    r8,rax
    6ed1:	lea    rdx,[rip+0x1a158]        # 21030 <_fini+0x264>
    6ed8:	jmp    6e70 <lock_suspend_event+0x240>
    6eda:	call   5b80 <__stack_chk_fail@plt>
    6edf:	nop

0000000000006ee0 <xc_await_suspend>:
    6ee0:	push   r14
    6ee2:	push   r13
    6ee4:	mov    r13,rdi
    6ee7:	push   r12
    6ee9:	mov    r12d,edx
    6eec:	push   rbp
    6eed:	mov    rbp,rsi
    6ef0:	push   rbx
    6ef1:	jmp    6efd <xc_await_suspend+0x1d>
    6ef3:	nop    DWORD PTR [rax+rax*1+0x0]
    6ef8:	cmp    eax,r12d
    6efb:	je     6f48 <xc_await_suspend+0x68>
    6efd:	mov    rdi,rbp
    6f00:	call   5c80 <xenevtchn_pending@plt>
    6f05:	test   eax,eax
    6f07:	mov    ebx,eax
    6f09:	jns    6ef8 <xc_await_suspend+0x18>
    6f0b:	call   5940 <__errno_location@plt>
    6f10:	mov    r12d,DWORD PTR [rax]
    6f13:	lea    rdx,[rip+0x1a196]        # 210b0 <_fini+0x2e4>
    6f1a:	mov    rbp,rax
    6f1d:	mov    ecx,ebx
    6f1f:	mov    esi,0x1
    6f24:	mov    rdi,r13
    6f27:	xor    eax,eax
    6f29:	mov    ebx,0xffffffff
    6f2e:	call   5d50 <xc_report_error@plt>
    6f33:	mov    DWORD PTR [rbp+0x0],r12d
    6f37:	mov    eax,ebx
    6f39:	pop    rbx
    6f3a:	pop    rbp
    6f3b:	pop    r12
    6f3d:	pop    r13
    6f3f:	pop    r14
    6f41:	ret    
    6f42:	nop    WORD PTR [rax+rax*1+0x0]
    6f48:	mov    esi,r12d
    6f4b:	mov    rdi,rbp
    6f4e:	xor    ebx,ebx
    6f50:	call   5c20 <xenevtchn_unmask@plt>
    6f55:	test   eax,eax
    6f57:	jns    6f37 <xc_await_suspend+0x57>
    6f59:	call   5940 <__errno_location@plt>
    6f5e:	mov    r14d,DWORD PTR [rax]
    6f61:	lea    rdx,[rip+0x1a178]        # 210e0 <_fini+0x314>
    6f68:	mov    rbp,rax
    6f6b:	mov    ecx,r12d
    6f6e:	mov    rdi,r13
    6f71:	xor    eax,eax
    6f73:	mov    esi,0x1
    6f78:	call   5d50 <xc_report_error@plt>
    6f7d:	mov    DWORD PTR [rbp+0x0],r14d
    6f81:	mov    eax,ebx
    6f83:	pop    rbx
    6f84:	pop    rbp
    6f85:	pop    r12
    6f87:	pop    r13
    6f89:	pop    r14
    6f8b:	ret    
    6f8c:	nop    DWORD PTR [rax+0x0]

0000000000006f90 <xc_suspend_evtchn_release>:
    6f90:	push   r14
    6f92:	push   r13
    6f94:	mov    r13,rdi
    6f97:	push   r12
    6f99:	push   rbp
    6f9a:	mov    r12d,edx
    6f9d:	push   rbx
    6f9e:	mov    rbx,r8
    6fa1:	sub    rsp,0x40
    6fa5:	mov    rax,QWORD PTR fs:0x28
    6fae:	mov    QWORD PTR [rsp+0x38],rax
    6fb3:	xor    eax,eax
    6fb5:	test   ecx,ecx
    6fb7:	js     6fc3 <xc_suspend_evtchn_release+0x33>
    6fb9:	mov    rdi,rsi
    6fbc:	mov    esi,ecx
    6fbe:	call   5df0 <xenevtchn_unbind@plt>
    6fc3:	mov    edx,DWORD PTR [rbx]
    6fc5:	xor    eax,eax
    6fc7:	test   edx,edx
    6fc9:	js     703e <xc_suspend_evtchn_release+0xae>
    6fcb:	mov    rbp,rsp
    6fce:	lea    r8,[rip+0x19f5b]        # 20f30 <_fini+0x164>
    6fd5:	mov    r9d,r12d
    6fd8:	mov    ecx,0x2e
    6fdd:	mov    edx,0x1
    6fe2:	mov    esi,0x2e
    6fe7:	mov    rdi,rbp
    6fea:	call   58f0 <__snprintf_chk@plt>
    6fef:	mov    rdi,rbp
    6ff2:	call   5960 <unlink@plt>
    6ff7:	test   eax,eax
    6ff9:	je     7060 <xc_suspend_evtchn_release+0xd0>
    6ffb:	call   5940 <__errno_location@plt>
    7000:	mov    r14d,DWORD PTR [rax]
    7003:	mov    r12,rax
    7006:	mov    edi,r14d
    7009:	call   6520 <strerror@plt>
    700e:	lea    rdx,[rip+0x1a103]        # 21118 <_fini+0x34c>
    7015:	mov    r8,rax
    7018:	mov    rcx,rbp
    701b:	mov    rdi,r13
    701e:	xor    eax,eax
    7020:	mov    esi,0x1
    7025:	call   5d50 <xc_report_error@plt>
    702a:	mov    DWORD PTR [r12],r14d
    702e:	mov    edi,DWORD PTR [rbx]
    7030:	test   edi,edi
    7032:	js     7039 <xc_suspend_evtchn_release+0xa9>
    7034:	call   5cf0 <close@plt>
    7039:	mov    eax,0xffffffff
    703e:	mov    rdx,QWORD PTR [rsp+0x38]
    7043:	xor    rdx,QWORD PTR fs:0x28
    704c:	jne    7093 <xc_suspend_evtchn_release+0x103>
    704e:	add    rsp,0x40
    7052:	pop    rbx
    7053:	pop    rbp
    7054:	pop    r12
    7056:	pop    r13
    7058:	pop    r14
    705a:	ret    
    705b:	nop    DWORD PTR [rax+rax*1+0x0]
    7060:	mov    edi,DWORD PTR [rbx]
    7062:	call   5cf0 <close@plt>
    7067:	test   eax,eax
    7069:	mov    DWORD PTR [rbx],0xffffffff
    706f:	je     7039 <xc_suspend_evtchn_release+0xa9>
    7071:	call   5940 <__errno_location@plt>
    7076:	mov    r14d,DWORD PTR [rax]
    7079:	mov    r12,rax
    707c:	mov    edi,r14d
    707f:	call   6520 <strerror@plt>
    7084:	mov    rcx,rbp
    7087:	mov    r8,rax
    708a:	lea    rdx,[rip+0x1a0c7]        # 21158 <_fini+0x38c>
    7091:	jmp    701b <xc_suspend_evtchn_release+0x8b>
    7093:	call   5b80 <__stack_chk_fail@plt>
    7098:	nop    DWORD PTR [rax+rax*1+0x0]

00000000000070a0 <xc_suspend_evtchn_init_sane>:
    70a0:	push   r15
    70a2:	push   r14
    70a4:	mov    r15,rsi
    70a7:	push   r13
    70a9:	push   r12
    70ab:	mov    r13d,ecx
    70ae:	push   rbp
    70af:	push   rbx
    70b0:	mov    ebx,edx
    70b2:	mov    esi,ebx
    70b4:	mov    rdx,r8
    70b7:	mov    r12,rdi
    70ba:	sub    rsp,0x18
    70be:	mov    r14,r8
    70c1:	call   6c30 <lock_suspend_event>
    70c6:	test   eax,eax
    70c8:	jne    7108 <xc_suspend_evtchn_init_sane+0x68>
    70ca:	mov    edx,r13d
    70cd:	mov    esi,ebx
    70cf:	mov    rdi,r15
    70d2:	call   5b90 <xenevtchn_bind_interdomain@plt>
    70d7:	test   eax,eax
    70d9:	mov    ebp,eax
    70db:	js     7138 <xc_suspend_evtchn_init_sane+0x98>
    70dd:	mov    edx,r13d
    70e0:	mov    esi,ebx
    70e2:	mov    rdi,r12
    70e5:	call   5c30 <xc_domain_subscribe_for_suspend@plt>
    70ea:	test   eax,eax
    70ec:	mov    r13d,eax
    70ef:	js     716b <xc_suspend_evtchn_init_sane+0xcb>
    70f1:	add    rsp,0x18
    70f5:	mov    eax,ebp
    70f7:	pop    rbx
    70f8:	pop    rbp
    70f9:	pop    r12
    70fb:	pop    r13
    70fd:	pop    r14
    70ff:	pop    r15
    7101:	ret    
    7102:	nop    WORD PTR [rax+rax*1+0x0]
    7108:	call   5940 <__errno_location@plt>
    710d:	mov    ebp,0xffffffff
    7112:	mov    DWORD PTR [rax],0x16
    7118:	mov    ecx,ebp
    711a:	mov    r8,r14
    711d:	mov    edx,ebx
    711f:	mov    rsi,r15
    7122:	mov    rdi,r12
    7125:	mov    ebp,0xffffffff
    712a:	call   65a0 <xc_suspend_evtchn_release@plt>
    712f:	jmp    70f1 <xc_suspend_evtchn_init_sane+0x51>
    7131:	nop    DWORD PTR [rax+0x0]
    7138:	call   5940 <__errno_location@plt>
    713d:	mov    r8d,DWORD PTR [rax]
    7140:	lea    rdx,[rip+0x1a051]        # 21198 <_fini+0x3cc>
    7147:	mov    r13,rax
    714a:	mov    ecx,ebp
    714c:	mov    esi,0x1
    7151:	mov    rdi,r12
    7154:	xor    eax,eax
    7156:	mov    DWORD PTR [rsp+0x4],r8d
    715b:	call   5d50 <xc_report_error@plt>
    7160:	mov    r8d,DWORD PTR [rsp+0x4]
    7165:	mov    DWORD PTR [r13+0x0],r8d
    7169:	jmp    7118 <xc_suspend_evtchn_init_sane+0x78>
    716b:	call   5940 <__errno_location@plt>
    7170:	mov    r9d,DWORD PTR [rax]
    7173:	lea    rdx,[rip+0x1a04e]        # 211c8 <_fini+0x3fc>
    717a:	mov    QWORD PTR [rsp+0x8],rax
    717f:	mov    ecx,r13d
    7182:	mov    esi,0x1
    7187:	mov    rdi,r12
    718a:	xor    eax,eax
    718c:	mov    DWORD PTR [rsp+0x4],r9d
    7191:	call   5d50 <xc_report_error@plt>
    7196:	mov    r9d,DWORD PTR [rsp+0x4]
    719b:	mov    r8,QWORD PTR [rsp+0x8]
    71a0:	mov    DWORD PTR [r8],r9d
    71a3:	jmp    7118 <xc_suspend_evtchn_init_sane+0x78>
    71a8:	nop    DWORD PTR [rax+rax*1+0x0]

00000000000071b0 <xc_suspend_evtchn_init_exclusive>:
    71b0:	push   r12
    71b2:	push   rbp
    71b3:	mov    r12,rsi
    71b6:	push   rbx
    71b7:	mov    rbp,rdi
    71ba:	call   58c0 <xc_suspend_evtchn_init_sane@plt>
    71bf:	test   eax,eax
    71c1:	mov    ebx,eax
    71c3:	js     71d2 <xc_suspend_evtchn_init_exclusive+0x22>
    71c5:	mov    edx,eax
    71c7:	mov    rsi,r12
    71ca:	mov    rdi,rbp
    71cd:	call   58b0 <xc_await_suspend@plt>
    71d2:	mov    eax,ebx
    71d4:	pop    rbx
    71d5:	pop    rbp
    71d6:	pop    r12
    71d8:	ret    
    71d9:	nop    DWORD PTR [rax+0x0]

00000000000071e0 <dhdr_type_to_str>:
    71e0:	cmp    edi,0x4
    71e3:	lea    rax,[rip+0x1a000]        # 211ea <_fini+0x41e>
    71ea:	ja     7207 <dhdr_type_to_str+0x27>
    71ec:	lea    rax,[rip+0x2259cd]        # 22cbc0 <dhdr_types>
    71f3:	mov    edi,edi
    71f5:	lea    rdx,[rip+0x19fee]        # 211ea <_fini+0x41e>
    71fc:	mov    rax,QWORD PTR [rax+rdi*8]
    7200:	test   rax,rax
    7203:	cmove  rax,rdx
    7207:	repz ret 
    7209:	nop    DWORD PTR [rax+0x0]

0000000000007210 <rec_type_to_str>:
    7210:	cmp    edi,0xf
    7213:	lea    rax,[rip+0x19fd0]        # 211ea <_fini+0x41e>
    721a:	jbe    7220 <rec_type_to_str+0x10>
    721c:	repz ret 
    721e:	xchg   ax,ax
    7220:	lea    rax,[rip+0x225919]        # 22cb40 <mandatory_rec_types>
    7227:	mov    edi,edi
    7229:	lea    rdx,[rip+0x19fba]        # 211ea <_fini+0x41e>
    7230:	mov    rax,QWORD PTR [rax+rdi*8]
    7234:	test   rax,rax
    7237:	cmove  rax,rdx
    723b:	ret    
    723c:	nop    DWORD PTR [rax+0x0]

0000000000007240 <write_split_record>:
    7240:	push   r13
    7242:	push   r12
    7244:	push   rbp
    7245:	push   rbx
    7246:	sub    rsp,0x88
    724d:	mov    r11d,DWORD PTR [rsi+0x4]
    7251:	mov    rbp,QWORD PTR [rdi]
    7254:	mov    rax,QWORD PTR fs:0x28
    725d:	mov    QWORD PTR [rsp+0x78],rax
    7262:	xor    eax,eax
    7264:	lea    r9,[rsp+0x1c]
    7269:	mov    QWORD PTR [rsp+0x20],rsi
    726e:	mov    QWORD PTR [rsp+0x28],0x4
    7277:	mov    QWORD PTR [rsp+0x38],0x4
    7280:	mov    QWORD PTR [rsp+0x50],rdx
    7285:	lea    eax,[r11+rcx*1]
    7289:	mov    QWORD PTR [rsp+0x30],r9
    728e:	mov    r9,QWORD PTR [rsi+0x8]
    7292:	mov    r8,r11
    7295:	mov    QWORD PTR [rsp+0x48],r11
    729a:	lea    r11,[rip+0x1a1e2]        # 21483 <zeroes.12794>
    72a1:	lea    rbx,[rax+0x7]
    72a5:	mov    DWORD PTR [rsp+0x1c],eax
    72a9:	mov    QWORD PTR [rsp+0x58],rcx
    72ae:	mov    QWORD PTR [rsp+0x40],r9
    72b3:	mov    QWORD PTR [rsp+0x60],r11
    72b8:	and    rbx,0xfffffffffffffff8
    72bc:	mov    r10,rbx
    72bf:	sub    r10,rax
    72c2:	cmp    rbx,0x8000000
    72c9:	mov    QWORD PTR [rsp+0x68],r10
    72ce:	ja     7368 <write_split_record+0x128>
    72d4:	test   r8d,r8d
    72d7:	je     72de <write_split_record+0x9e>
    72d9:	test   r9,r9
    72dc:	je     7343 <write_split_record+0x103>
    72de:	test   rcx,rcx
    72e1:	je     72e8 <write_split_record+0xa8>
    72e3:	test   rdx,rdx
    72e6:	je     7324 <write_split_record+0xe4>
    72e8:	mov    edi,DWORD PTR [rdi+0xc]
    72eb:	lea    rsi,[rsp+0x20]
    72f0:	mov    edx,0x5
    72f5:	call   5880 <writev_exact@plt>
    72fa:	test   eax,eax
    72fc:	jne    73c0 <write_split_record+0x180>
    7302:	mov    rdx,QWORD PTR [rsp+0x78]
    7307:	xor    rdx,QWORD PTR fs:0x28
    7310:	jne    73fe <write_split_record+0x1be>
    7316:	add    rsp,0x88
    731d:	pop    rbx
    731e:	pop    rbp
    731f:	pop    r12
    7321:	pop    r13
    7323:	ret    
    7324:	lea    rcx,[rip+0x1a145]        # 21470 <__PRETTY_FUNCTION__.12800>
    732b:	lea    rsi,[rip+0x19ec1]        # 211f3 <_fini+0x427>
    7332:	lea    rdi,[rip+0x19ed3]        # 2120c <_fini+0x440>
    7339:	mov    edx,0x52
    733e:	call   5c70 <__assert_fail@plt>
    7343:	lea    rcx,[rip+0x1a126]        # 21470 <__PRETTY_FUNCTION__.12800>
    734a:	lea    rsi,[rip+0x19ea2]        # 211f3 <_fini+0x427>
    7351:	lea    rdi,[rip+0x19eaa]        # 21202 <_fini+0x436>
    7358:	mov    edx,0x50
    735d:	call   5c70 <__assert_fail@plt>
    7362:	nop    WORD PTR [rax+rax*1+0x0]
    7368:	mov    QWORD PTR [rsp+0x8],rsi
    736d:	call   5940 <__errno_location@plt>
    7372:	mov    rsi,QWORD PTR [rsp+0x8]
    7377:	mov    r12,rax
    737a:	mov    r13d,DWORD PTR [rax]
    737d:	mov    edi,DWORD PTR [rsi]
    737f:	call   5ea0 <rec_type_to_str@plt>
    7384:	sub    rsp,0x8
    7388:	lea    rdx,[rip+0x19f79]        # 21308 <_fini+0x53c>
    738f:	mov    r8,rax
    7392:	push   0x8000000
    7397:	mov    rsi,QWORD PTR [rsp+0x18]
    739c:	xor    eax,eax
    739e:	mov    r9,rbx
    73a1:	mov    rdi,rbp
    73a4:	mov    ecx,DWORD PTR [rsi]
    73a6:	mov    esi,0x1
    73ab:	call   5d50 <xc_report_error@plt>
    73b0:	mov    DWORD PTR [r12],r13d
    73b4:	pop    rax
    73b5:	mov    eax,0xffffffff
    73ba:	pop    rdx
    73bb:	jmp    7302 <write_split_record+0xc2>
    73c0:	call   5940 <__errno_location@plt>
    73c5:	mov    r12d,DWORD PTR [rax]
    73c8:	mov    rbx,rax
    73cb:	mov    rdi,rbp
    73ce:	mov    esi,r12d
    73d1:	call   6570 <xc_strerror@plt>
    73d6:	mov    ecx,DWORD PTR [rbx]
    73d8:	lea    rdx,[rip+0x19f61]        # 21340 <_fini+0x574>
    73df:	mov    r8,rax
    73e2:	mov    esi,0x1
    73e7:	xor    eax,eax
    73e9:	mov    rdi,rbp
    73ec:	call   5d50 <xc_report_error@plt>
    73f1:	mov    DWORD PTR [rbx],r12d
    73f4:	mov    eax,0xffffffff
    73f9:	jmp    7302 <write_split_record+0xc2>
    73fe:	call   5b80 <__stack_chk_fail@plt>
    7403:	nop    DWORD PTR [rax]
    7406:	nop    WORD PTR cs:[rax+rax*1+0x0]

0000000000007410 <read_record>:
    7410:	push   r15
    7412:	push   r14
    7414:	mov    r14,rdx
    7417:	push   r13
    7419:	push   r12
    741b:	mov    r12d,esi
    741e:	push   rbp
    741f:	push   rbx
    7420:	mov    edx,0x8
    7425:	sub    rsp,0x18
    7429:	mov    r13,QWORD PTR [rdi]
    742c:	mov    edi,r12d
    742f:	mov    rsi,rsp
    7432:	mov    rax,QWORD PTR fs:0x28
    743b:	mov    QWORD PTR [rsp+0x8],rax
    7440:	xor    eax,eax
    7442:	call   6370 <read_exact@plt>
    7447:	test   eax,eax
    7449:	jne    74e1 <read_record+0xd1>
    744f:	mov    ebp,DWORD PTR [rsp+0x4]
    7453:	cmp    ebp,0x8000000
    7459:	ja     751d <read_record+0x10d>
    745f:	mov    ecx,ebp
    7461:	mov    r15d,eax
    7464:	add    rcx,0x7
    7468:	mov    rbx,rcx
    746b:	and    rbx,0xfffffffffffffff8
    746f:	jne    74b0 <read_record+0xa0>
    7471:	mov    QWORD PTR [r14+0x8],0x0
    7479:	mov    eax,DWORD PTR [rsp]
    747c:	mov    DWORD PTR [r14+0x4],ebp
    7480:	mov    DWORD PTR [r14],eax
    7483:	mov    rdx,QWORD PTR [rsp+0x8]
    7488:	xor    rdx,QWORD PTR fs:0x28
    7491:	mov    eax,r15d
    7494:	jne    7617 <read_record+0x207>
    749a:	add    rsp,0x18
    749e:	pop    rbx
    749f:	pop    rbp
    74a0:	pop    r12
    74a2:	pop    r13
    74a4:	pop    r14
    74a6:	pop    r15
    74a8:	ret    
    74a9:	nop    DWORD PTR [rax+0x0]
    74b0:	mov    rdi,rbx
    74b3:	call   5ff0 <malloc@plt>
    74b8:	test   rax,rax
    74bb:	mov    QWORD PTR [r14+0x8],rax
    74bf:	je     75d5 <read_record+0x1c5>
    74c5:	mov    rdx,rbx
    74c8:	mov    rsi,rax
    74cb:	mov    edi,r12d
    74ce:	call   6370 <read_exact@plt>
    74d3:	test   eax,eax
    74d5:	jne    7569 <read_record+0x159>
    74db:	mov    ebp,DWORD PTR [rsp+0x4]
    74df:	jmp    7479 <read_record+0x69>
    74e1:	call   5940 <__errno_location@plt>
    74e6:	mov    ebp,DWORD PTR [rax]
    74e8:	mov    rbx,rax
    74eb:	mov    rdi,r13
    74ee:	mov    r15d,0xffffffff
    74f4:	mov    esi,ebp
    74f6:	call   6570 <xc_strerror@plt>
    74fb:	mov    ecx,DWORD PTR [rbx]
    74fd:	lea    rdx,[rip+0x19e6c]        # 21370 <_fini+0x5a4>
    7504:	mov    r8,rax
    7507:	mov    esi,0x1
    750c:	mov    rdi,r13
    750f:	xor    eax,eax
    7511:	call   5d50 <xc_report_error@plt>
    7516:	mov    DWORD PTR [rbx],ebp
    7518:	jmp    7483 <read_record+0x73>
    751d:	call   5940 <__errno_location@plt>
    7522:	mov    edi,DWORD PTR [rsp]
    7525:	mov    rbx,rax
    7528:	mov    r12d,DWORD PTR [rax]
    752b:	mov    r15d,0xffffffff
    7531:	call   5ea0 <rec_type_to_str@plt>
    7536:	sub    rsp,0x8
    753a:	lea    rdx,[rip+0x19e67]        # 213a8 <_fini+0x5dc>
    7541:	mov    r8,rax
    7544:	push   0x8000000
    7549:	mov    ecx,DWORD PTR [rsp+0x10]
    754d:	mov    esi,0x1
    7552:	mov    r9d,ebp
    7555:	mov    rdi,r13
    7558:	xor    eax,eax
    755a:	call   5d50 <xc_report_error@plt>
    755f:	mov    DWORD PTR [rbx],r12d
    7562:	pop    rcx
    7563:	pop    rsi
    7564:	jmp    7483 <read_record+0x73>
    7569:	mov    rdi,QWORD PTR [r14+0x8]
    756d:	call   5900 <free@plt>
    7572:	mov    QWORD PTR [r14+0x8],0x0
    757a:	call   5940 <__errno_location@plt>
    757f:	mov    r12d,DWORD PTR [rax]
    7582:	mov    rbp,rax
    7585:	mov    rdi,r13
    7588:	mov    esi,r12d
    758b:	call   6570 <xc_strerror@plt>
    7590:	mov    edi,DWORD PTR [rsp]
    7593:	mov    r14d,DWORD PTR [rbp+0x0]
    7597:	mov    r15,rax
    759a:	call   5ea0 <rec_type_to_str@plt>
    759f:	push   r15
    75a1:	push   r14
    75a3:	lea    rdx,[rip+0x19e76]        # 21420 <_fini+0x654>
    75aa:	mov    r8d,DWORD PTR [rsp+0x10]
    75af:	mov    r9,rax
    75b2:	mov    rcx,rbx
    75b5:	xor    eax,eax
    75b7:	mov    esi,0x1
    75bc:	mov    rdi,r13
    75bf:	mov    r15d,0xffffffff
    75c5:	call   5d50 <xc_report_error@plt>
    75ca:	mov    DWORD PTR [rbp+0x0],r12d
    75ce:	pop    rax
    75cf:	pop    rdx
    75d0:	jmp    7483 <read_record+0x73>
    75d5:	call   5940 <__errno_location@plt>
    75da:	mov    edi,DWORD PTR [rsp]
    75dd:	mov    rbp,rax
    75e0:	mov    r12d,DWORD PTR [rax]
    75e3:	mov    r15d,0xffffffff
    75e9:	call   5ea0 <rec_type_to_str@plt>
    75ee:	mov    r8d,DWORD PTR [rsp]
    75f2:	lea    rdx,[rip+0x19de7]        # 213e0 <_fini+0x614>
    75f9:	mov    r9,rax
    75fc:	mov    rcx,rbx
    75ff:	mov    esi,0x1
    7604:	mov    rdi,r13
    7607:	xor    eax,eax
    7609:	call   5d50 <xc_report_error@plt>
    760e:	mov    DWORD PTR [rbp+0x0],r12d
    7612:	jmp    7483 <read_record+0x73>
    7617:	call   5b80 <__stack_chk_fail@plt>
    761c:	nop    DWORD PTR [rax+0x0]

0000000000007620 <write_tsc_info>:
    7620:	push   r12
    7622:	push   rbp
    7623:	push   rbx
    7624:	pxor   xmm0,xmm0
    7628:	mov    rbx,rdi
    762b:	sub    rsp,0x30
    762f:	mov    rbp,QWORD PTR [rdi]
    7632:	mov    esi,DWORD PTR [rdi+0x8]
    7635:	lea    rdx,[rsp+0x10]
    763a:	mov    QWORD PTR [rsp+0x20],0x0
    7643:	mov    rax,QWORD PTR fs:0x28
    764c:	mov    QWORD PTR [rsp+0x28],rax
    7651:	xor    eax,eax
    7653:	lea    rcx,[rdx+0x8]
    7657:	lea    r9,[rdx+0x10]
    765b:	lea    r8,[rdx+0x4]
    765f:	movabs rax,0x1800000008
    7669:	mov    rdi,rbp
    766c:	mov    QWORD PTR [rsp+0x8],rdx
    7671:	movaps XMMWORD PTR [rsp+0x10],xmm0
    7676:	mov    QWORD PTR [rsp],rax
    767a:	call   6600 <xc_domain_get_tsc_info@plt>
    767f:	test   eax,eax
    7681:	js     76b0 <write_tsc_info+0x90>
    7683:	mov    rsi,rsp
    7686:	xor    ecx,ecx
    7688:	xor    edx,edx
    768a:	mov    rdi,rbx
    768d:	call   5870 <write_split_record@plt>
    7692:	mov    rdi,QWORD PTR [rsp+0x28]
    7697:	xor    rdi,QWORD PTR fs:0x28
    76a0:	jne    76eb <write_tsc_info+0xcb>
    76a2:	add    rsp,0x30
    76a6:	pop    rbx
    76a7:	pop    rbp
    76a8:	pop    r12
    76aa:	ret    
    76ab:	nop    DWORD PTR [rax+rax*1+0x0]
    76b0:	call   5940 <__errno_location@plt>
    76b5:	mov    r12d,DWORD PTR [rax]
    76b8:	mov    rbx,rax
    76bb:	mov    rdi,rbp
    76be:	mov    esi,r12d
    76c1:	call   6570 <xc_strerror@plt>
    76c6:	mov    ecx,DWORD PTR [rbx]
    76c8:	lea    rdx,[rip+0x19dc1]        # 21490 <zeroes.12794+0xd>
    76cf:	mov    r8,rax
    76d2:	mov    esi,0x1
    76d7:	xor    eax,eax
    76d9:	mov    rdi,rbp
    76dc:	call   5d50 <xc_report_error@plt>
    76e1:	mov    DWORD PTR [rbx],r12d
    76e4:	mov    eax,0xffffffff
    76e9:	jmp    7692 <write_tsc_info+0x72>
    76eb:	call   5b80 <__stack_chk_fail@plt>

00000000000076f0 <handle_tsc_info>:
    76f0:	push   r13
    76f2:	push   r12
    76f4:	push   rbp
    76f5:	push   rbx
    76f6:	sub    rsp,0x8
    76fa:	mov    ebx,DWORD PTR [rsi+0x4]
    76fd:	mov    rbp,QWORD PTR [rdi]
    7700:	mov    rax,QWORD PTR [rsi+0x8]
    7704:	cmp    ebx,0x18
    7707:	jne    7738 <handle_tsc_info+0x48>
    7709:	mov    esi,DWORD PTR [rdi+0x8]
    770c:	mov    rcx,QWORD PTR [rax+0x8]
    7710:	mov    rdi,rbp
    7713:	mov    r9d,DWORD PTR [rax+0x10]
    7717:	mov    r8d,DWORD PTR [rax+0x4]
    771b:	mov    edx,DWORD PTR [rax]
    771d:	call   62a0 <xc_domain_set_tsc_info@plt>
    7722:	test   eax,eax
    7724:	jne    776c <handle_tsc_info+0x7c>
    7726:	add    rsp,0x8
    772a:	pop    rbx
    772b:	pop    rbp
    772c:	pop    r12
    772e:	pop    r13
    7730:	ret    
    7731:	nop    DWORD PTR [rax+0x0]
    7738:	call   5940 <__errno_location@plt>
    773d:	mov    r13d,DWORD PTR [rax]
    7740:	lea    rdx,[rip+0x19d79]        # 214c0 <zeroes.12794+0x3d>
    7747:	mov    r12,rax
    774a:	mov    r8d,0x18
    7750:	xor    eax,eax
    7752:	mov    ecx,ebx
    7754:	mov    esi,0x1
    7759:	mov    rdi,rbp
    775c:	call   5d50 <xc_report_error@plt>
    7761:	mov    DWORD PTR [r12],r13d
    7765:	mov    eax,0xffffffff
    776a:	jmp    7726 <handle_tsc_info+0x36>
    776c:	call   5940 <__errno_location@plt>
    7771:	mov    r12d,DWORD PTR [rax]
    7774:	mov    rbx,rax
    7777:	mov    rdi,rbp
    777a:	mov    esi,r12d
    777d:	call   6570 <xc_strerror@plt>
    7782:	mov    ecx,DWORD PTR [rbx]
    7784:	lea    rdx,[rip+0x19d6d]        # 214f8 <zeroes.12794+0x75>
    778b:	mov    r8,rax
    778e:	mov    esi,0x1
    7793:	xor    eax,eax
    7795:	mov    rdi,rbp
    7798:	call   5d50 <xc_report_error@plt>
    779d:	mov    DWORD PTR [rbx],r12d
    77a0:	mov    eax,0xffffffff
    77a5:	jmp    7726 <handle_tsc_info+0x36>
    77aa:	nop    WORD PTR [rax+rax*1+0x0]

00000000000077b0 <mfn_to_pfn>:
    77b0:	cmp    QWORD PTR [rdi+0x168],rsi
    77b7:	jb     77c5 <mfn_to_pfn+0x15>
    77b9:	mov    rax,QWORD PTR [rdi+0x170]
    77c0:	mov    rax,QWORD PTR [rax+rsi*8]
    77c4:	ret    
    77c5:	lea    rcx,[rip+0x19f74]        # 21740 <__PRETTY_FUNCTION__.12816>
    77cc:	lea    rsi,[rip+0x19d4d]        # 21520 <zeroes.12794+0x9d>
    77d3:	lea    rdi,[rip+0x19d5c]        # 21536 <zeroes.12794+0xb3>
    77da:	sub    rsp,0x8
    77de:	mov    edx,0x7
    77e3:	call   5c70 <__assert_fail@plt>
    77e8:	nop    DWORD PTR [rax+rax*1+0x0]

00000000000077f0 <mfn_in_pseudophysmap>:
    77f0:	cmp    QWORD PTR [rdi+0x168],rsi
    77f7:	jae    7800 <mfn_in_pseudophysmap+0x10>
    77f9:	xor    eax,eax
    77fb:	ret    
    77fc:	nop    DWORD PTR [rax+0x0]
    7800:	push   r13
    7802:	push   r12
    7804:	push   rbp
    7805:	push   rbx
    7806:	mov    rbx,rdi
    7809:	mov    rbp,rsi
    780c:	sub    rsp,0x8
    7810:	call   6450 <mfn_to_pfn@plt>
    7815:	cmp    rax,QWORD PTR [rbx+0x188]
    781c:	jbe    7830 <mfn_in_pseudophysmap+0x40>
    781e:	add    rsp,0x8
    7822:	xor    eax,eax
    7824:	pop    rbx
    7825:	pop    rbp
    7826:	pop    r12
    7828:	pop    r13
    782a:	ret    
    782b:	nop    DWORD PTR [rax+rax*1+0x0]
    7830:	mov    r12d,DWORD PTR [rbx+0x160]
    7837:	mov    rsi,rbp
    783a:	mov    rdi,rbx
    783d:	mov    r13,QWORD PTR [rbx+0x198]
    7844:	call   6450 <mfn_to_pfn@plt>
    7849:	cmp    r12d,0x8
    784d:	je     7878 <mfn_in_pseudophysmap+0x88>
    784f:	mov    eax,DWORD PTR [r13+rax*4+0x0]
    7854:	mov    rdx,0xffffffffffffffff
    785b:	cmp    eax,0xffffffff
    785e:	cmove  rax,rdx
    7862:	cmp    rbp,rax
    7865:	sete   al
    7868:	add    rsp,0x8
    786c:	pop    rbx
    786d:	pop    rbp
    786e:	pop    r12
    7870:	pop    r13
    7872:	ret    
    7873:	nop    DWORD PTR [rax+rax*1+0x0]
    7878:	mov    rax,QWORD PTR [r13+rax*8+0x0]
    787d:	jmp    7862 <mfn_in_pseudophysmap+0x72>
    787f:	nop

0000000000007880 <dump_bad_pseudophysmap_entry>:
    7880:	push   r15
    7882:	push   r14
    7884:	push   r13
    7886:	push   r12
    7888:	push   rbp
    7889:	push   rbx
    788a:	mov    rbx,rdi
    788d:	mov    rbp,rsi
    7890:	sub    rsp,0x8
    7894:	mov    r14,QWORD PTR [rdi]
    7897:	call   5940 <__errno_location@plt>
    789c:	mov    r8,QWORD PTR [rbx+0x168]
    78a3:	mov    r13d,DWORD PTR [rax]
    78a6:	lea    rdx,[rip+0x19ca4]        # 21551 <zeroes.12794+0xce>
    78ad:	mov    r12,rax
    78b0:	mov    rcx,rbp
    78b3:	xor    eax,eax
    78b5:	mov    esi,0x1
    78ba:	mov    rdi,r14
    78bd:	call   5d50 <xc_report_error@plt>
    78c2:	cmp    rbp,0xffffffffffffffff
    78c6:	mov    DWORD PTR [r12],r13d
    78ca:	je     78d5 <dump_bad_pseudophysmap_entry+0x55>
    78cc:	cmp    QWORD PTR [rbx+0x168],rbp
    78d3:	jae    78e8 <dump_bad_pseudophysmap_entry+0x68>
    78d5:	add    rsp,0x8
    78d9:	pop    rbx
    78da:	pop    rbp
    78db:	pop    r12
    78dd:	pop    r13
    78df:	pop    r14
    78e1:	pop    r15
    78e3:	ret    
    78e4:	nop    DWORD PTR [rax+0x0]
    78e8:	mov    rax,QWORD PTR [rbx+0x170]
    78ef:	mov    r9,QWORD PTR [rbx+0x188]
    78f6:	lea    rdx,[rip+0x19c9b]        # 21598 <zeroes.12794+0x115>
    78fd:	mov    rcx,rbp
    7900:	mov    esi,0x1
    7905:	mov    rdi,r14
    7908:	mov    r15,QWORD PTR [rax+rbp*8]
    790c:	xor    eax,eax
    790e:	mov    r8,r15
    7911:	call   5d50 <xc_report_error@plt>
    7916:	cmp    r15,0xffffffffffffffff
    791a:	mov    DWORD PTR [r12],r13d
    791e:	je     78d5 <dump_bad_pseudophysmap_entry+0x55>
    7920:	cmp    QWORD PTR [rbx+0x188],r15
    7927:	jb     78d5 <dump_bad_pseudophysmap_entry+0x55>
    7929:	cmp    DWORD PTR [rbx+0x160],0x8
    7930:	mov    rax,QWORD PTR [rbx+0x198]
    7937:	je     7970 <dump_bad_pseudophysmap_entry+0xf0>
    7939:	mov    r8d,DWORD PTR [rax+r15*4]
    793d:	mov    rax,0xffffffffffffffff
    7944:	cmp    r8d,0xffffffff
    7948:	cmove  r8,rax
    794c:	lea    rdx,[rip+0x19c11]        # 21564 <zeroes.12794+0xe1>
    7953:	mov    rcx,r15
    7956:	mov    esi,0x1
    795b:	mov    rdi,r14
    795e:	xor    eax,eax
    7960:	call   5d50 <xc_report_error@plt>
    7965:	mov    DWORD PTR [r12],r13d
    7969:	jmp    78d5 <dump_bad_pseudophysmap_entry+0x55>
    796e:	xchg   ax,ax
    7970:	mov    r8,QWORD PTR [rax+r15*8]
    7974:	jmp    794c <dump_bad_pseudophysmap_entry+0xcc>
    7976:	nop    WORD PTR cs:[rax+rax*1+0x0]

0000000000007980 <cr3_to_mfn>:
    7980:	cmp    DWORD PTR [rdi+0x160],0x8
    7987:	je     79b0 <cr3_to_mfn+0x30>
    7989:	movabs rdx,0xffffffff00000000
    7993:	mov    rax,0xffffffffffffffff
    799a:	test   rsi,rdx
    799d:	jne    79ab <cr3_to_mfn+0x2b>
    799f:	mov    rax,rsi
    79a2:	shl    esi,0x14
    79a5:	shr    rax,0xc
    79a9:	or     eax,esi
    79ab:	repz ret 
    79ad:	nop    DWORD PTR [rax]
    79b0:	mov    rax,rsi
    79b3:	shr    rax,0xc
    79b7:	ret    
    79b8:	nop    DWORD PTR [rax+rax*1+0x0]

00000000000079c0 <mfn_to_cr3>:
    79c0:	cmp    DWORD PTR [rdi+0x160],0x8
    79c7:	je     79f0 <mfn_to_cr3+0x30>
    79c9:	movabs rdx,0xffffffff00000000
    79d3:	mov    rax,0xffffffffffffffff
    79da:	test   rsi,rdx
    79dd:	jne    79ea <mfn_to_cr3+0x2a>
    79df:	mov    eax,esi
    79e1:	shr    rsi,0x14
    79e5:	shl    eax,0xc
    79e8:	or     eax,esi
    79ea:	repz ret 
    79ec:	nop    DWORD PTR [rax+0x0]
    79f0:	mov    rax,rsi
    79f3:	shl    rax,0xc
    79f7:	ret    
    79f8:	nop    DWORD PTR [rax+rax*1+0x0]

0000000000007a00 <x86_pv_domain_info>:
    7a00:	push   r13
    7a02:	push   r12
    7a04:	push   rbp
    7a05:	push   rbx
    7a06:	mov    rbx,rdi
    7a09:	sub    rsp,0x18
    7a0d:	mov    rbp,QWORD PTR [rdi]
    7a10:	mov    esi,DWORD PTR [rdi+0x8]
    7a13:	lea    rdx,[rsp+0x4]
    7a18:	mov    rax,QWORD PTR fs:0x28
    7a21:	mov    QWORD PTR [rsp+0x8],rax
    7a26:	xor    eax,eax
    7a28:	mov    rdi,rbp
    7a2b:	call   6170 <xc_domain_get_guest_width@plt>
    7a30:	mov    r12d,eax
    7a33:	call   5940 <__errno_location@plt>
    7a38:	test   r12d,r12d
    7a3b:	mov    r13,rax
    7a3e:	jne    7ae9 <x86_pv_domain_info+0xe9>
    7a44:	mov    eax,DWORD PTR [rsp+0x4]
    7a48:	cmp    eax,0x4
    7a4b:	lea    r9d,[rax*8+0x0]
    7a53:	je     7ab8 <x86_pv_domain_info+0xb8>
    7a55:	cmp    eax,0x8
    7a58:	jne    7ac0 <x86_pv_domain_info+0xc0>
    7a5a:	mov    edx,0x4
    7a5f:	mov    DWORD PTR [rbx+0x160],eax
    7a65:	mov    DWORD PTR [rbx+0x164],edx
    7a6b:	sub    rsp,0x8
    7a6f:	mov    ebx,DWORD PTR [r13+0x0]
    7a73:	mov    rsi,QWORD PTR [rbp+0x8]
    7a77:	lea    r8,[rip+0x19af9]        # 21577 <zeroes.12794+0xf4>
    7a7e:	push   rdx
    7a7f:	xor    eax,eax
    7a81:	mov    edx,0x3
    7a86:	xor    ecx,ecx
    7a88:	mov    rdi,rbp
    7a8b:	call   6540 <xc_report@plt>
    7a90:	mov    DWORD PTR [r13+0x0],ebx
    7a94:	pop    rax
    7a95:	pop    rdx
    7a96:	mov    rcx,QWORD PTR [rsp+0x8]
    7a9b:	xor    rcx,QWORD PTR fs:0x28
    7aa4:	mov    eax,r12d
    7aa7:	jne    7b26 <x86_pv_domain_info+0x126>
    7aa9:	add    rsp,0x18
    7aad:	pop    rbx
    7aae:	pop    rbp
    7aaf:	pop    r12
    7ab1:	pop    r13
    7ab3:	ret    
    7ab4:	nop    DWORD PTR [rax+0x0]
    7ab8:	mov    edx,0x3
    7abd:	jmp    7a5f <x86_pv_domain_info+0x5f>
    7abf:	nop
    7ac0:	mov    ebx,DWORD PTR [r13+0x0]
    7ac4:	lea    rdx,[rip+0x19b25]        # 215f0 <zeroes.12794+0x16d>
    7acb:	mov    ecx,r9d
    7ace:	mov    esi,0x1
    7ad3:	mov    rdi,rbp
    7ad6:	xor    eax,eax
    7ad8:	call   5d50 <xc_report_error@plt>
    7add:	mov    r12d,0xffffffff
    7ae3:	mov    DWORD PTR [r13+0x0],ebx
    7ae7:	jmp    7a96 <x86_pv_domain_info+0x96>
    7ae9:	mov    r12d,DWORD PTR [rax]
    7aec:	mov    rdi,rbp
    7aef:	mov    esi,r12d
    7af2:	call   6570 <xc_strerror@plt>
    7af7:	mov    ecx,DWORD PTR [rbx+0x8]
    7afa:	mov    r8d,DWORD PTR [r13+0x0]
    7afe:	lea    rdx,[rip+0x19abb]        # 215c0 <zeroes.12794+0x13d>
    7b05:	mov    r9,rax
    7b08:	mov    esi,0x1
    7b0d:	mov    rdi,rbp
    7b10:	xor    eax,eax
    7b12:	call   5d50 <xc_report_error@plt>
    7b17:	mov    DWORD PTR [r13+0x0],r12d
    7b1b:	mov    r12d,0xffffffff
    7b21:	jmp    7a96 <x86_pv_domain_info+0x96>
    7b26:	call   5b80 <__stack_chk_fail@plt>
    7b2b:	nop    DWORD PTR [rax+rax*1+0x0]

0000000000007b30 <x86_pv_map_m2p>:
    7b30:	push   r15
    7b32:	push   r14
    7b34:	push   r13
    7b36:	push   r12
    7b38:	mov    r12,rdi
    7b3b:	push   rbp
    7b3c:	push   rbx
    7b3d:	sub    rsp,0x48
    7b41:	mov    rbp,QWORD PTR [rdi]
    7b44:	lea    rsi,[rsp+0x18]
    7b49:	mov    rax,QWORD PTR fs:0x28
    7b52:	mov    QWORD PTR [rsp+0x38],rax
    7b57:	xor    eax,eax
    7b59:	mov    rdi,rbp
    7b5c:	call   6420 <xc_maximum_ram_page@plt>
    7b61:	mov    ebx,eax
    7b63:	call   5940 <__errno_location@plt>
    7b68:	test   ebx,ebx
    7b6a:	mov    r15,rax
    7b6d:	js     7d7d <x86_pv_map_m2p+0x24d>
    7b73:	mov    rax,QWORD PTR [rsp+0x18]
    7b78:	lea    rbx,[rax*8+0x1fffff]
    7b80:	mov    QWORD PTR [r12+0x168],rax
    7b88:	mov    rax,rbx
    7b8b:	shr    rbx,0x15
    7b8f:	lea    r13,[rbx*8+0x0]
    7b97:	and    rax,0xffffffffffe00000
    7b9d:	mov    QWORD PTR [rsp],rax
    7ba1:	mov    rdi,r13
    7ba4:	call   5ff0 <malloc@plt>
    7ba9:	test   rax,rax
    7bac:	mov    r14,rax
    7baf:	je     7dd9 <x86_pv_map_m2p+0x2a9>
    7bb5:	mov    rdx,rax
    7bb8:	mov    rsi,rbx
    7bbb:	mov    rdi,rbp
    7bbe:	call   62f0 <xc_machphys_mfn_list@plt>
    7bc3:	test   eax,eax
    7bc5:	jne    7d42 <x86_pv_map_m2p+0x212>
    7bcb:	lea    rcx,[rbx+rbx*2]
    7bcf:	shl    rcx,0x3
    7bd3:	mov    rdi,rcx
    7bd6:	mov    QWORD PTR [rsp+0x8],rcx
    7bdb:	call   5ff0 <malloc@plt>
    7be0:	test   rax,rax
    7be3:	mov    r13,rax
    7be6:	mov    rcx,QWORD PTR [rsp+0x8]
    7beb:	je     7e07 <x86_pv_map_m2p+0x2d7>
    7bf1:	test   rbx,rbx
    7bf4:	je     7c1c <x86_pv_map_m2p+0xec>
    7bf6:	lea    rax,[rax+0x8]
    7bfa:	lea    rsi,[r13+rcx*1+0x8]
    7bff:	mov    rdx,r14
    7c02:	nop    WORD PTR [rax+rax*1+0x0]
    7c08:	mov    rcx,QWORD PTR [rdx]
    7c0b:	add    rax,0x18
    7c0f:	add    rdx,0x8
    7c13:	mov    QWORD PTR [rax-0x18],rcx
    7c17:	cmp    rax,rsi
    7c1a:	jne    7c08 <x86_pv_map_m2p+0xd8>
    7c1c:	sub    rsp,0x8
    7c20:	mov    ecx,0x1
    7c25:	mov    r9,r13
    7c28:	push   rbx
    7c29:	mov    rdx,QWORD PTR [rsp+0x10]
    7c2e:	mov    r8d,0x200000
    7c34:	mov    esi,0x7ff2
    7c39:	mov    rdi,rbp
    7c3c:	call   6580 <xc_map_foreign_ranges@plt>
    7c41:	test   rax,rax
    7c44:	mov    QWORD PTR [r12+0x170],rax
    7c4c:	pop    rdx
    7c4d:	pop    rcx
    7c4e:	je     7dba <x86_pv_map_m2p+0x28a>
    7c54:	pxor   xmm0,xmm0
    7c58:	shl    rbx,0x9
    7c5c:	lea    rax,[r12+0x178]
    7c64:	lea    rdx,[rsp+0x20]
    7c69:	mov    QWORD PTR [r12+0x180],rbx
    7c71:	mov    ecx,0x18
    7c76:	mov    esi,0x19
    7c7b:	mov    rdi,rbp
    7c7e:	mov    DWORD PTR [rsp+0x34],0x0
    7c86:	movups XMMWORD PTR [rsp+0x24],xmm0
    7c8b:	mov    DWORD PTR [rsp+0x20],0x1
    7c93:	mov    QWORD PTR [rsp+0x28],rax
    7c98:	call   6090 <do_memory_op@plt>
    7c9d:	test   eax,eax
    7c9f:	mov    DWORD PTR [rsp],eax
    7ca2:	mov    ebx,DWORD PTR [r15]
    7ca5:	jne    7d10 <x86_pv_map_m2p+0x1e0>
    7ca7:	cmp    DWORD PTR [rsp+0x30],0x1
    7cac:	jne    7d10 <x86_pv_map_m2p+0x1e0>
    7cae:	mov    rsi,QWORD PTR [rbp+0x8]
    7cb2:	mov    r9,QWORD PTR [r12+0x168]
    7cba:	lea    r8,[rip+0x198c9]        # 2158a <zeroes.12794+0x107>
    7cc1:	xor    ecx,ecx
    7cc3:	mov    edx,0x3
    7cc8:	mov    rdi,rbp
    7ccb:	xor    eax,eax
    7ccd:	call   6540 <xc_report@plt>
    7cd2:	mov    DWORD PTR [r15],ebx
    7cd5:	mov    rdi,r13
    7cd8:	call   5900 <free@plt>
    7cdd:	mov    rdi,r14
    7ce0:	call   5900 <free@plt>
    7ce5:	mov    rdi,QWORD PTR [rsp+0x38]
    7cea:	xor    rdi,QWORD PTR fs:0x28
    7cf3:	mov    eax,DWORD PTR [rsp]
    7cf6:	jne    7e2f <x86_pv_map_m2p+0x2ff>
    7cfc:	add    rsp,0x48
    7d00:	pop    rbx
    7d01:	pop    rbp
    7d02:	pop    r12
    7d04:	pop    r13
    7d06:	pop    r14
    7d08:	pop    r15
    7d0a:	ret    
    7d0b:	nop    DWORD PTR [rax+rax*1+0x0]
    7d10:	mov    esi,ebx
    7d12:	mov    rdi,rbp
    7d15:	call   6570 <xc_strerror@plt>
    7d1a:	mov    ecx,DWORD PTR [r15]
    7d1d:	lea    rdx,[rip+0x199e4]        # 21708 <zeroes.12794+0x285>
    7d24:	mov    r8,rax
    7d27:	mov    esi,0x1
    7d2c:	mov    rdi,rbp
    7d2f:	xor    eax,eax
    7d31:	call   5d50 <xc_report_error@plt>
    7d36:	mov    DWORD PTR [r15],ebx
    7d39:	mov    DWORD PTR [rsp],0xffffffff
    7d40:	jmp    7cd5 <x86_pv_map_m2p+0x1a5>
    7d42:	mov    ebx,DWORD PTR [r15]
    7d45:	mov    rdi,rbp
    7d48:	xor    r13d,r13d
    7d4b:	mov    esi,ebx
    7d4d:	call   6570 <xc_strerror@plt>
    7d52:	mov    ecx,DWORD PTR [r15]
    7d55:	lea    rdx,[rip+0x19924]        # 21680 <zeroes.12794+0x1fd>
    7d5c:	mov    r8,rax
    7d5f:	mov    esi,0x1
    7d64:	mov    rdi,rbp
    7d67:	xor    eax,eax
    7d69:	call   5d50 <xc_report_error@plt>
    7d6e:	mov    DWORD PTR [r15],ebx
    7d71:	mov    DWORD PTR [rsp],0xffffffff
    7d78:	jmp    7cd5 <x86_pv_map_m2p+0x1a5>
    7d7d:	mov    ebx,DWORD PTR [rax]
    7d7f:	mov    rdi,rbp
    7d82:	xor    r14d,r14d
    7d85:	xor    r13d,r13d
    7d88:	mov    esi,ebx
    7d8a:	call   6570 <xc_strerror@plt>
    7d8f:	mov    ecx,DWORD PTR [r15]
    7d92:	lea    rdx,[rip+0x19887]        # 21620 <zeroes.12794+0x19d>
    7d99:	mov    r8,rax
    7d9c:	mov    esi,0x1
    7da1:	mov    rdi,rbp
    7da4:	xor    eax,eax
    7da6:	call   5d50 <xc_report_error@plt>
    7dab:	mov    DWORD PTR [r15],ebx
    7dae:	mov    DWORD PTR [rsp],0xffffffff
    7db5:	jmp    7cd5 <x86_pv_map_m2p+0x1a5>
    7dba:	mov    ebx,DWORD PTR [r15]
    7dbd:	mov    rdi,rbp
    7dc0:	mov    esi,ebx
    7dc2:	call   6570 <xc_strerror@plt>
    7dc7:	mov    ecx,DWORD PTR [r15]
    7dca:	mov    r8,rax
    7dcd:	lea    rdx,[rip+0x1990c]        # 216e0 <zeroes.12794+0x25d>
    7dd4:	jmp    7d27 <x86_pv_map_m2p+0x1f7>
    7dd9:	mov    ebx,DWORD PTR [r15]
    7ddc:	lea    rdx,[rip+0x1986d]        # 21650 <zeroes.12794+0x1cd>
    7de3:	mov    rcx,r13
    7de6:	mov    esi,0x1
    7deb:	mov    rdi,rbp
    7dee:	xor    eax,eax
    7df0:	call   5d50 <xc_report_error@plt>
    7df5:	xor    r13d,r13d
    7df8:	mov    DWORD PTR [r15],ebx
    7dfb:	mov    DWORD PTR [rsp],0xffffffff
    7e02:	jmp    7cd5 <x86_pv_map_m2p+0x1a5>
    7e07:	mov    ebx,DWORD PTR [r15]
    7e0a:	lea    rdx,[rip+0x19897]        # 216a8 <zeroes.12794+0x225>
    7e11:	mov    esi,0x1
    7e16:	mov    rdi,rbp
    7e19:	xor    eax,eax
    7e1b:	call   5d50 <xc_report_error@plt>
    7e20:	mov    DWORD PTR [r15],ebx
    7e23:	mov    DWORD PTR [rsp],0xffffffff
    7e2a:	jmp    7cd5 <x86_pv_map_m2p+0x1a5>
    7e2f:	call   5b80 <__stack_chk_fail@plt>
    7e34:	nop    WORD PTR cs:[rax+rax*1+0x0]
    7e3e:	xchg   ax,ax

0000000000007e40 <x86_pv_pfn_is_valid>:
    7e40:	cmp    QWORD PTR [rdi+0x188],rsi
    7e47:	setae  al
    7e4a:	ret    
    7e4b:	nop    DWORD PTR [rax+rax*1+0x0]

0000000000007e50 <x86_pv_cleanup>:
    7e50:	push   r12
    7e52:	mov    r12,rdi
    7e55:	push   rbp
    7e56:	push   rbx
    7e57:	mov    rdi,QWORD PTR [rdi+0x198]
    7e5e:	call   5900 <free@plt>
    7e63:	mov    rdi,QWORD PTR [r12+0x1a0]
    7e6b:	call   5900 <free@plt>
    7e70:	mov    rdi,QWORD PTR [r12+0x1c8]
    7e78:	test   rdi,rdi
    7e7b:	je     7ed6 <x86_pv_cleanup+0x86>
    7e7d:	mov    eax,DWORD PTR [r12+0x1d0]
    7e85:	test   eax,eax
    7e87:	je     7ed1 <x86_pv_cleanup+0x81>
    7e89:	xor    ebp,ebp
    7e8b:	nop    DWORD PTR [rax+rax*1+0x0]
    7e90:	mov    ebx,ebp
    7e92:	add    ebp,0x1
    7e95:	shl    rbx,0x6
    7e99:	add    rbx,rdi
    7e9c:	mov    rdi,QWORD PTR [rbx]
    7e9f:	call   5900 <free@plt>
    7ea4:	mov    rdi,QWORD PTR [rbx+0x8]
    7ea8:	call   5900 <free@plt>
    7ead:	mov    rdi,QWORD PTR [rbx+0x10]
    7eb1:	call   5900 <free@plt>
    7eb6:	mov    rdi,QWORD PTR [rbx+0x18]
    7eba:	call   5900 <free@plt>
    7ebf:	cmp    DWORD PTR [r12+0x1d0],ebp
    7ec7:	mov    rdi,QWORD PTR [r12+0x1c8]
    7ecf:	ja     7e90 <x86_pv_cleanup+0x40>
    7ed1:	call   5900 <free@plt>
    7ed6:	mov    rdi,QWORD PTR [r12+0x1c0]
    7ede:	call   5900 <free@plt>
    7ee3:	mov    rdi,QWORD PTR [r12+0x170]
    7eeb:	test   rdi,rdi
    7eee:	je     7f01 <x86_pv_cleanup+0xb1>
    7ef0:	mov    rsi,QWORD PTR [r12+0x180]
    7ef8:	shl    rsi,0xc
    7efc:	call   61b0 <munmap@plt>
    7f01:	pop    rbx
    7f02:	xor    eax,eax
    7f04:	pop    rbp
    7f05:	pop    r12
    7f07:	ret    
    7f08:	nop    DWORD PTR [rax+rax*1+0x0]

0000000000007f10 <x86_pv_set_page_type>:
    7f10:	cmp    QWORD PTR [rdi+0x188],rsi
    7f17:	jb     7f24 <x86_pv_set_page_type+0x14>
    7f19:	mov    rax,QWORD PTR [rdi+0x1c0]
    7f20:	mov    DWORD PTR [rax+rsi*4],edx
    7f23:	ret    
    7f24:	lea    rcx,[rip+0x1a3d5]        # 22300 <__PRETTY_FUNCTION__.13083>
    7f2b:	lea    rsi,[rip+0x19819]        # 2174b <__PRETTY_FUNCTION__.12816+0xb>
    7f32:	lea    rdi,[rip+0x19829]        # 21762 <__PRETTY_FUNCTION__.12816+0x22>
    7f39:	sub    rsp,0x8
    7f3d:	mov    edx,0x399
    7f42:	call   5c70 <__assert_fail@plt>
    7f47:	nop    WORD PTR [rax+rax*1+0x0]

0000000000007f50 <x86_pv_set_gfn>:
    7f50:	cmp    QWORD PTR [rdi+0x188],rsi
    7f57:	jb     7f75 <x86_pv_set_gfn+0x25>
    7f59:	cmp    DWORD PTR [rdi+0x160],0x8
    7f60:	mov    rax,QWORD PTR [rdi+0x198]
    7f67:	je     7f70 <x86_pv_set_gfn+0x20>
    7f69:	mov    DWORD PTR [rax+rsi*4],edx
    7f6c:	ret    
    7f6d:	nop    DWORD PTR [rax]
    7f70:	mov    QWORD PTR [rax+rsi*8],rdx
    7f74:	ret    
    7f75:	lea    rcx,[rip+0x1a36c]        # 222e8 <__PRETTY_FUNCTION__.13089>
    7f7c:	lea    rsi,[rip+0x197c8]        # 2174b <__PRETTY_FUNCTION__.12816+0xb>
    7f83:	lea    rdi,[rip+0x197d8]        # 21762 <__PRETTY_FUNCTION__.12816+0x22>
    7f8a:	sub    rsp,0x8
    7f8e:	mov    edx,0x3a2
    7f93:	call   5c70 <__assert_fail@plt>
    7f98:	nop    DWORD PTR [rax+rax*1+0x0]

0000000000007fa0 <pfn_to_mfn>:
    7fa0:	cmp    QWORD PTR [rdi+0x188],rsi
    7fa7:	jb     7fd5 <pfn_to_mfn+0x35>
    7fa9:	cmp    DWORD PTR [rdi+0x160],0x8
    7fb0:	mov    rax,QWORD PTR [rdi+0x198]
    7fb7:	je     7fd0 <pfn_to_mfn+0x30>
    7fb9:	mov    eax,DWORD PTR [rax+rsi*4]
    7fbc:	mov    rdx,0xffffffffffffffff
    7fc3:	cmp    eax,0xffffffff
    7fc6:	cmove  rax,rdx
    7fca:	ret    
    7fcb:	nop    DWORD PTR [rax+rax*1+0x0]
    7fd0:	mov    rax,QWORD PTR [rax+rsi*8]
    7fd4:	ret    
    7fd5:	lea    rcx,[rip+0x1a2fc]        # 222d8 <__PRETTY_FUNCTION__.12816>
    7fdc:	lea    rsi,[rip+0x19768]        # 2174b <__PRETTY_FUNCTION__.12816+0xb>
    7fe3:	lea    rdi,[rip+0x19778]        # 21762 <__PRETTY_FUNCTION__.12816+0x22>
    7fea:	sub    rsp,0x8
    7fee:	mov    edx,0x7
    7ff3:	call   5c70 <__assert_fail@plt>
    7ff8:	nop    DWORD PTR [rax+rax*1+0x0]

0000000000008000 <pin_pagetables>:
    8000:	push   r14
    8002:	push   r13
    8004:	mov    r14,rdi
    8007:	push   r12
    8009:	push   rbp
    800a:	xor    ebp,ebp
    800c:	push   rbx
    800d:	xor    ebx,ebx
    800f:	sub    rsp,0x6010
    8016:	mov    r12,QWORD PTR [rdi]
    8019:	mov    rax,QWORD PTR fs:0x28
    8022:	mov    QWORD PTR [rsp+0x6008],rax
    802a:	xor    eax,eax
    802c:	mov    r13,rsp
    802f:	jmp    8089 <pin_pagetables+0x89>
    8031:	nop    DWORD PTR [rax+0x0]
    8038:	cmp    eax,0x30000000
    803d:	je     80c0 <pin_pagetables+0xc0>
    8043:	cmp    eax,0x40000000
    8048:	jne    8078 <pin_pagetables+0x78>
    804a:	lea    rax,[rbp+rbp*2+0x0]
    804f:	mov    DWORD PTR [rsp+rax*8],0x3
    8056:	mov    rsi,rbx
    8059:	mov    rdi,r14
    805c:	call   7fa0 <pfn_to_mfn>
    8061:	lea    rdx,[rbp+rbp*2+0x0]
    8066:	add    rbp,0x1
    806a:	cmp    rbp,0x400
    8071:	mov    QWORD PTR [rsp+rdx*8+0x8],rax
    8076:	je     80e8 <pin_pagetables+0xe8>
    8078:	add    rbx,0x1
    807c:	cmp    QWORD PTR [r14+0x188],rbx
    8083:	jb     8118 <pin_pagetables+0x118>
    8089:	mov    rax,QWORD PTR [r14+0x1c0]
    8090:	mov    eax,DWORD PTR [rax+rbx*4]
    8093:	test   eax,eax
    8095:	jns    8078 <pin_pagetables+0x78>
    8097:	and    eax,0x70000000
    809c:	cmp    eax,0x20000000
    80a1:	je     80d0 <pin_pagetables+0xd0>
    80a3:	ja     8038 <pin_pagetables+0x38>
    80a5:	cmp    eax,0x10000000
    80aa:	jne    8078 <pin_pagetables+0x78>
    80ac:	lea    rax,[rbp+rbp*2+0x0]
    80b1:	mov    DWORD PTR [rsp+rax*8],0x0
    80b8:	jmp    8056 <pin_pagetables+0x56>
    80ba:	nop    WORD PTR [rax+rax*1+0x0]
    80c0:	lea    rax,[rbp+rbp*2+0x0]
    80c5:	mov    DWORD PTR [rsp+rax*8],0x2
    80cc:	jmp    8056 <pin_pagetables+0x56>
    80ce:	xchg   ax,ax
    80d0:	lea    rax,[rbp+rbp*2+0x0]
    80d5:	mov    DWORD PTR [rsp+rax*8],0x1
    80dc:	jmp    8056 <pin_pagetables+0x56>
    80e1:	nop    DWORD PTR [rax+0x0]
    80e8:	mov    ecx,DWORD PTR [r14+0x8]
    80ec:	mov    edx,0x400
    80f1:	mov    rsi,r13
    80f4:	mov    rdi,r12
    80f7:	call   5f60 <xc_mmuext_op@plt>
    80fc:	test   eax,eax
    80fe:	jne    815d <pin_pagetables+0x15d>
    8100:	xor    ebp,ebp
    8102:	add    rbx,0x1
    8106:	cmp    QWORD PTR [r14+0x188],rbx
    810d:	jae    8089 <pin_pagetables+0x89>
    8113:	nop    DWORD PTR [rax+rax*1+0x0]
    8118:	test   rbp,rbp
    811b:	jne    8148 <pin_pagetables+0x148>
    811d:	xor    eax,eax
    811f:	mov    rcx,QWORD PTR [rsp+0x6008]
    8127:	xor    rcx,QWORD PTR fs:0x28
    8130:	jne    8195 <pin_pagetables+0x195>
    8132:	add    rsp,0x6010
    8139:	pop    rbx
    813a:	pop    rbp
    813b:	pop    r12
    813d:	pop    r13
    813f:	pop    r14
    8141:	ret    
    8142:	nop    WORD PTR [rax+rax*1+0x0]
    8148:	mov    ecx,DWORD PTR [r14+0x8]
    814c:	mov    rsi,rsp
    814f:	mov    edx,ebp
    8151:	mov    rdi,r12
    8154:	call   5f60 <xc_mmuext_op@plt>
    8159:	test   eax,eax
    815b:	jns    811d <pin_pagetables+0x11d>
    815d:	call   5940 <__errno_location@plt>
    8162:	mov    ebp,DWORD PTR [rax]
    8164:	mov    rbx,rax
    8167:	mov    rdi,r12
    816a:	mov    esi,ebp
    816c:	call   6570 <xc_strerror@plt>
    8171:	mov    ecx,DWORD PTR [rbx]
    8173:	lea    rdx,[rip+0x19746]        # 218c0 <__PRETTY_FUNCTION__.12816+0x180>
    817a:	mov    r8,rax
    817d:	mov    esi,0x1
    8182:	xor    eax,eax
    8184:	mov    rdi,r12
    8187:	call   5d50 <xc_report_error@plt>
    818c:	mov    DWORD PTR [rbx],ebp
    818e:	mov    eax,0xffffffff
    8193:	jmp    811f <pin_pagetables+0x11f>
    8195:	call   5b80 <__stack_chk_fail@plt>
    819a:	nop    WORD PTR [rax+rax*1+0x0]

00000000000081a0 <x86_pv_localise_page>:
    81a0:	push   r15
    81a2:	push   r14
    81a4:	and    esi,0x70000000
    81aa:	push   r13
    81ac:	push   r12
    81ae:	push   rbp
    81af:	push   rbx
    81b0:	sub    rsp,0x1028
    81b7:	mov    rax,QWORD PTR fs:0x28
    81c0:	mov    QWORD PTR [rsp+0x1018],rax
    81c8:	xor    eax,eax
    81ca:	lea    eax,[rsi-0x10000000]
    81d0:	mov    DWORD PTR [rsp+0x4],esi
    81d4:	cmp    eax,0x30000000
    81d9:	ja     82d8 <x86_pv_localise_page+0x138>
    81df:	mov    rax,QWORD PTR [rdi]
    81e2:	mov    rbp,rdi
    81e5:	mov    r12,rdx
    81e8:	mov    r14,rdx
    81eb:	lea    r15,[rdx+0x1000]
    81f2:	xor    r13d,r13d
    81f5:	mov    QWORD PTR [rsp+0x8],rax
    81fa:	jmp    8209 <x86_pv_localise_page+0x69>
    81fc:	nop    DWORD PTR [rax+0x0]
    8200:	add    r14,0x8
    8204:	cmp    r15,r14
    8207:	je     8250 <x86_pv_localise_page+0xb0>
    8209:	mov    rbx,QWORD PTR [r14]
    820c:	test   bl,0x1
    820f:	je     8200 <x86_pv_localise_page+0x60>
    8211:	shr    rbx,0xc
    8215:	movabs rax,0xffffffffff
    821f:	mov    rdi,rbp
    8222:	and    rbx,rax
    8225:	mov    rsi,rbx
    8228:	call   7fa0 <pfn_to_mfn>
    822d:	cmp    rax,0xffffffffffffffff
    8231:	jne    8200 <x86_pv_localise_page+0x60>
    8233:	add    r14,0x8
    8237:	mov    eax,r13d
    823a:	add    r13d,0x1
    823e:	cmp    r15,r14
    8241:	mov    QWORD PTR [rsp+rax*8+0x10],rbx
    8246:	jne    8209 <x86_pv_localise_page+0x69>
    8248:	nop    DWORD PTR [rax+rax*1+0x0]
    8250:	test   r13d,r13d
    8253:	jne    834e <x86_pv_localise_page+0x1ae>
    8259:	xor    r14d,r14d
    825c:	movabs rbx,0xffffffffff
    8266:	jmp    827d <x86_pv_localise_page+0xdd>
    8268:	nop    DWORD PTR [rax+rax*1+0x0]
    8270:	add    r14,0x1
    8274:	cmp    r14,0x200
    827b:	je     82d8 <x86_pv_localise_page+0x138>
    827d:	mov    r13,QWORD PTR [r12+r14*8]
    8281:	test   r13b,0x1
    8285:	je     8270 <x86_pv_localise_page+0xd0>
    8287:	mov    rsi,r13
    828a:	mov    rdi,rbp
    828d:	shr    rsi,0xc
    8291:	and    rsi,rbx
    8294:	call   7fa0 <pfn_to_mfn>
    8299:	mov    rdi,rbp
    829c:	mov    rsi,rax
    829f:	mov    r15,rax
    82a2:	call   5990 <mfn_in_pseudophysmap@plt>
    82a7:	test   al,al
    82a9:	je     8303 <x86_pv_localise_page+0x163>
    82ab:	movabs r9,0xfff0000000000fff
    82b5:	mov    r10,r15
    82b8:	and    r9,r13
    82bb:	shl    r10,0xc
    82bf:	or     r9,r10
    82c2:	mov    QWORD PTR [r12+r14*8],r9
    82c6:	add    r14,0x1
    82ca:	cmp    r14,0x200
    82d1:	jne    827d <x86_pv_localise_page+0xdd>
    82d3:	nop    DWORD PTR [rax+rax*1+0x0]
    82d8:	xor    eax,eax
    82da:	mov    rdx,QWORD PTR [rsp+0x1018]
    82e2:	xor    rdx,QWORD PTR fs:0x28
    82eb:	jne    8372 <x86_pv_localise_page+0x1d2>
    82f1:	add    rsp,0x1028
    82f8:	pop    rbx
    82f9:	pop    rbp
    82fa:	pop    r12
    82fc:	pop    r13
    82fe:	pop    r14
    8300:	pop    r15
    8302:	ret    
    8303:	call   5940 <__errno_location@plt>
    8308:	mov    ecx,DWORD PTR [rsp+0x4]
    830c:	mov    r12d,DWORD PTR [rax]
    830f:	lea    rdx,[rip+0x19467]        # 2177d <__PRETTY_FUNCTION__.12816+0x3d>
    8316:	mov    rdi,QWORD PTR [rsp+0x8]
    831b:	mov    rbx,rax
    831e:	mov    r9,r13
    8321:	xor    eax,eax
    8323:	mov    r8d,r14d
    8326:	mov    esi,0x1
    832b:	shr    ecx,0x1c
    832e:	call   5d50 <xc_report_error@plt>
    8333:	mov    DWORD PTR [rbx],r12d
    8336:	mov    rsi,r15
    8339:	mov    rdi,rbp
    833c:	call   5d90 <dump_bad_pseudophysmap_entry@plt>
    8341:	mov    DWORD PTR [rbx],0x22
    8347:	mov    eax,0xffffffff
    834c:	jmp    82da <x86_pv_localise_page+0x13a>
    834e:	lea    rdx,[rsp+0x10]
    8353:	xor    ecx,ecx
    8355:	mov    esi,r13d
    8358:	mov    rdi,rbp
    835b:	call   5b70 <populate_pfns@plt>
    8360:	test   eax,eax
    8362:	je     8259 <x86_pv_localise_page+0xb9>
    8368:	mov    eax,0xffffffff
    836d:	jmp    82da <x86_pv_localise_page+0x13a>
    8372:	call   5b80 <__stack_chk_fail@plt>
    8377:	nop    WORD PTR [rax+rax*1+0x0]

0000000000008380 <process_vcpu_basic>:
    8380:	push   r15
    8382:	push   r14
    8384:	mov    r15d,esi
    8387:	push   r13
    8389:	push   r12
    838b:	mov    ecx,0x1430
    8390:	push   rbp
    8391:	push   rbx
    8392:	mov    rbx,rdi
    8395:	sub    rsp,0x1458
    839c:	mov    rax,QWORD PTR fs:0x28
    83a5:	mov    QWORD PTR [rsp+0x1448],rax
    83ad:	xor    eax,eax
    83af:	mov    rax,QWORD PTR [rdi]
    83b2:	mov    DWORD PTR [rsp+0x8],esi
    83b6:	lea    rbp,[rsp+0x10]
    83bb:	mov    QWORD PTR [rsp],rax
    83bf:	mov    eax,esi
    83c1:	shl    rax,0x6
    83c5:	add    rax,QWORD PTR [rdi+0x1c8]
    83cc:	mov    rdi,rbp
    83cf:	mov    rdx,QWORD PTR [rax+0x20]
    83d3:	mov    rsi,QWORD PTR [rax]
    83d6:	call   5e70 <__memcpy_chk@plt>
    83db:	test   r15d,r15d
    83de:	mov    eax,DWORD PTR [rbx+0x160]
    83e4:	je     86a0 <process_vcpu_basic+0x320>
    83ea:	cmp    eax,0x8
    83ed:	je     8790 <process_vcpu_basic+0x410>
    83f3:	or     DWORD PTR [rsp+0x210],0x20
    83fb:	mov    r12d,DWORD PTR [rsp+0xaa0]
    8403:	cmp    r12d,0x1c00
    840a:	ja     8ac4 <process_vcpu_basic+0x744>
    8410:	add    r12d,0x1ff
    8417:	shr    r12d,0x9
    841b:	test   r12d,r12d
    841e:	je     8535 <process_vcpu_basic+0x1b5>
    8424:	sub    r12d,0x1
    8428:	xor    r14d,r14d
    842b:	add    r12,0x1
    842f:	jmp    849f <process_vcpu_basic+0x11f>
    8431:	nop    DWORD PTR [rax+0x0]
    8438:	mov    esi,DWORD PTR [rbp+r14*4+0xa50]
    8440:	cmp    QWORD PTR [rbx+0x188],rsi
    8447:	jb     84b8 <process_vcpu_basic+0x138>
    8449:	mov    rax,QWORD PTR [rbx+0x1c0]
    8450:	mov    r15d,DWORD PTR [rax+rsi*4]
    8454:	test   r15d,r15d
    8457:	jne    87b0 <process_vcpu_basic+0x430>
    845d:	mov    rdi,rbx
    8460:	call   7fa0 <pfn_to_mfn>
    8465:	mov    rdi,rbx
    8468:	mov    rsi,rax
    846b:	mov    r15,rax
    846e:	call   5990 <mfn_in_pseudophysmap@plt>
    8473:	test   al,al
    8475:	je     8820 <process_vcpu_basic+0x4a0>
    847b:	mov    eax,DWORD PTR [rbx+0x160]
    8481:	cmp    eax,0x8
    8484:	je     8520 <process_vcpu_basic+0x1a0>
    848a:	mov    DWORD PTR [rbp+r14*4+0xa50],r15d
    8492:	add    r14,0x1
    8496:	cmp    r14,r12
    8499:	je     8535 <process_vcpu_basic+0x1b5>
    849f:	cmp    eax,0x8
    84a2:	mov    r13d,r14d
    84a5:	jne    8438 <process_vcpu_basic+0xb8>
    84a7:	mov    rsi,QWORD PTR [rbp+r14*8+0x12e0]
    84af:	cmp    QWORD PTR [rbx+0x188],rsi
    84b6:	jae    8449 <process_vcpu_basic+0xc9>
    84b8:	mov    QWORD PTR [rsp+0x8],rsi
    84bd:	call   5940 <__errno_location@plt>
    84c2:	mov    rsi,QWORD PTR [rsp+0x8]
    84c7:	mov    ebp,DWORD PTR [rax]
    84c9:	lea    rdx,[rip+0x194f0]        # 219c0 <__PRETTY_FUNCTION__.12816+0x280>
    84d0:	mov    rdi,QWORD PTR [rsp]
    84d4:	mov    rbx,rax
    84d7:	mov    ecx,r13d
    84da:	xor    eax,eax
    84dc:	mov    r8,rsi
    84df:	mov    esi,0x1
    84e4:	call   5d50 <xc_report_error@plt>
    84e9:	mov    DWORD PTR [rbx],ebp
    84eb:	mov    eax,0xffffffff
    84f0:	mov    rcx,QWORD PTR [rsp+0x1448]
    84f8:	xor    rcx,QWORD PTR fs:0x28
    8501:	jne    8cbe <process_vcpu_basic+0x93e>
    8507:	add    rsp,0x1458
    850e:	pop    rbx
    850f:	pop    rbp
    8510:	pop    r12
    8512:	pop    r13
    8514:	pop    r14
    8516:	pop    r15
    8518:	ret    
    8519:	nop    DWORD PTR [rax+0x0]
    8520:	mov    QWORD PTR [rbp+r14*8+0x12e0],r15
    8528:	add    r14,0x1
    852c:	cmp    r14,r12
    852f:	jne    849f <process_vcpu_basic+0x11f>
    8535:	cmp    eax,0x8
    8538:	mov    rsi,QWORD PTR [rsp+0x13a0]
    8540:	je     8549 <process_vcpu_basic+0x1c9>
    8542:	mov    esi,DWORD PTR [rsp+0xab8]
    8549:	mov    rdi,rbx
    854c:	call   5e50 <cr3_to_mfn@plt>
    8551:	cmp    QWORD PTR [rbx+0x188],rax
    8558:	mov    rsi,rax
    855b:	jb     8c31 <process_vcpu_basic+0x8b1>
    8561:	mov    rax,QWORD PTR [rbx+0x1c0]
    8568:	mov    r12d,DWORD PTR [rax+rsi*4]
    856c:	mov    eax,DWORD PTR [rbx+0x164]
    8572:	mov    edx,r12d
    8575:	mov    r13,rax
    8578:	and    edx,0x70000000
    857e:	shl    rax,0x1c
    8582:	cmp    rdx,rax
    8585:	jne    8afc <process_vcpu_basic+0x77c>
    858b:	mov    rdi,rbx
    858e:	call   7fa0 <pfn_to_mfn>
    8593:	mov    rdi,rbx
    8596:	mov    rsi,rax
    8599:	mov    r12,rax
    859c:	call   5990 <mfn_in_pseudophysmap@plt>
    85a1:	test   al,al
    85a3:	je     8bf6 <process_vcpu_basic+0x876>
    85a9:	cmp    DWORD PTR [rbx+0x160],0x8
    85b0:	mov    rsi,r12
    85b3:	mov    rdi,rbx
    85b6:	je     8808 <process_vcpu_basic+0x488>
    85bc:	call   64a0 <mfn_to_cr3@plt>
    85c1:	mov    DWORD PTR [rsp+0xab8],eax
    85c8:	cmp    DWORD PTR [rbx+0x164],0x4
    85cf:	jne    8638 <process_vcpu_basic+0x2b8>
    85d1:	mov    rsi,QWORD PTR [rsp+0x1390]
    85d9:	test   sil,0x1
    85dd:	je     8638 <process_vcpu_basic+0x2b8>
    85df:	shr    rsi,0xc
    85e3:	cmp    QWORD PTR [rbx+0x188],rsi
    85ea:	jb     8c84 <process_vcpu_basic+0x904>
    85f0:	mov    rax,QWORD PTR [rbx+0x1c0]
    85f7:	mov    r12d,DWORD PTR [rax+rsi*4]
    85fb:	mov    eax,r12d
    85fe:	and    eax,0x70000000
    8603:	cmp    eax,0x40000000
    8608:	jne    8c54 <process_vcpu_basic+0x8d4>
    860e:	mov    rdi,rbx
    8611:	call   7fa0 <pfn_to_mfn>
    8616:	mov    rdi,rbx
    8619:	mov    rsi,rax
    861c:	mov    r12,rax
    861f:	call   5990 <mfn_in_pseudophysmap@plt>
    8624:	test   al,al
    8626:	je     8ca7 <process_vcpu_basic+0x927>
    862c:	shl    r12,0xc
    8630:	mov    QWORD PTR [rsp+0x1390],r12
    8638:	mov    esi,DWORD PTR [rbx+0x8]
    863b:	mov    edx,DWORD PTR [rsp+0x8]
    863f:	mov    rcx,rbp
    8642:	mov    rdi,QWORD PTR [rsp]
    8646:	call   5d10 <xc_vcpu_setcontext@plt>
    864b:	test   eax,eax
    864d:	je     84f0 <process_vcpu_basic+0x170>
    8653:	call   5940 <__errno_location@plt>
    8658:	mov    r14,QWORD PTR [rsp]
    865c:	mov    ebp,DWORD PTR [rax]
    865e:	mov    rbx,rax
    8661:	mov    esi,ebp
    8663:	mov    rdi,r14
    8666:	call   6570 <xc_strerror@plt>
    866b:	mov    r8d,DWORD PTR [rbx]
    866e:	mov    ecx,DWORD PTR [rsp+0x8]
    8672:	lea    rdx,[rip+0x193f7]        # 21a70 <__PRETTY_FUNCTION__.12816+0x330>
    8679:	mov    r9,rax
    867c:	mov    esi,0x1
    8681:	xor    eax,eax
    8683:	mov    rdi,r14
    8686:	call   5d50 <xc_report_error@plt>
    868b:	mov    DWORD PTR [rbx],ebp
    868d:	mov    eax,0xffffffff
    8692:	jmp    84f0 <process_vcpu_basic+0x170>
    8697:	nop    WORD PTR [rax+rax*1+0x0]
    86a0:	cmp    eax,0x8
    86a3:	mov    rsi,QWORD PTR [rsp+0x278]
    86ab:	je     86b4 <process_vcpu_basic+0x334>
    86ad:	mov    esi,DWORD PTR [rsp+0x21c]
    86b4:	cmp    QWORD PTR [rbx+0x188],rsi
    86bb:	jb     8b81 <process_vcpu_basic+0x801>
    86c1:	mov    rax,QWORD PTR [rbx+0x1c0]
    86c8:	mov    r12d,DWORD PTR [rax+rsi*4]
    86cc:	test   r12d,r12d
    86cf:	jne    8b40 <process_vcpu_basic+0x7c0>
    86d5:	mov    rdi,rbx
    86d8:	call   7fa0 <pfn_to_mfn>
    86dd:	mov    rdi,rbx
    86e0:	mov    rsi,rax
    86e3:	mov    r13,rax
    86e6:	call   5990 <mfn_in_pseudophysmap@plt>
    86eb:	test   al,al
    86ed:	je     8bbb <process_vcpu_basic+0x83b>
    86f3:	cmp    DWORD PTR [rbx+0x160],0x8
    86fa:	je     8990 <process_vcpu_basic+0x610>
    8700:	mov    DWORD PTR [rsp+0x21c],r13d
    8708:	mov    esi,DWORD PTR [rbx+0x8]
    870b:	mov    rdi,QWORD PTR [rsp]
    870f:	mov    r8,r13
    8712:	mov    ecx,0x3
    8717:	mov    edx,0x1000
    871c:	call   6590 <xc_map_foreign_range@plt>
    8721:	test   rax,rax
    8724:	mov    r12,rax
    8727:	je     899d <process_vcpu_basic+0x61d>
    872d:	cmp    DWORD PTR [rbx+0x160],0x8
    8734:	je     87f8 <process_vcpu_basic+0x478>
    873a:	mov    r13d,DWORD PTR [rax+0x2c]
    873e:	cmp    QWORD PTR [rbx+0x188],r13
    8745:	jae    8860 <process_vcpu_basic+0x4e0>
    874b:	call   5940 <__errno_location@plt>
    8750:	mov    ebp,DWORD PTR [rax]
    8752:	lea    rdx,[rip+0x19217]        # 21970 <__PRETTY_FUNCTION__.12816+0x230>
    8759:	mov    rbx,rax
    875c:	mov    rcx,r13
    875f:	mov    rdi,QWORD PTR [rsp]
    8763:	mov    esi,0x1
    8768:	xor    eax,eax
    876a:	call   5d50 <xc_report_error@plt>
    876f:	mov    DWORD PTR [rbx],ebp
    8771:	mov    esi,0x1000
    8776:	mov    rdi,r12
    8779:	call   61b0 <munmap@plt>
    877e:	mov    eax,0xffffffff
    8783:	jmp    84f0 <process_vcpu_basic+0x170>
    8788:	nop    DWORD PTR [rax+rax*1+0x0]
    8790:	or     QWORD PTR [rsp+0x210],0x20
    8799:	mov    r12d,DWORD PTR [rsp+0x1370]
    87a1:	jmp    8403 <process_vcpu_basic+0x83>
    87a6:	nop    WORD PTR cs:[rax+rax*1+0x0]
    87b0:	mov    QWORD PTR [rsp+0x8],rsi
    87b5:	call   5940 <__errno_location@plt>
    87ba:	mov    rsi,QWORD PTR [rsp+0x8]
    87bf:	mov    ebp,DWORD PTR [rax]
    87c1:	mov    r9d,r15d
    87c4:	mov    rdi,QWORD PTR [rsp]
    87c8:	lea    rdx,[rip+0x19219]        # 219e8 <__PRETTY_FUNCTION__.12816+0x2a8>
    87cf:	mov    rbx,rax
    87d2:	shr    r9d,0x1c
    87d6:	xor    eax,eax
    87d8:	mov    ecx,r13d
    87db:	mov    r8,rsi
    87de:	mov    esi,0x1
    87e3:	call   5d50 <xc_report_error@plt>
    87e8:	mov    DWORD PTR [rbx],ebp
    87ea:	mov    eax,0xffffffff
    87ef:	jmp    84f0 <process_vcpu_basic+0x170>
    87f4:	nop    DWORD PTR [rax+0x0]
    87f8:	mov    r13,QWORD PTR [rax+0x38]
    87fc:	jmp    873e <process_vcpu_basic+0x3be>
    8801:	nop    DWORD PTR [rax+0x0]
    8808:	call   64a0 <mfn_to_cr3@plt>
    880d:	mov    QWORD PTR [rsp+0x13a0],rax
    8815:	jmp    85c8 <process_vcpu_basic+0x248>
    881a:	nop    WORD PTR [rax+rax*1+0x0]
    8820:	call   5940 <__errno_location@plt>
    8825:	mov    rdi,QWORD PTR [rsp]
    8829:	mov    r12d,DWORD PTR [rax]
    882c:	lea    rdx,[rip+0x18fce]        # 21801 <__PRETTY_FUNCTION__.12816+0xc1>
    8833:	mov    rbp,rax
    8836:	mov    ecx,r13d
    8839:	xor    eax,eax
    883b:	mov    esi,0x1
    8840:	call   5d50 <xc_report_error@plt>
    8845:	mov    DWORD PTR [rbp+0x0],r12d
    8849:	mov    rsi,r15
    884c:	mov    rdi,rbx
    884f:	call   5d90 <dump_bad_pseudophysmap_entry@plt>
    8854:	mov    eax,0xffffffff
    8859:	jmp    84f0 <process_vcpu_basic+0x170>
    885e:	xchg   ax,ax
    8860:	mov    rsi,r13
    8863:	mov    rdi,rbx
    8866:	call   7fa0 <pfn_to_mfn>
    886b:	mov    rdi,rbx
    886e:	mov    rsi,rax
    8871:	mov    r13,rax
    8874:	call   5990 <mfn_in_pseudophysmap@plt>
    8879:	test   al,al
    887b:	je     89f9 <process_vcpu_basic+0x679>
    8881:	cmp    DWORD PTR [rbx+0x160],0x8
    8888:	mov    QWORD PTR [rbx+0x128],r13
    888f:	je     8a41 <process_vcpu_basic+0x6c1>
    8895:	mov    DWORD PTR [r12+0x2c],r13d
    889a:	cmp    DWORD PTR [rbx+0x160],0x8
    88a1:	mov    eax,DWORD PTR [rbx+0x138]
    88a7:	je     8a55 <process_vcpu_basic+0x6d5>
    88ad:	mov    DWORD PTR [r12+0x30],eax
    88b2:	cmp    DWORD PTR [rbx+0x160],0x8
    88b9:	je     8a4b <process_vcpu_basic+0x6cb>
    88bf:	mov    r13d,DWORD PTR [r12+0x34]
    88c4:	cmp    QWORD PTR [rbx+0x188],r13
    88cb:	jb     89e0 <process_vcpu_basic+0x660>
    88d1:	mov    rsi,r13
    88d4:	mov    rdi,rbx
    88d7:	call   7fa0 <pfn_to_mfn>
    88dc:	mov    rdi,rbx
    88df:	mov    rsi,rax
    88e2:	mov    r13,rax
    88e5:	call   5990 <mfn_in_pseudophysmap@plt>
    88ea:	test   al,al
    88ec:	je     8a5f <process_vcpu_basic+0x6df>
    88f2:	cmp    DWORD PTR [rbx+0x160],0x8
    88f9:	mov    QWORD PTR [rbx+0x130],r13
    8900:	je     8a73 <process_vcpu_basic+0x6f3>
    8906:	mov    DWORD PTR [r12+0x34],r13d
    890b:	cmp    DWORD PTR [rbx+0x160],0x8
    8912:	mov    eax,DWORD PTR [rbx+0x13c]
    8918:	je     8a8b <process_vcpu_basic+0x70b>
    891e:	mov    DWORD PTR [r12+0x38],eax
    8923:	cmp    DWORD PTR [rbx+0x160],0x8
    892a:	mov    rax,QWORD PTR [rbx+0x188]
    8931:	je     8a7d <process_vcpu_basic+0x6fd>
    8937:	add    eax,0x1
    893a:	mov    DWORD PTR [r12+0x20],eax
    893f:	cmp    DWORD PTR [rbx+0x160],0x8
    8946:	mov    rax,QWORD PTR [rbx+0x40]
    894a:	je     8ab6 <process_vcpu_basic+0x736>
    8950:	shl    eax,0xc
    8953:	mov    DWORD PTR [r12+0x24],eax
    8958:	cmp    DWORD PTR [rbx+0x160],0x8
    895f:	je     8a95 <process_vcpu_basic+0x715>
    8965:	mov    DWORD PTR [r12+0x28],0x0
    896e:	mov    esi,0x1000
    8973:	mov    rdi,r12
    8976:	call   61b0 <munmap@plt>
    897b:	mov    eax,DWORD PTR [rbx+0x160]
    8981:	jmp    83ea <process_vcpu_basic+0x6a>
    8986:	nop    WORD PTR cs:[rax+rax*1+0x0]
    8990:	mov    QWORD PTR [rsp+0x278],r13
    8998:	jmp    8708 <process_vcpu_basic+0x388>
    899d:	call   5940 <__errno_location@plt>
    89a2:	mov    r14,QWORD PTR [rsp]
    89a6:	mov    ebp,DWORD PTR [rax]
    89a8:	mov    rbx,rax
    89ab:	mov    esi,ebp
    89ad:	mov    rdi,r14
    89b0:	call   6570 <xc_strerror@plt>
    89b5:	mov    r8d,DWORD PTR [rbx]
    89b8:	lea    rdx,[rip+0x18f81]        # 21940 <__PRETTY_FUNCTION__.12816+0x200>
    89bf:	mov    r9,rax
    89c2:	mov    rcx,r13
    89c5:	xor    eax,eax
    89c7:	mov    esi,0x1
    89cc:	mov    rdi,r14
    89cf:	call   5d50 <xc_report_error@plt>
    89d4:	mov    DWORD PTR [rbx],ebp
    89d6:	mov    eax,0xffffffff
    89db:	jmp    84f0 <process_vcpu_basic+0x170>
    89e0:	call   5940 <__errno_location@plt>
    89e5:	mov    rcx,r13
    89e8:	mov    rbx,rax
    89eb:	mov    ebp,DWORD PTR [rax]
    89ed:	lea    rdx,[rip+0x18dd7]        # 217cb <__PRETTY_FUNCTION__.12816+0x8b>
    89f4:	jmp    875f <process_vcpu_basic+0x3df>
    89f9:	call   5940 <__errno_location@plt>
    89fe:	mov    r14d,DWORD PTR [rax]
    8a01:	lea    rdx,[rip+0x18daa]        # 217b2 <__PRETTY_FUNCTION__.12816+0x72>
    8a08:	mov    rbp,rax
    8a0b:	mov    rdi,QWORD PTR [rsp]
    8a0f:	xor    eax,eax
    8a11:	mov    esi,0x1
    8a16:	call   5d50 <xc_report_error@plt>
    8a1b:	mov    rsi,r13
    8a1e:	mov    rdi,rbx
    8a21:	mov    DWORD PTR [rbp+0x0],r14d
    8a25:	call   5d90 <dump_bad_pseudophysmap_entry@plt>
    8a2a:	mov    esi,0x1000
    8a2f:	mov    rdi,r12
    8a32:	call   61b0 <munmap@plt>
    8a37:	mov    eax,0xffffffff
    8a3c:	jmp    84f0 <process_vcpu_basic+0x170>
    8a41:	mov    QWORD PTR [r12+0x38],r13
    8a46:	jmp    889a <process_vcpu_basic+0x51a>
    8a4b:	mov    r13,QWORD PTR [r12+0x48]
    8a50:	jmp    88c4 <process_vcpu_basic+0x544>
    8a55:	mov    DWORD PTR [r12+0x40],eax
    8a5a:	jmp    88b2 <process_vcpu_basic+0x532>
    8a5f:	call   5940 <__errno_location@plt>
    8a64:	lea    rdx,[rip+0x18d7e]        # 217e9 <__PRETTY_FUNCTION__.12816+0xa9>
    8a6b:	mov    rbp,rax
    8a6e:	mov    r14d,DWORD PTR [rax]
    8a71:	jmp    8a0b <process_vcpu_basic+0x68b>
    8a73:	mov    QWORD PTR [r12+0x48],r13
    8a78:	jmp    890b <process_vcpu_basic+0x58b>
    8a7d:	add    rax,0x1
    8a81:	mov    QWORD PTR [r12+0x20],rax
    8a86:	jmp    893f <process_vcpu_basic+0x5bf>
    8a8b:	mov    DWORD PTR [r12+0x50],eax
    8a90:	jmp    8923 <process_vcpu_basic+0x5a3>
    8a95:	mov    DWORD PTR [r12+0x30],0x0
    8a9e:	mov    esi,0x1000
    8aa3:	mov    rdi,r12
    8aa6:	call   61b0 <munmap@plt>
    8aab:	mov    eax,DWORD PTR [rbx+0x160]
    8ab1:	jmp    83ea <process_vcpu_basic+0x6a>
    8ab6:	shl    rax,0xc
    8aba:	mov    QWORD PTR [r12+0x28],rax
    8abf:	jmp    8958 <process_vcpu_basic+0x5d8>
    8ac4:	call   5940 <__errno_location@plt>
    8ac9:	mov    rdi,QWORD PTR [rsp]
    8acd:	lea    rdx,[rip+0x18ebc]        # 21990 <__PRETTY_FUNCTION__.12816+0x250>
    8ad4:	mov    rbx,rax
    8ad7:	mov    r8d,0x1c00
    8add:	xor    eax,eax
    8adf:	mov    ecx,r12d
    8ae2:	mov    esi,0x1
    8ae7:	call   5d50 <xc_report_error@plt>
    8aec:	mov    DWORD PTR [rbx],0x22
    8af2:	mov    eax,0xffffffff
    8af7:	jmp    84f0 <process_vcpu_basic+0x170>
    8afc:	mov    QWORD PTR [rsp+0x8],rsi
    8b01:	call   5940 <__errno_location@plt>
    8b06:	mov    rsi,QWORD PTR [rsp+0x8]
    8b0b:	mov    ebp,DWORD PTR [rax]
    8b0d:	mov    r8d,r12d
    8b10:	lea    rdx,[rip+0x18ef9]        # 21a10 <__PRETTY_FUNCTION__.12816+0x2d0>
    8b17:	mov    rbx,rax
    8b1a:	mov    r9d,r13d
    8b1d:	shr    r8d,0x1c
    8b21:	mov    rcx,rsi
    8b24:	mov    rdi,QWORD PTR [rsp]
    8b28:	xor    eax,eax
    8b2a:	mov    esi,0x1
    8b2f:	call   5d50 <xc_report_error@plt>
    8b34:	mov    DWORD PTR [rbx],ebp
    8b36:	mov    eax,0xffffffff
    8b3b:	jmp    84f0 <process_vcpu_basic+0x170>
    8b40:	mov    QWORD PTR [rsp+0x8],rsi
    8b45:	call   5940 <__errno_location@plt>
    8b4a:	mov    rsi,QWORD PTR [rsp+0x8]
    8b4f:	mov    ebp,DWORD PTR [rax]
    8b51:	mov    r8d,r12d
    8b54:	mov    rdi,QWORD PTR [rsp]
    8b58:	lea    rdx,[rip+0x18db9]        # 21918 <__PRETTY_FUNCTION__.12816+0x1d8>
    8b5f:	mov    rbx,rax
    8b62:	shr    r8d,0x1c
    8b66:	xor    eax,eax
    8b68:	mov    rcx,rsi
    8b6b:	mov    esi,0x1
    8b70:	call   5d50 <xc_report_error@plt>
    8b75:	mov    DWORD PTR [rbx],ebp
    8b77:	mov    eax,0xffffffff
    8b7c:	jmp    84f0 <process_vcpu_basic+0x170>
    8b81:	mov    QWORD PTR [rsp+0x8],rsi
    8b86:	call   5940 <__errno_location@plt>
    8b8b:	mov    rsi,QWORD PTR [rsp+0x8]
    8b90:	mov    ebp,DWORD PTR [rax]
    8b92:	lea    rdx,[rip+0x18d57]        # 218f0 <__PRETTY_FUNCTION__.12816+0x1b0>
    8b99:	mov    rbx,rax
    8b9c:	mov    rcx,rsi
    8b9f:	mov    rdi,QWORD PTR [rsp]
    8ba3:	xor    eax,eax
    8ba5:	mov    esi,0x1
    8baa:	call   5d50 <xc_report_error@plt>
    8baf:	mov    DWORD PTR [rbx],ebp
    8bb1:	mov    eax,0xffffffff
    8bb6:	jmp    84f0 <process_vcpu_basic+0x170>
    8bbb:	call   5940 <__errno_location@plt>
    8bc0:	mov    rdi,QWORD PTR [rsp]
    8bc4:	mov    r12d,DWORD PTR [rax]
    8bc7:	lea    rdx,[rip+0x18bcd]        # 2179b <__PRETTY_FUNCTION__.12816+0x5b>
    8bce:	mov    rbp,rax
    8bd1:	mov    esi,0x1
    8bd6:	xor    eax,eax
    8bd8:	call   5d50 <xc_report_error@plt>
    8bdd:	mov    DWORD PTR [rbp+0x0],r12d
    8be1:	mov    rsi,r13
    8be4:	mov    rdi,rbx
    8be7:	call   5d90 <dump_bad_pseudophysmap_entry@plt>
    8bec:	mov    eax,0xffffffff
    8bf1:	jmp    84f0 <process_vcpu_basic+0x170>
    8bf6:	call   5940 <__errno_location@plt>
    8bfb:	mov    r13d,DWORD PTR [rax]
    8bfe:	lea    rdx,[rip+0x18c31]        # 21836 <__PRETTY_FUNCTION__.12816+0xf6>
    8c05:	mov    rbp,rax
    8c08:	mov    rdi,QWORD PTR [rsp]
    8c0c:	xor    eax,eax
    8c0e:	mov    esi,0x1
    8c13:	call   5d50 <xc_report_error@plt>
    8c18:	mov    DWORD PTR [rbp+0x0],r13d
    8c1c:	mov    rsi,r12
    8c1f:	mov    rdi,rbx
    8c22:	call   5d90 <dump_bad_pseudophysmap_entry@plt>
    8c27:	mov    eax,0xffffffff
    8c2c:	jmp    84f0 <process_vcpu_basic+0x170>
    8c31:	mov    QWORD PTR [rsp+0x8],rax
    8c36:	call   5940 <__errno_location@plt>
    8c3b:	mov    rsi,QWORD PTR [rsp+0x8]
    8c40:	mov    rbx,rax
    8c43:	mov    ebp,DWORD PTR [rax]
    8c45:	lea    rdx,[rip+0x18bce]        # 2181a <__PRETTY_FUNCTION__.12816+0xda>
    8c4c:	mov    rcx,rsi
    8c4f:	jmp    8b9f <process_vcpu_basic+0x81f>
    8c54:	mov    QWORD PTR [rsp+0x8],rsi
    8c59:	call   5940 <__errno_location@plt>
    8c5e:	mov    rsi,QWORD PTR [rsp+0x8]
    8c63:	mov    r8d,r12d
    8c66:	mov    rbx,rax
    8c69:	mov    ebp,DWORD PTR [rax]
    8c6b:	mov    r9d,0x4
    8c71:	shr    r8d,0x1c
    8c75:	lea    rdx,[rip+0x18dc4]        # 21a40 <__PRETTY_FUNCTION__.12816+0x300>
    8c7c:	mov    rcx,rsi
    8c7f:	jmp    8b24 <process_vcpu_basic+0x7a4>
    8c84:	mov    QWORD PTR [rsp+0x8],rsi
    8c89:	call   5940 <__errno_location@plt>
    8c8e:	mov    rsi,QWORD PTR [rsp+0x8]
    8c93:	mov    rbx,rax
    8c96:	mov    ebp,DWORD PTR [rax]
    8c98:	lea    rdx,[rip+0x18ba7]        # 21846 <__PRETTY_FUNCTION__.12816+0x106>
    8c9f:	mov    rcx,rsi
    8ca2:	jmp    8b9f <process_vcpu_basic+0x81f>
    8ca7:	call   5940 <__errno_location@plt>
    8cac:	lea    rdx,[rip+0x18baf]        # 21862 <__PRETTY_FUNCTION__.12816+0x122>
    8cb3:	mov    rbp,rax
    8cb6:	mov    r13d,DWORD PTR [rax]
    8cb9:	jmp    8c08 <process_vcpu_basic+0x888>
    8cbe:	call   5b80 <__stack_chk_fail@plt>
    8cc3:	nop    DWORD PTR [rax]
    8cc6:	nop    WORD PTR cs:[rax+rax*1+0x0]

0000000000008cd0 <x86_pv_stream_complete>:
    8cd0:	push   r15
    8cd2:	push   r14
    8cd4:	mov    r15,rdi
    8cd7:	push   r13
    8cd9:	push   r12
    8cdb:	push   rbp
    8cdc:	push   rbx
    8cdd:	sub    rsp,0xf8
    8ce4:	mov    rax,QWORD PTR fs:0x28
    8ced:	mov    QWORD PTR [rsp+0xe8],rax
    8cf5:	xor    eax,eax
    8cf7:	mov    rax,QWORD PTR [rdi]
    8cfa:	mov    edi,DWORD PTR [rdi+0x1d0]
    8d00:	test   edi,edi
    8d02:	mov    QWORD PTR [rsp+0x8],rax
    8d07:	je     8f4d <x86_pv_stream_complete+0x27d>
    8d0d:	lea    r12,[rsp+0x50]
    8d12:	xor    ebp,ebp
    8d14:	lea    rax,[r12+0x10]
    8d19:	mov    QWORD PTR [rsp+0x10],rax
    8d1e:	lea    rax,[rsp+0x20]
    8d23:	mov    QWORD PTR [rsp],rax
    8d27:	mov    r13,QWORD PTR [r15+0x1c8]
    8d2e:	mov    ebx,ebp
    8d30:	shl    rbx,0x6
    8d34:	add    r13,rbx
    8d37:	cmp    QWORD PTR [r13+0x0],0x0
    8d3c:	je     8f90 <x86_pv_stream_complete+0x2c0>
    8d42:	mov    esi,ebp
    8d44:	mov    rdi,r15
    8d47:	call   8380 <process_vcpu_basic>
    8d4c:	test   eax,eax
    8d4e:	mov    r11d,eax
    8d51:	jne    8f60 <x86_pv_stream_complete+0x290>
    8d57:	cmp    QWORD PTR [r13+0x8],0x0
    8d5c:	je     8da6 <x86_pv_stream_complete+0xd6>
    8d5e:	mov    rax,QWORD PTR [r15+0x1c8]
    8d65:	mov    edx,DWORD PTR [r15+0x8]
    8d69:	mov    ecx,0x80
    8d6e:	mov    DWORD PTR [rsp+0x50],0x2a
    8d76:	mov    r14,QWORD PTR [r15]
    8d79:	mov    rdi,QWORD PTR [rsp+0x10]
    8d7e:	add    rax,rbx
    8d81:	mov    WORD PTR [rsp+0x58],dx
    8d86:	mov    rdx,QWORD PTR [rax+0x28]
    8d8a:	mov    rsi,QWORD PTR [rax+0x8]
    8d8e:	call   5e70 <__memcpy_chk@plt>
    8d93:	mov    rsi,r12
    8d96:	mov    rdi,r14
    8d99:	call   59d0 <xc_domctl@plt>
    8d9e:	test   eax,eax
    8da0:	jne    932c <x86_pv_stream_complete+0x65c>
    8da6:	cmp    QWORD PTR [r13+0x10],0x0
    8dab:	je     8e75 <x86_pv_stream_complete+0x1a5>
    8db1:	mov    r9,QWORD PTR [r15+0x1c8]
    8db8:	mov    r14,QWORD PTR [r15]
    8dbb:	mov    QWORD PTR [rsp+0x20],0x0
    8dc4:	mov    QWORD PTR [rsp+0x28],0x0
    8dcd:	mov    DWORD PTR [rsp+0x30],0x0
    8dd5:	mov    QWORD PTR [rsp+0x38],0xffffffffffffffff
    8dde:	add    r9,rbx
    8de1:	mov    QWORD PTR [rsp+0x40],0x0
    8dea:	mov    rsi,QWORD PTR [rsp]
    8dee:	mov    rdx,QWORD PTR [r9+0x30]
    8df2:	mov    rdi,r14
    8df5:	mov    QWORD PTR [rsp+0x18],r9
    8dfa:	call   6220 <xc__hypercall_buffer_alloc@plt>
    8dff:	test   rax,rax
    8e02:	mov    r9,QWORD PTR [rsp+0x18]
    8e07:	je     936e <x86_pv_stream_complete+0x69e>
    8e0d:	mov    rcx,QWORD PTR [rsp+0x28]
    8e12:	mov    edx,DWORD PTR [r15+0x8]
    8e16:	mov    rdi,rax
    8e19:	mov    DWORD PTR [rsp+0x50],0x3e
    8e21:	mov    DWORD PTR [rsp+0x60],ebp
    8e25:	test   rcx,rcx
    8e28:	cmove  rcx,QWORD PTR [rsp]
    8e2d:	mov    WORD PTR [rsp+0x58],dx
    8e32:	mov    rdx,QWORD PTR [r9+0x30]
    8e36:	mov    QWORD PTR [rsp+0x70],rdx
    8e3b:	mov    rcx,QWORD PTR [rcx]
    8e3e:	mov    QWORD PTR [rsp+0x78],rcx
    8e43:	mov    rsi,QWORD PTR [r9+0x10]
    8e47:	call   5eb0 <memcpy@plt>
    8e4c:	mov    rsi,r12
    8e4f:	mov    rdi,r14
    8e52:	call   59d0 <xc_domctl@plt>
    8e57:	test   eax,eax
    8e59:	jne    8fc8 <x86_pv_stream_complete+0x2f8>
    8e5f:	mov    rsi,QWORD PTR [rsp+0x28]
    8e64:	test   rsi,rsi
    8e67:	je     93e0 <x86_pv_stream_complete+0x710>
    8e6d:	mov    rdi,r14
    8e70:	call   6190 <xc__hypercall_buffer_free@plt>
    8e75:	cmp    QWORD PTR [r13+0x18],0x0
    8e7a:	je     8f3d <x86_pv_stream_complete+0x26d>
    8e80:	add    rbx,QWORD PTR [r15+0x1c8]
    8e87:	mov    r14,QWORD PTR [r15]
    8e8a:	mov    QWORD PTR [rsp+0x20],0x0
    8e93:	mov    QWORD PTR [rsp+0x28],0x0
    8e9c:	mov    DWORD PTR [rsp+0x30],0x0
    8ea4:	mov    QWORD PTR [rsp+0x38],0xffffffffffffffff
    8ead:	mov    QWORD PTR [rsp+0x40],0x0
    8eb6:	mov    rsi,QWORD PTR [rsp]
    8eba:	mov    rdi,r14
    8ebd:	mov    rdx,QWORD PTR [rbx+0x38]
    8ec1:	call   6220 <xc__hypercall_buffer_alloc@plt>
    8ec6:	test   rax,rax
    8ec9:	je     93a7 <x86_pv_stream_complete+0x6d7>
    8ecf:	mov    edx,DWORD PTR [r15+0x8]
    8ed3:	mov    DWORD PTR [rsp+0x50],0x49
    8edb:	mov    rdi,rax
    8ede:	mov    DWORD PTR [rsp+0x60],ebp
    8ee2:	mov    WORD PTR [rsp+0x58],dx
    8ee7:	mov    rdx,QWORD PTR [rbx+0x38]
    8eeb:	mov    rcx,rdx
    8eee:	shr    rcx,0x4
    8ef2:	mov    DWORD PTR [rsp+0x64],ecx
    8ef6:	mov    rcx,QWORD PTR [rsp+0x28]
    8efb:	test   rcx,rcx
    8efe:	cmove  rcx,QWORD PTR [rsp]
    8f03:	mov    rcx,QWORD PTR [rcx]
    8f06:	mov    QWORD PTR [rsp+0x68],rcx
    8f0b:	mov    rsi,QWORD PTR [rbx+0x18]
    8f0f:	call   5eb0 <memcpy@plt>
    8f14:	mov    rsi,r12
    8f17:	mov    rdi,r14
    8f1a:	call   59d0 <xc_domctl@plt>
    8f1f:	test   eax,eax
    8f21:	jne    9038 <x86_pv_stream_complete+0x368>
    8f27:	mov    rsi,QWORD PTR [rsp+0x28]
    8f2c:	test   rsi,rsi
    8f2f:	je     93e9 <x86_pv_stream_complete+0x719>
    8f35:	mov    rdi,r14
    8f38:	call   6190 <xc__hypercall_buffer_free@plt>
    8f3d:	add    ebp,0x1
    8f40:	cmp    ebp,DWORD PTR [r15+0x1d0]
    8f47:	jb     8d27 <x86_pv_stream_complete+0x57>
    8f4d:	mov    rdi,r15
    8f50:	call   8000 <pin_pagetables>
    8f55:	test   eax,eax
    8f57:	mov    r11d,eax
    8f5a:	je     9068 <x86_pv_stream_complete+0x398>
    8f60:	mov    rcx,QWORD PTR [rsp+0xe8]
    8f68:	xor    rcx,QWORD PTR fs:0x28
    8f71:	mov    eax,r11d
    8f74:	jne    93db <x86_pv_stream_complete+0x70b>
    8f7a:	add    rsp,0xf8
    8f81:	pop    rbx
    8f82:	pop    rbp
    8f83:	pop    r12
    8f85:	pop    r13
    8f87:	pop    r14
    8f89:	pop    r15
    8f8b:	ret    
    8f8c:	nop    DWORD PTR [rax+0x0]
    8f90:	test   ebp,ebp
    8f92:	jne    8d57 <x86_pv_stream_complete+0x87>
    8f98:	call   5940 <__errno_location@plt>
    8f9d:	mov    rdi,QWORD PTR [rsp+0x8]
    8fa2:	mov    ebp,DWORD PTR [rax]
    8fa4:	lea    rdx,[rip+0x18af5]        # 21aa0 <__PRETTY_FUNCTION__.12816+0x360>
    8fab:	mov    rbx,rax
    8fae:	mov    esi,0x1
    8fb3:	xor    eax,eax
    8fb5:	call   5d50 <xc_report_error@plt>
    8fba:	mov    DWORD PTR [rbx],ebp
    8fbc:	mov    r11d,0xffffffff
    8fc2:	jmp    8f60 <x86_pv_stream_complete+0x290>
    8fc4:	nop    DWORD PTR [rax+0x0]
    8fc8:	mov    DWORD PTR [rsp+0x8],eax
    8fcc:	call   5940 <__errno_location@plt>
    8fd1:	mov    r12d,DWORD PTR [rax]
    8fd4:	mov    rbx,rax
    8fd7:	mov    rdi,r14
    8fda:	mov    esi,r12d
    8fdd:	call   6570 <xc_strerror@plt>
    8fe2:	mov    r8d,DWORD PTR [rbx]
    8fe5:	lea    rdx,[rip+0x18b44]        # 21b30 <__PRETTY_FUNCTION__.12816+0x3f0>
    8fec:	mov    r9,rax
    8fef:	mov    ecx,ebp
    8ff1:	mov    esi,0x1
    8ff6:	xor    eax,eax
    8ff8:	mov    rdi,r14
    8ffb:	call   5d50 <xc_report_error@plt>
    9000:	mov    DWORD PTR [rbx],r12d
    9003:	mov    rsi,QWORD PTR [rsp+0x28]
    9008:	mov    r11d,DWORD PTR [rsp+0x8]
    900d:	test   rsi,rsi
    9010:	jne    92d8 <x86_pv_stream_complete+0x608>
    9016:	mov    rsi,QWORD PTR [rsp]
    901a:	mov    rdi,r14
    901d:	mov    DWORD PTR [rsp+0x8],r11d
    9022:	call   6190 <xc__hypercall_buffer_free@plt>
    9027:	mov    r11d,DWORD PTR [rsp+0x8]
    902c:	jmp    8f60 <x86_pv_stream_complete+0x290>
    9031:	nop    DWORD PTR [rax+0x0]
    9038:	mov    DWORD PTR [rsp+0x8],eax
    903c:	call   5940 <__errno_location@plt>
    9041:	mov    r12d,DWORD PTR [rax]
    9044:	mov    rbx,rax
    9047:	mov    rdi,r14
    904a:	mov    esi,r12d
    904d:	call   6570 <xc_strerror@plt>
    9052:	mov    r8d,DWORD PTR [rbx]
    9055:	mov    r9,rax
    9058:	mov    ecx,ebp
    905a:	lea    rdx,[rip+0x18b37]        # 21b98 <__PRETTY_FUNCTION__.12816+0x458>
    9061:	jmp    8ff1 <x86_pv_stream_complete+0x321>
    9063:	nop    DWORD PTR [rax+rax*1+0x0]
    9068:	mov    esi,DWORD PTR [r15+0x190]
    906f:	mov    rbp,QWORD PTR [r15]
    9072:	mov    rcx,QWORD PTR [r15+0x1a0]
    9079:	test   esi,esi
    907b:	je     9167 <x86_pv_stream_complete+0x497>
    9081:	mov    rsi,QWORD PTR [rcx]
    9084:	cmp    QWORD PTR [r15+0x188],rsi
    908b:	jb     9241 <x86_pv_stream_complete+0x571>
    9091:	mov    rax,QWORD PTR [r15+0x1c0]
    9098:	mov    r12d,DWORD PTR [rax+rsi*4]
    909c:	test   r12d,r12d
    909f:	jne    9286 <x86_pv_stream_complete+0x5b6>
    90a5:	xor    r13d,r13d
    90a8:	xor    ebx,ebx
    90aa:	jmp    9104 <x86_pv_stream_complete+0x434>
    90ac:	nop    DWORD PTR [rax+0x0]
    90b0:	mov    rax,QWORD PTR [r15+0x1a0]
    90b7:	add    ebx,0x1
    90ba:	mov    QWORD PTR [rax+r13*1],r12
    90be:	mov    r11d,DWORD PTR [r15+0x190]
    90c5:	cmp    ebx,r11d
    90c8:	jae    9160 <x86_pv_stream_complete+0x490>
    90ce:	mov    rdx,QWORD PTR [r15+0x1a0]
    90d5:	mov    eax,ebx
    90d7:	lea    r13,[rax*8+0x0]
    90df:	mov    rsi,QWORD PTR [rdx+rax*8]
    90e3:	cmp    rsi,QWORD PTR [r15+0x188]
    90ea:	ja     9248 <x86_pv_stream_complete+0x578>
    90f0:	mov    rax,QWORD PTR [r15+0x1c0]
    90f7:	mov    r12d,DWORD PTR [rax+rsi*4]
    90fb:	test   r12d,r12d
    90fe:	jne    9290 <x86_pv_stream_complete+0x5c0>
    9104:	mov    rdi,r15
    9107:	call   7fa0 <pfn_to_mfn>
    910c:	mov    rdi,r15
    910f:	mov    rsi,rax
    9112:	mov    r12,rax
    9115:	call   5990 <mfn_in_pseudophysmap@plt>
    911a:	test   al,al
    911c:	jne    90b0 <x86_pv_stream_complete+0x3e0>
    911e:	call   5940 <__errno_location@plt>
    9123:	mov    r14d,DWORD PTR [rax]
    9126:	lea    rdx,[rip+0x18afb]        # 21c28 <__PRETTY_FUNCTION__.12816+0x4e8>
    912d:	mov    r13,rax
    9130:	mov    ecx,ebx
    9132:	mov    esi,0x1
    9137:	mov    rdi,rbp
    913a:	xor    eax,eax
    913c:	call   5d50 <xc_report_error@plt>
    9141:	mov    DWORD PTR [r13+0x0],r14d
    9145:	mov    rsi,r12
    9148:	mov    rdi,r15
    914b:	call   5d90 <dump_bad_pseudophysmap_entry@plt>
    9150:	mov    r11d,0xffffffff
    9156:	jmp    8f60 <x86_pv_stream_complete+0x290>
    915b:	nop    DWORD PTR [rax+rax*1+0x0]
    9160:	mov    rcx,QWORD PTR [r15+0x1a0]
    9167:	mov    esi,DWORD PTR [r15+0x8]
    916b:	mov    r8d,r11d
    916e:	mov    edx,0x2
    9173:	mov    rdi,rbp
    9176:	call   5f50 <xc_map_foreign_pages@plt>
    917b:	test   rax,rax
    917e:	mov    rcx,rax
    9181:	je     92ed <x86_pv_stream_complete+0x61d>
    9187:	mov    rax,QWORD PTR [r15+0x188]
    918e:	mov    rsi,QWORD PTR [r15+0x198]
    9195:	mov    rdi,rcx
    9198:	lea    rdx,[rax+0x1]
    919c:	mov    eax,DWORD PTR [r15+0x160]
    91a3:	imul   rdx,rax
    91a7:	call   5eb0 <memcpy@plt>
    91ac:	mov    esi,DWORD PTR [r15+0x190]
    91b3:	mov    rdi,rax
    91b6:	shl    rsi,0xc
    91ba:	call   61b0 <munmap@plt>
    91bf:	mov    eax,DWORD PTR [r15+0x140]
    91c6:	sub    rsp,0x8
    91ca:	mov    rcx,QWORD PTR [r15+0x130]
    91d1:	mov    esi,DWORD PTR [r15+0x8]
    91d5:	mov    r9d,DWORD PTR [r15+0x144]
    91dc:	xor    edx,edx
    91de:	mov    r8,QWORD PTR [r15+0x128]
    91e5:	push   rax
    91e6:	mov    rdi,QWORD PTR [rsp+0x18]
    91eb:	call   61e0 <xc_dom_gnttab_seed@plt>
    91f0:	mov    r11d,eax
    91f3:	test   r11d,r11d
    91f6:	pop    rax
    91f7:	pop    rdx
    91f8:	je     8f60 <x86_pv_stream_complete+0x290>
    91fe:	mov    DWORD PTR [rsp],r11d
    9202:	call   5940 <__errno_location@plt>
    9207:	mov    r14,QWORD PTR [rsp+0x8]
    920c:	mov    ebp,DWORD PTR [rax]
    920e:	mov    rbx,rax
    9211:	mov    esi,ebp
    9213:	mov    rdi,r14
    9216:	call   6570 <xc_strerror@plt>
    921b:	mov    ecx,DWORD PTR [rbx]
    921d:	lea    rdx,[rip+0x18a4c]        # 21c70 <__PRETTY_FUNCTION__.12816+0x530>
    9224:	mov    r8,rax
    9227:	mov    esi,0x1
    922c:	mov    rdi,r14
    922f:	xor    eax,eax
    9231:	call   5d50 <xc_report_error@plt>
    9236:	mov    DWORD PTR [rbx],ebp
    9238:	mov    r11d,DWORD PTR [rsp]
    923c:	jmp    8f60 <x86_pv_stream_complete+0x290>
    9241:	xor    ebx,ebx
    9243:	nop    DWORD PTR [rax+rax*1+0x0]
    9248:	mov    QWORD PTR [rsp],rsi
    924c:	call   5940 <__errno_location@plt>
    9251:	mov    rsi,QWORD PTR [rsp]
    9255:	mov    r13d,DWORD PTR [rax]
    9258:	lea    rdx,[rip+0x18961]        # 21bc0 <__PRETTY_FUNCTION__.12816+0x480>
    925f:	mov    r12,rax
    9262:	mov    r8d,ebx
    9265:	mov    rdi,rbp
    9268:	xor    eax,eax
    926a:	mov    rcx,rsi
    926d:	mov    esi,0x1
    9272:	call   5d50 <xc_report_error@plt>
    9277:	mov    DWORD PTR [r12],r13d
    927b:	mov    r11d,0xffffffff
    9281:	jmp    8f60 <x86_pv_stream_complete+0x290>
    9286:	xor    ebx,ebx
    9288:	nop    DWORD PTR [rax+rax*1+0x0]
    9290:	mov    QWORD PTR [rsp],rsi
    9294:	call   5940 <__errno_location@plt>
    9299:	mov    rsi,QWORD PTR [rsp]
    929d:	mov    r14d,DWORD PTR [rax]
    92a0:	mov    r9d,r12d
    92a3:	lea    rdx,[rip+0x18946]        # 21bf0 <__PRETTY_FUNCTION__.12816+0x4b0>
    92aa:	mov    r13,rax
    92ad:	shr    r9d,0x1c
    92b1:	mov    r8d,ebx
    92b4:	mov    rdi,rbp
    92b7:	xor    eax,eax
    92b9:	mov    rcx,rsi
    92bc:	mov    esi,0x1
    92c1:	call   5d50 <xc_report_error@plt>
    92c6:	mov    DWORD PTR [r13+0x0],r14d
    92ca:	mov    r11d,0xffffffff
    92d0:	jmp    8f60 <x86_pv_stream_complete+0x290>
    92d5:	nop    DWORD PTR [rax]
    92d8:	mov    rdi,r14
    92db:	mov    DWORD PTR [rsp],r11d
    92df:	call   6190 <xc__hypercall_buffer_free@plt>
    92e4:	mov    r11d,DWORD PTR [rsp]
    92e8:	jmp    8f60 <x86_pv_stream_complete+0x290>
    92ed:	call   5940 <__errno_location@plt>
    92f2:	mov    r12d,DWORD PTR [rax]
    92f5:	mov    rbx,rax
    92f8:	mov    rdi,rbp
    92fb:	mov    esi,r12d
    92fe:	call   6570 <xc_strerror@plt>
    9303:	mov    ecx,DWORD PTR [rbx]
    9305:	lea    rdx,[rip+0x1893c]        # 21c48 <__PRETTY_FUNCTION__.12816+0x508>
    930c:	mov    r8,rax
    930f:	mov    esi,0x1
    9314:	mov    rdi,rbp
    9317:	xor    eax,eax
    9319:	call   5d50 <xc_report_error@plt>
    931e:	mov    DWORD PTR [rbx],r12d
    9321:	mov    r11d,0xffffffff
    9327:	jmp    8f60 <x86_pv_stream_complete+0x290>
    932c:	call   5940 <__errno_location@plt>
    9331:	mov    r12d,DWORD PTR [rax]
    9334:	mov    rbx,rax
    9337:	mov    rdi,r14
    933a:	mov    esi,r12d
    933d:	call   6570 <xc_strerror@plt>
    9342:	mov    r8d,DWORD PTR [rbx]
    9345:	lea    rdx,[rip+0x1877c]        # 21ac8 <__PRETTY_FUNCTION__.12816+0x388>
    934c:	mov    r9,rax
    934f:	mov    ecx,ebp
    9351:	mov    esi,0x1
    9356:	mov    rdi,r14
    9359:	xor    eax,eax
    935b:	call   5d50 <xc_report_error@plt>
    9360:	mov    DWORD PTR [rbx],r12d
    9363:	mov    r11d,0xffffffff
    9369:	jmp    8f60 <x86_pv_stream_complete+0x290>
    936e:	mov    QWORD PTR [rsp],r9
    9372:	call   5940 <__errno_location@plt>
    9377:	mov    r9,QWORD PTR [rsp]
    937b:	mov    ebp,DWORD PTR [rax]
    937d:	lea    rdx,[rip+0x18774]        # 21af8 <__PRETTY_FUNCTION__.12816+0x3b8>
    9384:	mov    rbx,rax
    9387:	mov    esi,0x1
    938c:	mov    rdi,r14
    938f:	xor    eax,eax
    9391:	mov    rcx,QWORD PTR [r9+0x30]
    9395:	call   5d50 <xc_report_error@plt>
    939a:	mov    DWORD PTR [rbx],ebp
    939c:	mov    r11d,0xffffffff
    93a2:	jmp    8f60 <x86_pv_stream_complete+0x290>
    93a7:	call   5940 <__errno_location@plt>
    93ac:	mov    rcx,QWORD PTR [rbx+0x38]
    93b0:	mov    r12d,DWORD PTR [rax]
    93b3:	lea    rdx,[rip+0x187a6]        # 21b60 <__PRETTY_FUNCTION__.12816+0x420>
    93ba:	mov    rbp,rax
    93bd:	mov    esi,0x1
    93c2:	mov    rdi,r14
    93c5:	xor    eax,eax
    93c7:	call   5d50 <xc_report_error@plt>
    93cc:	mov    DWORD PTR [rbp+0x0],r12d
    93d0:	mov    r11d,0xffffffff
    93d6:	jmp    8f60 <x86_pv_stream_complete+0x290>
    93db:	call   5b80 <__stack_chk_fail@plt>
    93e0:	mov    rsi,QWORD PTR [rsp]
    93e4:	jmp    8e6d <x86_pv_stream_complete+0x19d>
    93e9:	mov    rsi,QWORD PTR [rsp]
    93ed:	mov    rdi,r14
    93f0:	call   6190 <xc__hypercall_buffer_free@plt>
    93f5:	jmp    8f3d <x86_pv_stream_complete+0x26d>
    93fa:	nop    WORD PTR [rax+rax*1+0x0]

0000000000009400 <x86_pv_setup>:
    9400:	push   r13
    9402:	push   r12
    9404:	push   rbp
    9405:	push   rbx
    9406:	sub    rsp,0x8
    940a:	mov    ebp,DWORD PTR [rdi+0x104]
    9410:	mov    r12,QWORD PTR [rdi]
    9413:	cmp    ebp,0x1
    9416:	jne    94b0 <x86_pv_setup+0xb0>
    941c:	mov    ebp,DWORD PTR [rdi+0x108]
    9422:	mov    rbx,rdi
    9425:	cmp    ebp,0x1000
    942b:	jne    9480 <x86_pv_setup+0x80>
    942d:	call   5cd0 <x86_pv_domain_info@plt>
    9432:	test   eax,eax
    9434:	je     9448 <x86_pv_setup+0x48>
    9436:	add    rsp,0x8
    943a:	pop    rbx
    943b:	pop    rbp
    943c:	pop    r12
    943e:	pop    r13
    9440:	ret    
    9441:	nop    DWORD PTR [rax+0x0]
    9448:	mov    eax,DWORD PTR [rbx+0x5c]
    944b:	mov    edi,0x40
    9450:	lea    esi,[rax+0x1]
    9453:	mov    DWORD PTR [rbx+0x1d0],esi
    9459:	call   5de0 <calloc@plt>
    945e:	test   rax,rax
    9461:	mov    QWORD PTR [rbx+0x1c8],rax
    9468:	je     94e8 <x86_pv_setup+0xe8>
    946a:	add    rsp,0x8
    946e:	mov    rdi,rbx
    9471:	pop    rbx
    9472:	pop    rbp
    9473:	pop    r12
    9475:	pop    r13
    9477:	jmp    5da0 <x86_pv_map_m2p@plt>
    947c:	nop    DWORD PTR [rax+0x0]
    9480:	call   5940 <__errno_location@plt>
    9485:	mov    r13d,DWORD PTR [rax]
    9488:	lea    rdx,[rip+0x18841]        # 21cd0 <__PRETTY_FUNCTION__.12816+0x590>
    948f:	mov    rbx,rax
    9492:	mov    ecx,ebp
    9494:	xor    eax,eax
    9496:	mov    esi,0x1
    949b:	mov    rdi,r12
    949e:	call   5d50 <xc_report_error@plt>
    94a3:	mov    DWORD PTR [rbx],r13d
    94a6:	mov    eax,0xffffffff
    94ab:	jmp    9436 <x86_pv_setup+0x36>
    94ad:	nop    DWORD PTR [rax]
    94b0:	call   5940 <__errno_location@plt>
    94b5:	mov    edi,ebp
    94b7:	mov    r13d,DWORD PTR [rax]
    94ba:	mov    rbx,rax
    94bd:	call   5d30 <dhdr_type_to_str@plt>
    94c2:	lea    rdx,[rip+0x187cf]        # 21c98 <__PRETTY_FUNCTION__.12816+0x558>
    94c9:	mov    rcx,rax
    94cc:	mov    esi,0x1
    94d1:	xor    eax,eax
    94d3:	mov    rdi,r12
    94d6:	call   5d50 <xc_report_error@plt>
    94db:	mov    DWORD PTR [rbx],r13d
    94de:	mov    eax,0xffffffff
    94e3:	jmp    9436 <x86_pv_setup+0x36>
    94e8:	call   5940 <__errno_location@plt>
    94ed:	mov    DWORD PTR [rax],0xc
    94f3:	mov    eax,0xffffffff
    94f8:	jmp    9436 <x86_pv_setup+0x36>
    94fd:	nop    DWORD PTR [rax]

0000000000009500 <x86_pv_process_record>:
    9500:	push   r15
    9502:	push   r14
    9504:	push   r13
    9506:	push   r12
    9508:	push   rbp
    9509:	push   rbx
    950a:	sub    rsp,0x128
    9511:	mov    ebx,DWORD PTR [rsi]
    9513:	mov    rax,QWORD PTR fs:0x28
    951c:	mov    QWORD PTR [rsp+0x118],rax
    9524:	xor    eax,eax
    9526:	cmp    ebx,0xc
    9529:	ja     9a50 <x86_pv_process_record+0x550>
    952f:	lea    rcx,[rip+0x18d6a]        # 222a0 <__PRETTY_FUNCTION__.12816+0xb60>
    9536:	mov    edx,ebx
    9538:	mov    r15,rdi
    953b:	movsxd rax,DWORD PTR [rcx+rdx*4]
    953f:	add    rax,rcx
    9542:	jmp    rax
    9544:	nop    DWORD PTR [rax+0x0]
    9548:	call   5fa0 <handle_tsc_info@plt>
    954d:	nop    DWORD PTR [rax]
    9550:	mov    rdi,QWORD PTR [rsp+0x118]
    9558:	xor    rdi,QWORD PTR fs:0x28
    9561:	jne    a39a <x86_pv_process_record+0xe9a>
    9567:	add    rsp,0x128
    956e:	pop    rbx
    956f:	pop    rbp
    9570:	pop    r12
    9572:	pop    r13
    9574:	pop    r14
    9576:	pop    r15
    9578:	ret    
    9579:	nop    DWORD PTR [rax+0x0]
    9580:	cmp    BYTE PTR [rdi+0x1b8],0x0
    9587:	mov    ebx,DWORD PTR [rsi+0x4]
    958a:	mov    rbp,QWORD PTR [rsi+0x8]
    958e:	mov    r12,QWORD PTR [rdi]
    9591:	jne    a1be <x86_pv_process_record+0xcbe>
    9597:	cmp    ebx,0x7
    959a:	jbe    a187 <x86_pv_process_record+0xc87>
    95a0:	movzx  ebx,BYTE PTR [rbp+0x0]
    95a4:	lea    eax,[rbx-0x4]
    95a7:	test   al,0xfb
    95a9:	jne    a15a <x86_pv_process_record+0xc5a>
    95af:	cmp    ebx,DWORD PTR [rdi+0x160]
    95b5:	je     9a60 <x86_pv_process_record+0x560>
    95bb:	lea    rdi,[rsp+0x88]
    95c3:	xor    eax,eax
    95c5:	mov    ecx,0x11
    95ca:	mov    QWORD PTR [rsp+0x84],0x0
    95d6:	mov    QWORD PTR [rsp+0x108],0x0
    95e2:	lea    rbx,[rsp+0x50]
    95e7:	rep stos QWORD PTR es:[rdi],rax
    95ea:	mov    DWORD PTR [rsp+0x80],0x23
    95f5:	lea    rdx,[rsp+0x80]
    95fd:	mov    rsi,rbx
    9600:	mov    rdi,r12
    9603:	mov    eax,DWORD PTR [r15+0x8]
    9607:	mov    WORD PTR [rsp+0x88],ax
    960f:	movzx  eax,BYTE PTR [rbp+0x0]
    9613:	mov    QWORD PTR [rsp+0x50],0x0
    961c:	mov    QWORD PTR [rsp+0x58],0x0
    9625:	mov    DWORD PTR [rsp+0x60],0x3
    962d:	mov    QWORD PTR [rsp+0x68],rdx
    9632:	mov    QWORD PTR [rsp+0x70],0x90
    963b:	mov    DWORD PTR [rsp+0x84],0x11
    9646:	shl    eax,0x3
    9649:	mov    DWORD PTR [rsp+0x90],eax
    9650:	call   5a40 <xc__hypercall_bounce_pre@plt>
    9655:	test   eax,eax
    9657:	jne    a265 <x86_pv_process_record+0xd65>
    965d:	mov    rax,QWORD PTR [rsp+0x58]
    9662:	mov    rdi,QWORD PTR [r12+0x440]
    966a:	mov    esi,0x24
    966f:	test   rax,rax
    9672:	cmove  rax,rbx
    9676:	mov    rdx,QWORD PTR [rax]
    9679:	call   5e30 <xencall1@plt>
    967e:	test   eax,eax
    9680:	jns    9f00 <x86_pv_process_record+0xa00>
    9686:	call   5940 <__errno_location@plt>
    968b:	cmp    DWORD PTR [rax],0xd
    968e:	mov    r13,rax
    9691:	je     9fc5 <x86_pv_process_record+0xac5>
    9697:	mov    rsi,QWORD PTR [rsp+0x58]
    969c:	test   rsi,rsi
    969f:	je     9ff8 <x86_pv_process_record+0xaf8>
    96a5:	mov    rdi,r12
    96a8:	call   6210 <xc__hypercall_bounce_post@plt>
    96ad:	call   5940 <__errno_location@plt>
    96b2:	movzx  ecx,BYTE PTR [rbp+0x0]
    96b6:	mov    r8d,DWORD PTR [r15+0x160]
    96bd:	lea    rdx,[rip+0x18744]        # 21e08 <__PRETTY_FUNCTION__.12816+0x6c8>
    96c4:	mov    r13d,DWORD PTR [rax]
    96c7:	mov    rbx,rax
    96ca:	mov    esi,0x1
    96cf:	mov    rdi,r12
    96d2:	xor    eax,eax
    96d4:	shl    r8d,0x3
    96d8:	shl    ecx,0x3
    96db:	call   5d50 <xc_report_error@plt>
    96e0:	mov    DWORD PTR [rbx],r13d
    96e3:	mov    eax,0xffffffff
    96e8:	jmp    9550 <x86_pv_process_record+0x50>
    96ed:	nop    DWORD PTR [rax]
    96f0:	mov    rax,QWORD PTR [rdi]
    96f3:	mov    r13d,DWORD PTR [rsi+0x4]
    96f7:	xor    edx,edx
    96f9:	mov    rbx,QWORD PTR [rsi+0x8]
    96fd:	mov    esi,DWORD PTR [rdi+0x160]
    9703:	mov    QWORD PTR [rsp+0x18],rax
    9708:	mov    eax,0x1000
    970d:	div    esi
    970f:	cmp    BYTE PTR [rdi+0x1b8],0x0
    9716:	mov    ecx,eax
    9718:	je     a12c <x86_pv_process_record+0xc2c>
    971e:	cmp    r13d,0x7
    9722:	jbe    a093 <x86_pv_process_record+0xb93>
    9728:	mov    ebp,DWORD PTR [rbx+0x4]
    972b:	mov    edi,DWORD PTR [rbx]
    972d:	cmp    edi,ebp
    972f:	ja     a056 <x86_pv_process_record+0xb56>
    9735:	xor    edx,edx
    9737:	mov    eax,edi
    9739:	div    ecx
    973b:	xor    edx,edx
    973d:	mov    r8d,eax
    9740:	mov    r14d,eax
    9743:	mov    eax,ebp
    9745:	div    ecx
    9747:	lea    r12d,[rax+0x1]
    974b:	mov    eax,r12d
    974e:	sub    eax,r8d
    9751:	mov    edx,eax
    9753:	mov    eax,r13d
    9756:	mov    DWORD PTR [rsp+0x8],edx
    975a:	lea    rdx,[rdx*8+0x8]
    9762:	cmp    rax,rdx
    9765:	jne    a000 <x86_pv_process_record+0xb00>
    976b:	mov    rax,QWORD PTR [r15+0x188]
    9772:	cmp    rbp,rax
    9775:	mov    QWORD PTR [rsp+0x10],rax
    977a:	ja     9a90 <x86_pv_process_record+0x590>
    9780:	mov    ecx,DWORD PTR [rsp+0x8]
    9784:	add    rbx,0x8
    9788:	test   ecx,ecx
    978a:	je     97ae <x86_pv_process_record+0x2ae>
    978c:	nop    DWORD PTR [rax+0x0]
    9790:	mov    rcx,QWORD PTR [rbx]
    9793:	mov    rax,QWORD PTR [r15+0x1a0]
    979a:	mov    edx,r14d
    979d:	add    r14d,0x1
    97a1:	add    rbx,0x8
    97a5:	cmp    r12d,r14d
    97a8:	mov    QWORD PTR [rax+rdx*8],rcx
    97ac:	jne    9790 <x86_pv_process_record+0x290>
    97ae:	xor    eax,eax
    97b0:	jmp    9550 <x86_pv_process_record+0x50>
    97b5:	nop    DWORD PTR [rax]
    97b8:	cmp    ebx,0x5
    97bb:	mov    r12,QWORD PTR [rdi]
    97be:	je     9dd3 <x86_pv_process_record+0x8d3>
    97c4:	jbe    9c30 <x86_pv_process_record+0x730>
    97ca:	cmp    ebx,0x6
    97cd:	je     9de4 <x86_pv_process_record+0x8e4>
    97d3:	lea    rax,[rip+0x180d1]        # 218ab <__PRETTY_FUNCTION__.12816+0x16b>
    97da:	cmp    ebx,0xc
    97dd:	mov    QWORD PTR [rsp+0x8],rax
    97e2:	jne    9c45 <x86_pv_process_record+0x745>
    97e8:	mov    r8d,DWORD PTR [rsi+0x4]
    97ec:	cmp    r8d,0x7
    97f0:	jbe    a1d4 <x86_pv_process_record+0xcd4>
    97f6:	mov    rsi,QWORD PTR [rsi+0x8]
    97fa:	mov    ebp,r8d
    97fd:	sub    rbp,0x8
    9801:	mov    r13d,DWORD PTR [rsi]
    9804:	je     9d8e <x86_pv_process_record+0x88e>
    980a:	mov    r14d,DWORD PTR [r15+0x1d0]
    9811:	cmp    r13d,r14d
    9814:	jae    a22f <x86_pv_process_record+0xd2f>
    981a:	mov    r14d,r13d
    981d:	shl    r14,0x6
    9821:	add    r14,QWORD PTR [r15+0x1c8]
    9828:	cmp    ebx,0x5
    982b:	je     9e3f <x86_pv_process_record+0x93f>
    9831:	cmp    ebx,0x6
    9834:	je     9c93 <x86_pv_process_record+0x793>
    983a:	cmp    ebx,0x4
    983d:	je     9e91 <x86_pv_process_record+0x991>
    9843:	mov    rdi,rbp
    9846:	mov    QWORD PTR [rsp+0x10],rsi
    984b:	call   5ff0 <malloc@plt>
    9850:	test   rax,rax
    9853:	mov    r15,rax
    9856:	mov    rsi,QWORD PTR [rsp+0x10]
    985b:	je     9f5b <x86_pv_process_record+0xa5b>
    9861:	add    rsi,0x8
    9865:	mov    rdx,rbp
    9868:	mov    rdi,rax
    986b:	call   5eb0 <memcpy@plt>
    9870:	cmp    ebx,0xc
    9873:	jne    97ae <x86_pv_process_record+0x2ae>
    9879:	mov    rdi,QWORD PTR [r14+0x18]
    987d:	call   5900 <free@plt>
    9882:	mov    QWORD PTR [r14+0x18],r15
    9886:	mov    QWORD PTR [r14+0x38],rbp
    988a:	xor    eax,eax
    988c:	jmp    9550 <x86_pv_process_record+0x50>
    9891:	nop    DWORD PTR [rax+0x0]
    9898:	cmp    BYTE PTR [rdi+0x1b8],0x0
    989f:	mov    r12d,DWORD PTR [rsi+0x4]
    98a3:	mov    rbx,QWORD PTR [rsi+0x8]
    98a7:	mov    rbp,QWORD PTR [rdi]
    98aa:	je     a0fe <x86_pv_process_record+0xbfe>
    98b0:	cmp    r12d,0x1000
    98b7:	jne    9f94 <x86_pv_process_record+0xa94>
    98bd:	mov    r8,QWORD PTR [rdi+0x40]
    98c1:	mov    esi,DWORD PTR [rdi+0x8]
    98c4:	mov    ecx,0x3
    98c9:	mov    edx,0x1000
    98ce:	mov    rdi,rbp
    98d1:	call   6590 <xc_map_foreign_range@plt>
    98d6:	test   rax,rax
    98d9:	mov    r8,rax
    98dc:	je     9df5 <x86_pv_process_record+0x8f5>
    98e2:	mov    rax,QWORD PTR [rbx]
    98e5:	lea    rdx,[r8+0x808]
    98ec:	lea    rdi,[r8+0x8]
    98f0:	mov    rsi,rbx
    98f3:	and    rdi,0xfffffffffffffff8
    98f7:	mov    QWORD PTR [r8],rax
    98fa:	mov    rax,QWORD PTR [rbx+0x7f8]
    9901:	mov    QWORD PTR [rdx-0x10],rax
    9905:	mov    rax,r8
    9908:	sub    rax,rdi
    990b:	lea    ecx,[rax+0x800]
    9911:	sub    rsi,rax
    9914:	mov    eax,ecx
    9916:	shr    eax,0x3
    9919:	mov    ecx,eax
    991b:	rep movs QWORD PTR es:[rdi],QWORD PTR ds:[rsi]
    991e:	cmp    DWORD PTR [r15+0x160],0x8
    9926:	je     9d20 <x86_pv_process_record+0x820>
    992c:	movdqu xmm0,XMMWORD PTR [rbx+0x90c]
    9934:	movups XMMWORD PTR [r8+0x90c],xmm0
    993c:	mov    rsi,QWORD PTR [rbx+0x91c]
    9943:	mov    QWORD PTR [r8+0x91c],rsi
    994a:	mov    ecx,DWORD PTR [rbx+0x924]
    9950:	mov    DWORD PTR [r8+0x924],ecx
    9957:	cmp    DWORD PTR [r15+0x160],0x8
    995f:	je     9d10 <x86_pv_process_record+0x810>
    9965:	mov    DWORD PTR [r8+0x910],0x0
    9970:	cmp    DWORD PTR [r15+0x160],0x8
    9978:	lea    rax,[r8+0x800]
    997f:	mov    QWORD PTR [r8+0x800],0x0
    998a:	je     9ce8 <x86_pv_process_record+0x7e8>
    9990:	mov    rdi,rdx
    9993:	mov    QWORD PTR [r8+0x878],0x0
    999e:	and    rdi,0xfffffffffffffff8
    99a2:	sub    rax,rdi
    99a5:	lea    ecx,[rax+0x80]
    99ab:	xor    eax,eax
    99ad:	shr    ecx,0x3
    99b0:	rep stos QWORD PTR es:[rdi],rax
    99b3:	lea    rax,[r8+0x4]
    99b7:	lea    rdx,[r8+0x804]
    99be:	jmp    99cf <x86_pv_process_record+0x4cf>
    99c0:	mov    DWORD PTR [rax],0x0
    99c6:	add    rax,0x40
    99ca:	cmp    rdx,rax
    99cd:	je     99ea <x86_pv_process_record+0x4ea>
    99cf:	cmp    DWORD PTR [r15+0x160],0x8
    99d7:	jne    99c0 <x86_pv_process_record+0x4c0>
    99d9:	mov    QWORD PTR [rax+0x4],0x0
    99e1:	add    rax,0x40
    99e5:	cmp    rdx,rax
    99e8:	jne    99cf <x86_pv_process_record+0x4cf>
    99ea:	cmp    DWORD PTR [r15+0x160],0x8
    99f2:	je     9d58 <x86_pv_process_record+0x858>
    99f8:	pcmpeqd xmm0,xmm0
    99fc:	movups XMMWORD PTR [r8+0x880],xmm0
    9a04:	movups XMMWORD PTR [r8+0x890],xmm0
    9a0c:	movups XMMWORD PTR [r8+0x8a0],xmm0
    9a14:	movups XMMWORD PTR [r8+0x8b0],xmm0
    9a1c:	movups XMMWORD PTR [r8+0x8c0],xmm0
    9a24:	movups XMMWORD PTR [r8+0x8d0],xmm0
    9a2c:	movups XMMWORD PTR [r8+0x8e0],xmm0
    9a34:	movups XMMWORD PTR [r8+0x8f0],xmm0
    9a3c:	mov    esi,0x1000
    9a41:	mov    rdi,r8
    9a44:	call   61b0 <munmap@plt>
    9a49:	xor    eax,eax
    9a4b:	jmp    9550 <x86_pv_process_record+0x50>
    9a50:	mov    eax,0x1
    9a55:	jmp    9550 <x86_pv_process_record+0x50>
    9a5a:	nop    WORD PTR [rax+rax*1+0x0]
    9a60:	movzx  ebx,BYTE PTR [rbp+0x1]
    9a64:	lea    eax,[rbx-0x3]
    9a67:	cmp    al,0x1
    9a69:	ja     a215 <x86_pv_process_record+0xd15>
    9a6f:	mov    ebp,DWORD PTR [rdi+0x164]
    9a75:	cmp    ebx,ebp
    9a77:	jne    a0ca <x86_pv_process_record+0xbca>
    9a7d:	mov    BYTE PTR [r15+0x1b8],0x1
    9a85:	xor    eax,eax
    9a87:	jmp    9550 <x86_pv_process_record+0x50>
    9a8c:	nop    DWORD PTR [rax+0x0]
    9a90:	xor    edx,edx
    9a92:	mov    rax,rbp
    9a95:	mov    r13d,esi
    9a98:	div    rcx
    9a9b:	xor    edx,edx
    9a9d:	mov    rdi,QWORD PTR [r15+0x198]
    9aa4:	mov    QWORD PTR [rsp+0x40],rax
    9aa9:	add    rax,0x1
    9aad:	mov    QWORD PTR [rsp+0x20],rax
    9ab2:	mov    rax,QWORD PTR [rsp+0x10]
    9ab7:	div    rcx
    9aba:	lea    rdx,[rbp+0x1]
    9abe:	mov    QWORD PTR [rsp+0x38],rdx
    9ac3:	imul   r13,rdx
    9ac7:	mov    QWORD PTR [rsp+0x48],rax
    9acc:	mov    rsi,r13
    9acf:	call   6160 <realloc@plt>
    9ad4:	mov    QWORD PTR [rsp+0x30],rax
    9ad9:	call   5940 <__errno_location@plt>
    9ade:	mov    rcx,QWORD PTR [rsp+0x30]
    9ae3:	mov    QWORD PTR [rsp+0x28],rax
    9ae8:	mov    rdx,QWORD PTR [rsp+0x38]
    9aed:	test   rcx,rcx
    9af0:	je     a39f <x86_pv_process_record+0xe9f>
    9af6:	lea    r13,[rdx*4+0x0]
    9afe:	mov    rdi,QWORD PTR [r15+0x1c0]
    9b05:	mov    QWORD PTR [r15+0x198],rcx
    9b0c:	mov    rsi,r13
    9b0f:	call   6160 <realloc@plt>
    9b14:	test   rax,rax
    9b17:	je     a30a <x86_pv_process_record+0xe0a>
    9b1d:	mov    QWORD PTR [r15+0x1c0],rax
    9b24:	mov    rax,QWORD PTR [rsp+0x40]
    9b29:	mov    rdi,QWORD PTR [r15+0x1a0]
    9b30:	lea    r13,[rax*8+0x10]
    9b38:	mov    rsi,r13
    9b3b:	call   6160 <realloc@plt>
    9b40:	test   rax,rax
    9b43:	je     a2e1 <x86_pv_process_record+0xde1>
    9b49:	mov    QWORD PTR [r15+0x1a0],rax
    9b50:	mov    rax,QWORD PTR [rsp+0x10]
    9b55:	mov    edi,DWORD PTR [rsp+0x20]
    9b59:	mov    QWORD PTR [r15+0x188],rbp
    9b60:	test   rax,rax
    9b63:	mov    DWORD PTR [r15+0x190],edi
    9b6a:	jne    9c81 <x86_pv_process_record+0x781>
    9b70:	xor    r13d,r13d
    9b73:	nop    DWORD PTR [rax+rax*1+0x0]
    9b78:	mov    rsi,r13
    9b7b:	mov    rdx,0xffffffffffffffff
    9b82:	mov    rdi,r15
    9b85:	call   QWORD PTR [r15+0x88]
    9b8c:	mov    rsi,r13
    9b8f:	add    r13,0x1
    9b93:	xor    edx,edx
    9b95:	mov    rdi,r15
    9b98:	call   QWORD PTR [r15+0x90]
    9b9f:	cmp    rbp,r13
    9ba2:	jae    9b78 <x86_pv_process_record+0x678>
    9ba4:	mov    rax,QWORD PTR [rsp+0x48]
    9ba9:	cmp    rax,0xffffffffffffffff
    9bad:	je     9e38 <x86_pv_process_record+0x938>
    9bb3:	add    rax,0x2
    9bb7:	cmp    QWORD PTR [rsp+0x20],rax
    9bbc:	jb     9bf0 <x86_pv_process_record+0x6f0>
    9bbe:	mov    rdi,QWORD PTR [rsp+0x20]
    9bc3:	lea    rdx,[rax*8+0x0]
    9bcb:	mov    rsi,0xffffffffffffffff
    9bd2:	nop    WORD PTR [rax+rax*1+0x0]
    9bd8:	mov    rcx,QWORD PTR [r15+0x1a0]
    9bdf:	add    rax,0x1
    9be3:	mov    QWORD PTR [rcx+rdx*1],rsi
    9be7:	add    rdx,0x8
    9beb:	cmp    rdi,rax
    9bee:	jae    9bd8 <x86_pv_process_record+0x6d8>
    9bf0:	mov    rax,QWORD PTR [rsp+0x28]
    9bf5:	mov    rdi,QWORD PTR [rsp+0x18]
    9bfa:	sub    rsp,0x8
    9bfe:	lea    r8,[rip+0x18483]        # 22088 <__PRETTY_FUNCTION__.12816+0x948>
    9c05:	xor    ecx,ecx
    9c07:	mov    edx,0x3
    9c0c:	mov    r13d,DWORD PTR [rax]
    9c0f:	mov    rsi,QWORD PTR [rdi+0x8]
    9c13:	xor    eax,eax
    9c15:	push   rbp
    9c16:	mov    r9,QWORD PTR [rsp+0x20]
    9c1b:	call   6540 <xc_report@plt>
    9c20:	mov    rax,QWORD PTR [rsp+0x38]
    9c25:	mov    DWORD PTR [rax],r13d
    9c28:	pop    rsi
    9c29:	pop    rdi
    9c2a:	jmp    9780 <x86_pv_process_record+0x280>
    9c2f:	nop
    9c30:	lea    rax,[rip+0x17c3b]        # 21872 <__PRETTY_FUNCTION__.12816+0x132>
    9c37:	cmp    ebx,0x4
    9c3a:	mov    QWORD PTR [rsp+0x8],rax
    9c3f:	je     97e8 <x86_pv_process_record+0x2e8>
    9c45:	call   5940 <__errno_location@plt>
    9c4a:	mov    edi,ebx
    9c4c:	mov    r13d,DWORD PTR [rax]
    9c4f:	mov    rbp,rax
    9c52:	call   5ea0 <rec_type_to_str@plt>
    9c57:	lea    rdx,[rip+0x18452]        # 220b0 <__PRETTY_FUNCTION__.12816+0x970>
    9c5e:	mov    rcx,rax
    9c61:	mov    r8d,ebx
    9c64:	xor    eax,eax
    9c66:	mov    esi,0x1
    9c6b:	mov    rdi,r12
    9c6e:	call   5d50 <xc_report_error@plt>
    9c73:	mov    DWORD PTR [rbp+0x0],r13d
    9c77:	mov    eax,0xffffffff
    9c7c:	jmp    9550 <x86_pv_process_record+0x50>
    9c81:	lea    r13,[rax+0x1]
    9c85:	cmp    rbp,r13
    9c88:	jae    9b78 <x86_pv_process_record+0x678>
    9c8e:	jmp    9ba4 <x86_pv_process_record+0x6a4>
    9c93:	test   bpl,0xf
    9c97:	jne    a31e <x86_pv_process_record+0xe1e>
    9c9d:	mov    rdi,rbp
    9ca0:	mov    QWORD PTR [rsp+0x10],rsi
    9ca5:	call   5ff0 <malloc@plt>
    9caa:	test   rax,rax
    9cad:	mov    rbx,rax
    9cb0:	mov    rsi,QWORD PTR [rsp+0x10]
    9cb5:	je     9f5b <x86_pv_process_record+0xa5b>
    9cbb:	add    rsi,0x8
    9cbf:	mov    rdx,rbp
    9cc2:	mov    rdi,rbx
    9cc5:	call   5eb0 <memcpy@plt>
    9cca:	mov    rdi,QWORD PTR [r14+0x10]
    9cce:	call   5900 <free@plt>
    9cd3:	mov    QWORD PTR [r14+0x10],rbx
    9cd7:	mov    QWORD PTR [r14+0x30],rbp
    9cdb:	xor    eax,eax
    9cdd:	jmp    9550 <x86_pv_process_record+0x50>
    9ce2:	nop    WORD PTR [rax+rax*1+0x0]
    9ce8:	mov    rdi,rdx
    9ceb:	mov    QWORD PTR [r8+0x9f8],0x0
    9cf6:	and    rdi,0xfffffffffffffff8
    9cfa:	sub    rax,rdi
    9cfd:	lea    ecx,[rax+0x200]
    9d03:	xor    eax,eax
    9d05:	shr    ecx,0x3
    9d08:	rep stos QWORD PTR es:[rdi],rax
    9d0b:	jmp    99b3 <x86_pv_process_record+0x4b3>
    9d10:	mov    QWORD PTR [r8+0xc18],0x0
    9d1b:	jmp    9970 <x86_pv_process_record+0x470>
    9d20:	movdqu xmm0,XMMWORD PTR [rbx+0xc10]
    9d28:	movups XMMWORD PTR [r8+0xc10],xmm0
    9d30:	movdqu xmm0,XMMWORD PTR [rbx+0xc20]
    9d38:	movups XMMWORD PTR [r8+0xc20],xmm0
    9d40:	movdqu xmm0,XMMWORD PTR [rbx+0xc30]
    9d48:	movups XMMWORD PTR [r8+0xc30],xmm0
    9d50:	jmp    9957 <x86_pv_process_record+0x457>
    9d55:	nop    DWORD PTR [rax]
    9d58:	lea    rdi,[r8+0xa08]
    9d5f:	mov    edx,r8d
    9d62:	mov    rax,0xffffffffffffffff
    9d69:	mov    QWORD PTR [r8+0xa00],rax
    9d70:	mov    QWORD PTR [r8+0xbf8],rax
    9d77:	and    rdi,0xfffffffffffffff8
    9d7b:	sub    edx,edi
    9d7d:	lea    ecx,[rdx+0xc00]
    9d83:	shr    ecx,0x3
    9d86:	rep stos QWORD PTR es:[rdi],rax
    9d89:	jmp    9a3c <x86_pv_process_record+0x53c>
    9d8e:	call   5940 <__errno_location@plt>
    9d93:	mov    edi,ebx
    9d95:	mov    rbp,rax
    9d98:	mov    r14d,DWORD PTR [rax]
    9d9b:	call   5ea0 <rec_type_to_str@plt>
    9da0:	sub    rsp,0x8
    9da4:	mov    rsi,QWORD PTR [r12+0x8]
    9da9:	lea    r8,[rip+0x18358]        # 22108 <__PRETTY_FUNCTION__.12816+0x9c8>
    9db0:	push   r13
    9db2:	mov    r9,rax
    9db5:	mov    edx,0x1
    9dba:	xor    eax,eax
    9dbc:	xor    ecx,ecx
    9dbe:	mov    rdi,r12
    9dc1:	call   6540 <xc_report@plt>
    9dc6:	mov    DWORD PTR [rbp+0x0],r14d
    9dca:	pop    rax
    9dcb:	xor    eax,eax
    9dcd:	pop    rdx
    9dce:	jmp    9550 <x86_pv_process_record+0x50>
    9dd3:	lea    rax,[rip+0x17aaa]        # 21884 <__PRETTY_FUNCTION__.12816+0x144>
    9dda:	mov    QWORD PTR [rsp+0x8],rax
    9ddf:	jmp    97e8 <x86_pv_process_record+0x2e8>
    9de4:	lea    rax,[rip+0x17aae]        # 21899 <__PRETTY_FUNCTION__.12816+0x159>
    9deb:	mov    QWORD PTR [rsp+0x8],rax
    9df0:	jmp    97e8 <x86_pv_process_record+0x2e8>
    9df5:	call   5940 <__errno_location@plt>
    9dfa:	mov    r12d,DWORD PTR [rax]
    9dfd:	mov    rbx,rax
    9e00:	mov    rdi,rbp
    9e03:	mov    esi,r12d
    9e06:	call   6570 <xc_strerror@plt>
    9e0b:	mov    rcx,QWORD PTR [r15+0x40]
    9e0f:	mov    r8d,DWORD PTR [rbx]
    9e12:	lea    rdx,[rip+0x1844f]        # 22268 <__PRETTY_FUNCTION__.12816+0xb28>
    9e19:	mov    r9,rax
    9e1c:	mov    esi,0x1
    9e21:	xor    eax,eax
    9e23:	mov    rdi,rbp
    9e26:	call   5d50 <xc_report_error@plt>
    9e2b:	mov    DWORD PTR [rbx],r12d
    9e2e:	mov    eax,0xffffffff
    9e33:	jmp    9550 <x86_pv_process_record+0x50>
    9e38:	xor    eax,eax
    9e3a:	jmp    9bbe <x86_pv_process_record+0x6be>
    9e3f:	cmp    rbp,0x80
    9e46:	ja     a358 <x86_pv_process_record+0xe58>
    9e4c:	mov    rdi,rbp
    9e4f:	mov    QWORD PTR [rsp+0x10],rsi
    9e54:	call   5ff0 <malloc@plt>
    9e59:	test   rax,rax
    9e5c:	mov    rbx,rax
    9e5f:	mov    rsi,QWORD PTR [rsp+0x10]
    9e64:	je     9f5b <x86_pv_process_record+0xa5b>
    9e6a:	add    rsi,0x8
    9e6e:	mov    rdx,rbp
    9e71:	mov    rdi,rbx
    9e74:	call   5eb0 <memcpy@plt>
    9e79:	mov    rdi,QWORD PTR [r14+0x8]
    9e7d:	call   5900 <free@plt>
    9e82:	mov    QWORD PTR [r14+0x8],rbx
    9e86:	mov    QWORD PTR [r14+0x28],rbp
    9e8a:	xor    eax,eax
    9e8c:	jmp    9550 <x86_pv_process_record+0x50>
    9e91:	cmp    DWORD PTR [r15+0x160],0x8
    9e99:	mov    ebx,0xaf0
    9e9e:	mov    eax,0x1430
    9ea3:	cmove  rbx,rax
    9ea7:	cmp    rbp,rbx
    9eaa:	jne    a29e <x86_pv_process_record+0xd9e>
    9eb0:	mov    rdi,rbp
    9eb3:	mov    QWORD PTR [rsp+0x10],rsi
    9eb8:	call   5ff0 <malloc@plt>
    9ebd:	test   rax,rax
    9ec0:	mov    rbx,rax
    9ec3:	mov    rsi,QWORD PTR [rsp+0x10]
    9ec8:	je     9f5b <x86_pv_process_record+0xa5b>
    9ece:	mov    eax,ebp
    9ed0:	lea    ecx,[rbp-0x1]
    9ed3:	add    rsi,0x8
    9ed7:	mov    rdx,QWORD PTR [rsi+rax*1-0x8]
    9edc:	mov    rdi,rbx
    9edf:	shr    ecx,0x3
    9ee2:	mov    QWORD PTR [rbx+rax*1-0x8],rdx
    9ee7:	rep movs QWORD PTR es:[rdi],QWORD PTR ds:[rsi]
    9eea:	mov    rdi,QWORD PTR [r14]
    9eed:	call   5900 <free@plt>
    9ef2:	mov    QWORD PTR [r14],rbx
    9ef5:	mov    QWORD PTR [r14+0x20],rbp
    9ef9:	xor    eax,eax
    9efb:	jmp    9550 <x86_pv_process_record+0x50>
    9f00:	mov    rsi,QWORD PTR [rsp+0x58]
    9f05:	mov    rdi,r12
    9f08:	mov    DWORD PTR [rsp+0x8],eax
    9f0c:	test   rsi,rsi
    9f0f:	cmove  rsi,rbx
    9f13:	call   6210 <xc__hypercall_bounce_post@plt>
    9f18:	mov    eax,DWORD PTR [rsp+0x8]
    9f1c:	test   eax,eax
    9f1e:	jne    96ad <x86_pv_process_record+0x1ad>
    9f24:	mov    rdi,r15
    9f27:	call   5cd0 <x86_pv_domain_info@plt>
    9f2c:	test   eax,eax
    9f2e:	je     9a7d <x86_pv_process_record+0x57d>
    9f34:	call   5940 <__errno_location@plt>
    9f39:	mov    ebp,DWORD PTR [rax]
    9f3b:	lea    rdx,[rip+0x17f16]        # 21e58 <__PRETTY_FUNCTION__.12816+0x718>
    9f42:	mov    rbx,rax
    9f45:	mov    esi,0x1
    9f4a:	mov    rdi,r12
    9f4d:	xor    eax,eax
    9f4f:	call   5d50 <xc_report_error@plt>
    9f54:	mov    DWORD PTR [rbx],ebp
    9f56:	jmp    96e3 <x86_pv_process_record+0x1e3>
    9f5b:	call   5940 <__errno_location@plt>
    9f60:	mov    r9,QWORD PTR [rsp+0x8]
    9f65:	mov    r14d,DWORD PTR [rax]
    9f68:	lea    rdx,[rip+0x18289]        # 221f8 <__PRETTY_FUNCTION__.12816+0xab8>
    9f6f:	mov    rbx,rax
    9f72:	mov    r8d,r13d
    9f75:	xor    eax,eax
    9f77:	mov    rcx,rbp
    9f7a:	mov    esi,0x1
    9f7f:	mov    rdi,r12
    9f82:	call   5d50 <xc_report_error@plt>
    9f87:	mov    DWORD PTR [rbx],r14d
    9f8a:	mov    eax,0xffffffff
    9f8f:	jmp    9550 <x86_pv_process_record+0x50>
    9f94:	call   5940 <__errno_location@plt>
    9f99:	mov    r13d,DWORD PTR [rax]
    9f9c:	lea    rdx,[rip+0x18285]        # 22228 <__PRETTY_FUNCTION__.12816+0xae8>
    9fa3:	mov    rbx,rax
    9fa6:	mov    ecx,r12d
    9fa9:	xor    eax,eax
    9fab:	mov    esi,0x1
    9fb0:	mov    rdi,rbp
    9fb3:	call   5d50 <xc_report_error@plt>
    9fb8:	mov    DWORD PTR [rbx],r13d
    9fbb:	mov    eax,0xffffffff
    9fc0:	jmp    9550 <x86_pv_process_record+0x50>
    9fc5:	mov    rsi,QWORD PTR [r12+0x8]
    9fca:	lea    r8,[rip+0x17def]        # 21dc0 <__PRETTY_FUNCTION__.12816+0x680>
    9fd1:	xor    ecx,ecx
    9fd3:	xor    eax,eax
    9fd5:	mov    edx,0x3
    9fda:	mov    rdi,r12
    9fdd:	call   6540 <xc_report@plt>
    9fe2:	mov    rsi,QWORD PTR [rsp+0x58]
    9fe7:	mov    DWORD PTR [r13+0x0],0xd
    9fef:	test   rsi,rsi
    9ff2:	jne    96a5 <x86_pv_process_record+0x1a5>
    9ff8:	mov    rsi,rbx
    9ffb:	jmp    96a5 <x86_pv_process_record+0x1a5>
    a000:	mov    DWORD PTR [rsp+0x10],r8d
    a005:	mov    DWORD PTR [rsp+0x8],edi
    a009:	call   5940 <__errno_location@plt>
    a00e:	mov    r14d,DWORD PTR [rax]
    a011:	push   0x8
    a013:	lea    rdx,[rip+0x17f6e]        # 21f88 <__PRETTY_FUNCTION__.12816+0x848>
    a01a:	mov    r8d,DWORD PTR [rsp+0x18]
    a01f:	mov    rbx,rax
    a022:	mov    r9d,r13d
    a025:	xor    eax,eax
    a027:	mov    esi,0x1
    a02c:	push   r8
    a02e:	push   r12
    a030:	mov    r8d,ebp
    a033:	push   0x8
    a035:	mov    edi,DWORD PTR [rsp+0x28]
    a039:	mov    ecx,edi
    a03b:	mov    rdi,QWORD PTR [rsp+0x38]
    a040:	call   5d50 <xc_report_error@plt>
    a045:	mov    DWORD PTR [rbx],r14d
    a048:	add    rsp,0x20
    a04c:	mov    eax,0xffffffff
    a051:	jmp    9550 <x86_pv_process_record+0x50>
    a056:	mov    DWORD PTR [rsp+0x8],edi
    a05a:	call   5940 <__errno_location@plt>
    a05f:	mov    edi,DWORD PTR [rsp+0x8]
    a063:	mov    r12d,DWORD PTR [rax]
    a066:	lea    rdx,[rip+0x17eeb]        # 21f58 <__PRETTY_FUNCTION__.12816+0x818>
    a06d:	mov    rbx,rax
    a070:	mov    ecx,ebp
    a072:	xor    eax,eax
    a074:	mov    esi,0x1
    a079:	mov    r8d,edi
    a07c:	mov    rdi,QWORD PTR [rsp+0x18]
    a081:	call   5d50 <xc_report_error@plt>
    a086:	mov    DWORD PTR [rbx],r12d
    a089:	mov    eax,0xffffffff
    a08e:	jmp    9550 <x86_pv_process_record+0x50>
    a093:	call   5940 <__errno_location@plt>
    a098:	mov    rdi,QWORD PTR [rsp+0x18]
    a09d:	mov    ebp,DWORD PTR [rax]
    a09f:	lea    rdx,[rip+0x17e7a]        # 21f20 <__PRETTY_FUNCTION__.12816+0x7e0>
    a0a6:	mov    rbx,rax
    a0a9:	mov    r8d,0x10
    a0af:	xor    eax,eax
    a0b1:	mov    ecx,r13d
    a0b4:	mov    esi,0x1
    a0b9:	call   5d50 <xc_report_error@plt>
    a0be:	mov    DWORD PTR [rbx],ebp
    a0c0:	mov    eax,0xffffffff
    a0c5:	jmp    9550 <x86_pv_process_record+0x50>
    a0ca:	call   5940 <__errno_location@plt>
    a0cf:	mov    r14d,DWORD PTR [rax]
    a0d2:	lea    rdx,[rip+0x17dd7]        # 21eb0 <__PRETTY_FUNCTION__.12816+0x770>
    a0d9:	mov    r13,rax
    a0dc:	mov    r8d,ebp
    a0df:	xor    eax,eax
    a0e1:	mov    ecx,ebx
    a0e3:	mov    esi,0x1
    a0e8:	mov    rdi,r12
    a0eb:	call   5d50 <xc_report_error@plt>
    a0f0:	mov    DWORD PTR [r13+0x0],r14d
    a0f4:	mov    eax,0xffffffff
    a0f9:	jmp    9550 <x86_pv_process_record+0x50>
    a0fe:	call   5940 <__errno_location@plt>
    a103:	mov    r12d,DWORD PTR [rax]
    a106:	lea    rdx,[rip+0x17deb]        # 21ef8 <__PRETTY_FUNCTION__.12816+0x7b8>
    a10d:	mov    rbx,rax
    a110:	mov    esi,0x1
    a115:	xor    eax,eax
    a117:	mov    rdi,rbp
    a11a:	call   5d50 <xc_report_error@plt>
    a11f:	mov    DWORD PTR [rbx],r12d
    a122:	mov    eax,0xffffffff
    a127:	jmp    9550 <x86_pv_process_record+0x50>
    a12c:	call   5940 <__errno_location@plt>
    a131:	mov    rdi,QWORD PTR [rsp+0x18]
    a136:	mov    ebp,DWORD PTR [rax]
    a138:	lea    rdx,[rip+0x17db9]        # 21ef8 <__PRETTY_FUNCTION__.12816+0x7b8>
    a13f:	mov    rbx,rax
    a142:	mov    esi,0x1
    a147:	xor    eax,eax
    a149:	call   5d50 <xc_report_error@plt>
    a14e:	mov    DWORD PTR [rbx],ebp
    a150:	mov    eax,0xffffffff
    a155:	jmp    9550 <x86_pv_process_record+0x50>
    a15a:	call   5940 <__errno_location@plt>
    a15f:	mov    r13d,DWORD PTR [rax]
    a162:	lea    rdx,[rip+0x17bef]        # 21d58 <__PRETTY_FUNCTION__.12816+0x618>
    a169:	mov    rbp,rax
    a16c:	movzx  ecx,bl
    a16f:	mov    esi,0x1
    a174:	mov    rdi,r12
    a177:	xor    eax,eax
    a179:	call   5d50 <xc_report_error@plt>
    a17e:	mov    DWORD PTR [rbp+0x0],r13d
    a182:	jmp    96e3 <x86_pv_process_record+0x1e3>
    a187:	call   5940 <__errno_location@plt>
    a18c:	mov    r13d,DWORD PTR [rax]
    a18f:	lea    rdx,[rip+0x17b8a]        # 21d20 <__PRETTY_FUNCTION__.12816+0x5e0>
    a196:	mov    rbp,rax
    a199:	mov    r8d,0x8
    a19f:	xor    eax,eax
    a1a1:	mov    ecx,ebx
    a1a3:	mov    esi,0x1
    a1a8:	mov    rdi,r12
    a1ab:	call   5d50 <xc_report_error@plt>
    a1b0:	mov    DWORD PTR [rbp+0x0],r13d
    a1b4:	mov    eax,0xffffffff
    a1b9:	jmp    9550 <x86_pv_process_record+0x50>
    a1be:	call   5940 <__errno_location@plt>
    a1c3:	lea    rdx,[rip+0x17b2e]        # 21cf8 <__PRETTY_FUNCTION__.12816+0x5b8>
    a1ca:	mov    rbx,rax
    a1cd:	mov    ebp,DWORD PTR [rax]
    a1cf:	jmp    9f45 <x86_pv_process_record+0xa45>
    a1d4:	mov    DWORD PTR [rsp+0x10],r8d
    a1d9:	call   5940 <__errno_location@plt>
    a1de:	mov    r8d,DWORD PTR [rsp+0x10]
    a1e3:	mov    ebp,DWORD PTR [rax]
    a1e5:	lea    rdx,[rip+0x17eec]        # 220d8 <__PRETTY_FUNCTION__.12816+0x998>
    a1ec:	mov    rcx,QWORD PTR [rsp+0x8]
    a1f1:	mov    rbx,rax
    a1f4:	mov    r9d,0x8
    a1fa:	xor    eax,eax
    a1fc:	mov    esi,0x1
    a201:	mov    rdi,r12
    a204:	call   5d50 <xc_report_error@plt>
    a209:	mov    DWORD PTR [rbx],ebp
    a20b:	mov    eax,0xffffffff
    a210:	jmp    9550 <x86_pv_process_record+0x50>
    a215:	call   5940 <__errno_location@plt>
    a21a:	movzx  ecx,bl
    a21d:	mov    rbp,rax
    a220:	mov    r13d,DWORD PTR [rax]
    a223:	lea    rdx,[rip+0x17c56]        # 21e80 <__PRETTY_FUNCTION__.12816+0x740>
    a22a:	jmp    a16f <x86_pv_process_record+0xc6f>
    a22f:	call   5940 <__errno_location@plt>
    a234:	mov    rcx,QWORD PTR [rsp+0x8]
    a239:	mov    ebp,DWORD PTR [rax]
    a23b:	lea    r9d,[r14-0x1]
    a23f:	lea    rdx,[rip+0x17eea]        # 22130 <__PRETTY_FUNCTION__.12816+0x9f0>
    a246:	mov    rbx,rax
    a249:	mov    r8d,r13d
    a24c:	xor    eax,eax
    a24e:	mov    esi,0x1
    a253:	mov    rdi,r12
    a256:	call   5d50 <xc_report_error@plt>
    a25b:	mov    DWORD PTR [rbx],ebp
    a25d:	or     eax,0xffffffff
    a260:	jmp    9550 <x86_pv_process_record+0x50>
    a265:	call   5940 <__errno_location@plt>
    a26a:	mov    r13d,DWORD PTR [rax]
    a26d:	mov    rbx,rax
    a270:	mov    rdi,r12
    a273:	mov    esi,r13d
    a276:	call   6570 <xc_strerror@plt>
    a27b:	mov    ecx,DWORD PTR [rbx]
    a27d:	lea    rdx,[rip+0x17b04]        # 21d88 <__PRETTY_FUNCTION__.12816+0x648>
    a284:	mov    r8,rax
    a287:	mov    esi,0x1
    a28c:	mov    rdi,r12
    a28f:	xor    eax,eax
    a291:	call   5d50 <xc_report_error@plt>
    a296:	mov    DWORD PTR [rbx],r13d
    a299:	jmp    96ad <x86_pv_process_record+0x1ad>
    a29e:	mov    DWORD PTR [rsp+0x10],r8d
    a2a3:	call   5940 <__errno_location@plt>
    a2a8:	mov    r8d,DWORD PTR [rsp+0x10]
    a2ad:	mov    r14d,DWORD PTR [rax]
    a2b0:	lea    rdx,[rip+0x17ea9]        # 22160 <__PRETTY_FUNCTION__.12816+0xa20>
    a2b7:	mov    rcx,QWORD PTR [rsp+0x8]
    a2bc:	mov    rbp,rax
    a2bf:	mov    esi,0x1
    a2c4:	xor    eax,eax
    a2c6:	mov    rdi,r12
    a2c9:	mov    r9d,r8d
    a2cc:	lea    r8,[rbx+0x8]
    a2d0:	call   5d50 <xc_report_error@plt>
    a2d5:	mov    DWORD PTR [rbp+0x0],r14d
    a2d9:	or     eax,0xffffffff
    a2dc:	jmp    9550 <x86_pv_process_record+0x50>
    a2e1:	mov    r14,QWORD PTR [rsp+0x28]
    a2e6:	lea    rdx,[rip+0x17d63]        # 22050 <__PRETTY_FUNCTION__.12816+0x910>
    a2ed:	mov    rcx,r13
    a2f0:	mov    ebx,DWORD PTR [r14]
    a2f3:	mov    rdi,QWORD PTR [rsp+0x18]
    a2f8:	mov    esi,0x1
    a2fd:	call   5d50 <xc_report_error@plt>
    a302:	mov    DWORD PTR [r14],ebx
    a305:	jmp    96e3 <x86_pv_process_record+0x1e3>
    a30a:	mov    r14,QWORD PTR [rsp+0x28]
    a30f:	mov    rcx,r13
    a312:	lea    rdx,[rip+0x17d07]        # 22020 <__PRETTY_FUNCTION__.12816+0x8e0>
    a319:	mov    ebx,DWORD PTR [r14]
    a31c:	jmp    a2f3 <x86_pv_process_record+0xdf3>
    a31e:	call   5940 <__errno_location@plt>
    a323:	mov    rcx,QWORD PTR [rsp+0x8]
    a328:	mov    r14d,DWORD PTR [rax]
    a32b:	lea    rdx,[rip+0x17e86]        # 221b8 <__PRETTY_FUNCTION__.12816+0xa78>
    a332:	mov    rbx,rax
    a335:	mov    r9d,0x10
    a33b:	xor    eax,eax
    a33d:	mov    r8,rbp
    a340:	mov    esi,0x1
    a345:	mov    rdi,r12
    a348:	call   5d50 <xc_report_error@plt>
    a34d:	mov    DWORD PTR [rbx],r14d
    a350:	or     eax,0xffffffff
    a353:	jmp    9550 <x86_pv_process_record+0x50>
    a358:	mov    DWORD PTR [rsp+0x10],r8d
    a35d:	call   5940 <__errno_location@plt>
    a362:	mov    r8d,DWORD PTR [rsp+0x10]
    a367:	mov    ebp,DWORD PTR [rax]
    a369:	lea    rdx,[rip+0x17e20]        # 22190 <__PRETTY_FUNCTION__.12816+0xa50>
    a370:	mov    rcx,QWORD PTR [rsp+0x8]
    a375:	mov    rbx,rax
    a378:	mov    esi,0x1
    a37d:	xor    eax,eax
    a37f:	mov    rdi,r12
    a382:	mov    r9d,r8d
    a385:	mov    r8d,0x88
    a38b:	call   5d50 <xc_report_error@plt>
    a390:	mov    DWORD PTR [rbx],ebp
    a392:	or     eax,0xffffffff
    a395:	jmp    9550 <x86_pv_process_record+0x50>
    a39a:	call   5b80 <__stack_chk_fail@plt>
    a39f:	mov    ebx,DWORD PTR [rax]
    a3a1:	mov    rdi,QWORD PTR [rsp+0x18]
    a3a6:	lea    rdx,[rip+0x17c4b]        # 21ff8 <__PRETTY_FUNCTION__.12816+0x8b8>
    a3ad:	mov    r14,rax
    a3b0:	mov    rcx,r13
    a3b3:	xor    eax,eax
    a3b5:	mov    esi,0x1
    a3ba:	call   5d50 <xc_report_error@plt>
    a3bf:	mov    DWORD PTR [r14],ebx
    a3c2:	or     eax,0xffffffff
    a3c5:	jmp    9550 <x86_pv_process_record+0x50>
    a3ca:	nop    WORD PTR [rax+rax*1+0x0]

000000000000a3d0 <x86_hvm_pfn_is_valid>:
    a3d0:	mov    eax,0x1
    a3d5:	ret    
    a3d6:	nop    WORD PTR cs:[rax+rax*1+0x0]

000000000000a3e0 <x86_hvm_pfn_to_gfn>:
    a3e0:	mov    rax,rsi
    a3e3:	ret    
    a3e4:	xchg   ax,ax
    a3e6:	nop    WORD PTR cs:[rax+rax*1+0x0]

000000000000a3f0 <x86_hvm_set_gfn>:
    a3f0:	repz ret 
    a3f2:	nop    DWORD PTR [rax+0x0]
    a3f6:	nop    WORD PTR cs:[rax+rax*1+0x0]

000000000000a400 <x86_hvm_localise_page>:
    a400:	xor    eax,eax
    a402:	ret    
    a403:	nop    DWORD PTR [rax]
    a406:	nop    WORD PTR cs:[rax+rax*1+0x0]

000000000000a410 <x86_hvm_cleanup>:
    a410:	sub    rsp,0x8
    a414:	mov    rdi,QWORD PTR [rdi+0x160]
    a41b:	call   5900 <free@plt>
    a420:	xor    eax,eax
    a422:	add    rsp,0x8
    a426:	ret    
    a427:	nop    WORD PTR [rax+rax*1+0x0]

000000000000a430 <x86_hvm_stream_complete>:
    a430:	push   r13
    a432:	push   r12
    a434:	mov    edx,0x2
    a439:	push   rbp
    a43a:	push   rbx
    a43b:	mov    rbx,rdi
    a43e:	sub    rsp,0x8
    a442:	mov    r12,QWORD PTR [rdi]
    a445:	mov    ecx,DWORD PTR [rdi+0x138]
    a44b:	mov    esi,DWORD PTR [rdi+0x8]
    a44e:	mov    rdi,r12
    a451:	call   6050 <xc_hvm_param_set@plt>
    a456:	test   eax,eax
    a458:	jne    a548 <x86_hvm_stream_complete+0x118>
    a45e:	mov    ecx,DWORD PTR [rbx+0x13c]
    a464:	mov    esi,DWORD PTR [rbx+0x8]
    a467:	mov    edx,0x12
    a46c:	mov    rdi,r12
    a46f:	call   6050 <xc_hvm_param_set@plt>
    a474:	test   eax,eax
    a476:	mov    ebp,eax
    a478:	jne    a500 <x86_hvm_stream_complete+0xd0>
    a47e:	mov    rdx,QWORD PTR [rbx+0x160]
    a485:	mov    esi,DWORD PTR [rbx+0x8]
    a488:	mov    rdi,r12
    a48b:	mov    ecx,DWORD PTR [rbx+0x168]
    a491:	call   61d0 <xc_domain_hvm_setcontext@plt>
    a496:	test   eax,eax
    a498:	mov    ebp,eax
    a49a:	js     a570 <x86_hvm_stream_complete+0x140>
    a4a0:	mov    eax,DWORD PTR [rbx+0x140]
    a4a6:	sub    rsp,0x8
    a4aa:	mov    rcx,QWORD PTR [rbx+0x130]
    a4b1:	mov    esi,DWORD PTR [rbx+0x8]
    a4b4:	mov    edx,0x1
    a4b9:	mov    rdi,r12
    a4bc:	push   rax
    a4bd:	mov    r9d,DWORD PTR [rbx+0x144]
    a4c4:	mov    r8,QWORD PTR [rbx+0x128]
    a4cb:	call   61e0 <xc_dom_gnttab_seed@plt>
    a4d0:	mov    ebp,eax
    a4d2:	test   ebp,ebp
    a4d4:	pop    rax
    a4d5:	pop    rdx
    a4d6:	je     a534 <x86_hvm_stream_complete+0x104>
    a4d8:	call   5940 <__errno_location@plt>
    a4dd:	mov    r13d,DWORD PTR [rax]
    a4e0:	mov    rbx,rax
    a4e3:	mov    rdi,r12
    a4e6:	mov    esi,r13d
    a4e9:	call   6570 <xc_strerror@plt>
    a4ee:	mov    ecx,DWORD PTR [rbx]
    a4f0:	mov    r8,rax
    a4f3:	lea    rdx,[rip+0x17776]        # 21c70 <__PRETTY_FUNCTION__.12816+0x530>
    a4fa:	jmp    a522 <x86_hvm_stream_complete+0xf2>
    a4fc:	nop    DWORD PTR [rax+0x0]
    a500:	call   5940 <__errno_location@plt>
    a505:	mov    r13d,DWORD PTR [rax]
    a508:	mov    rbx,rax
    a50b:	mov    rdi,r12
    a50e:	mov    esi,r13d
    a511:	call   6570 <xc_strerror@plt>
    a516:	mov    ecx,DWORD PTR [rbx]
    a518:	lea    rdx,[rip+0x17e29]        # 22348 <__PRETTY_FUNCTION__.13083+0x48>
    a51f:	mov    r8,rax
    a522:	mov    esi,0x1
    a527:	mov    rdi,r12
    a52a:	xor    eax,eax
    a52c:	call   5d50 <xc_report_error@plt>
    a531:	mov    DWORD PTR [rbx],r13d
    a534:	add    rsp,0x8
    a538:	mov    eax,ebp
    a53a:	pop    rbx
    a53b:	pop    rbp
    a53c:	pop    r12
    a53e:	pop    r13
    a540:	ret    
    a541:	nop    DWORD PTR [rax+0x0]
    a548:	mov    ebp,eax
    a54a:	call   5940 <__errno_location@plt>
    a54f:	mov    r13d,DWORD PTR [rax]
    a552:	mov    rbx,rax
    a555:	mov    rdi,r12
    a558:	mov    esi,r13d
    a55b:	call   6570 <xc_strerror@plt>
    a560:	mov    ecx,DWORD PTR [rbx]
    a562:	mov    r8,rax
    a565:	lea    rdx,[rip+0x17dac]        # 22318 <__PRETTY_FUNCTION__.13083+0x18>
    a56c:	jmp    a522 <x86_hvm_stream_complete+0xf2>
    a56e:	xchg   ax,ax
    a570:	call   5940 <__errno_location@plt>
    a575:	mov    r13d,DWORD PTR [rax]
    a578:	mov    rbx,rax
    a57b:	mov    rdi,r12
    a57e:	mov    esi,r13d
    a581:	call   6570 <xc_strerror@plt>
    a586:	mov    ecx,DWORD PTR [rbx]
    a588:	mov    r8,rax
    a58b:	lea    rdx,[rip+0x17dee]        # 22380 <__PRETTY_FUNCTION__.13083+0x80>
    a592:	jmp    a522 <x86_hvm_stream_complete+0xf2>
    a594:	xchg   ax,ax
    a596:	nop    WORD PTR cs:[rax+rax*1+0x0]

000000000000a5a0 <x86_hvm_setup>:
    a5a0:	push   r13
    a5a2:	push   r12
    a5a4:	push   rbp
    a5a5:	push   rbx
    a5a6:	sub    rsp,0x8
    a5aa:	mov    ebx,DWORD PTR [rdi+0x104]
    a5b0:	mov    rbp,QWORD PTR [rdi]
    a5b3:	cmp    ebx,0x2
    a5b6:	jne    a5d8 <x86_hvm_setup+0x38>
    a5b8:	mov    ebx,DWORD PTR [rdi+0x108]
    a5be:	cmp    ebx,0x1000
    a5c4:	jne    a610 <x86_hvm_setup+0x70>
    a5c6:	xor    eax,eax
    a5c8:	add    rsp,0x8
    a5cc:	pop    rbx
    a5cd:	pop    rbp
    a5ce:	pop    r12
    a5d0:	pop    r13
    a5d2:	ret    
    a5d3:	nop    DWORD PTR [rax+rax*1+0x0]
    a5d8:	call   5940 <__errno_location@plt>
    a5dd:	mov    edi,ebx
    a5df:	mov    r13d,DWORD PTR [rax]
    a5e2:	mov    r12,rax
    a5e5:	call   5d30 <dhdr_type_to_str@plt>
    a5ea:	lea    rdx,[rip+0x17db7]        # 223a8 <__PRETTY_FUNCTION__.13083+0xa8>
    a5f1:	mov    rcx,rax
    a5f4:	mov    esi,0x1
    a5f9:	xor    eax,eax
    a5fb:	mov    rdi,rbp
    a5fe:	call   5d50 <xc_report_error@plt>
    a603:	mov    DWORD PTR [r12],r13d
    a607:	mov    eax,0xffffffff
    a60c:	jmp    a5c8 <x86_hvm_setup+0x28>
    a60e:	xchg   ax,ax
    a610:	call   5940 <__errno_location@plt>
    a615:	mov    r13d,DWORD PTR [rax]
    a618:	lea    rdx,[rip+0x17dc1]        # 223e0 <__PRETTY_FUNCTION__.13083+0xe0>
    a61f:	mov    r12,rax
    a622:	mov    ecx,ebx
    a624:	xor    eax,eax
    a626:	mov    esi,0x1
    a62b:	mov    rdi,rbp
    a62e:	call   5d50 <xc_report_error@plt>
    a633:	mov    DWORD PTR [r12],r13d
    a637:	mov    eax,0xffffffff
    a63c:	jmp    a5c8 <x86_hvm_setup+0x28>
    a63e:	xchg   ax,ax

000000000000a640 <x86_hvm_process_record>:
    a640:	push   r15
    a642:	push   r14
    a644:	push   r13
    a646:	push   r12
    a648:	push   rbp
    a649:	push   rbx
    a64a:	mov    rbp,rdi
    a64d:	mov    rbx,rsi
    a650:	sub    rsp,0x8
    a654:	mov    eax,DWORD PTR [rsi]
    a656:	cmp    eax,0x9
    a659:	je     a7a0 <x86_hvm_process_record+0x160>
    a65f:	cmp    eax,0xa
    a662:	je     a6a0 <x86_hvm_process_record+0x60>
    a664:	cmp    eax,0x8
    a667:	mov    r15d,0x1
    a66d:	je     a688 <x86_hvm_process_record+0x48>
    a66f:	add    rsp,0x8
    a673:	mov    eax,r15d
    a676:	pop    rbx
    a677:	pop    rbp
    a678:	pop    r12
    a67a:	pop    r13
    a67c:	pop    r14
    a67e:	pop    r15
    a680:	ret    
    a681:	nop    DWORD PTR [rax+0x0]
    a688:	add    rsp,0x8
    a68c:	pop    rbx
    a68d:	pop    rbp
    a68e:	pop    r12
    a690:	pop    r13
    a692:	pop    r14
    a694:	pop    r15
    a696:	jmp    5fa0 <handle_tsc_info@plt>
    a69b:	nop    DWORD PTR [rax+rax*1+0x0]
    a6a0:	mov    r12d,DWORD PTR [rsi+0x4]
    a6a4:	mov    r14,QWORD PTR [rsi+0x8]
    a6a8:	mov    r13,QWORD PTR [rdi]
    a6ab:	cmp    r12d,0x7
    a6af:	jbe    a88b <x86_hvm_process_record+0x24b>
    a6b5:	mov    ebx,DWORD PTR [r14]
    a6b8:	mov    eax,r12d
    a6bb:	mov    r15,rbx
    a6be:	shl    rbx,0x4
    a6c2:	lea    rdx,[rbx+0x8]
    a6c6:	cmp    rax,rdx
    a6c9:	jne    a848 <x86_hvm_process_record+0x208>
    a6cf:	xor    r12d,r12d
    a6d2:	test   r15d,r15d
    a6d5:	lea    rbx,[r14+0x8]
    a6d9:	jne    a765 <x86_hvm_process_record+0x125>
    a6df:	call   5940 <__errno_location@plt>
    a6e4:	mov    rsi,QWORD PTR [r13+0x8]
    a6e8:	mov    ebp,DWORD PTR [rax]
    a6ea:	lea    r8,[rip+0x17dd7]        # 224c8 <__PRETTY_FUNCTION__.13083+0x1c8>
    a6f1:	mov    rbx,rax
    a6f4:	xor    ecx,ecx
    a6f6:	mov    edx,0x1
    a6fb:	mov    rdi,r13
    a6fe:	xor    eax,eax
    a700:	call   6540 <xc_report@plt>
    a705:	mov    DWORD PTR [rbx],ebp
    a707:	jmp    a66f <x86_hvm_process_record+0x2f>
    a70c:	nop    DWORD PTR [rax+0x0]
    a710:	cmp    rdx,0x5
    a714:	jae    a790 <x86_hvm_process_record+0x150>
    a716:	cmp    rdx,0x1
    a71a:	jne    a73e <x86_hvm_process_record+0xfe>
    a71c:	mov    QWORD PTR [rbp+0x128],rax
    a723:	mov    rdx,QWORD PTR [rbx+0x8]
    a727:	mov    ecx,0x1
    a72c:	mov    rdi,r13
    a72f:	call   5910 <xc_clear_domain_pages@plt>
    a734:	mov    rax,QWORD PTR [rbx+0x8]
    a738:	mov    rdx,QWORD PTR [rbx]
    a73b:	mov    esi,DWORD PTR [rbp+0x8]
    a73e:	mov    rcx,rax
    a741:	mov    rdi,r13
    a744:	call   6050 <xc_hvm_param_set@plt>
    a749:	test   eax,eax
    a74b:	mov    r15d,eax
    a74e:	js     a7f0 <x86_hvm_process_record+0x1b0>
    a754:	add    r12d,0x1
    a758:	add    rbx,0x10
    a75c:	cmp    r12d,DWORD PTR [r14]
    a75f:	jae    a840 <x86_hvm_process_record+0x200>
    a765:	mov    rdx,QWORD PTR [rbx]
    a768:	mov    rax,QWORD PTR [rbx+0x8]
    a76c:	mov    esi,DWORD PTR [rbp+0x8]
    a76f:	cmp    rdx,0x6
    a773:	jbe    a710 <x86_hvm_process_record+0xd0>
    a775:	cmp    rdx,0x11
    a779:	jne    a73e <x86_hvm_process_record+0xfe>
    a77b:	mov    QWORD PTR [rbp+0x130],rax
    a782:	mov    ecx,0x1
    a787:	mov    rdx,QWORD PTR [rbx+0x8]
    a78b:	jmp    a72c <x86_hvm_process_record+0xec>
    a78d:	nop    DWORD PTR [rax]
    a790:	mov    ecx,0x1
    a795:	mov    rdx,rax
    a798:	jmp    a72c <x86_hvm_process_record+0xec>
    a79a:	nop    WORD PTR [rax+rax*1+0x0]
    a7a0:	mov    r14,QWORD PTR [rdi]
    a7a3:	mov    edi,DWORD PTR [rsi+0x4]
    a7a6:	mov    r13,rdi
    a7a9:	call   5ff0 <malloc@plt>
    a7ae:	test   rax,rax
    a7b1:	mov    r12,rax
    a7b4:	je     a8c1 <x86_hvm_process_record+0x281>
    a7ba:	mov    rdi,QWORD PTR [rbp+0x160]
    a7c1:	xor    r15d,r15d
    a7c4:	call   5900 <free@plt>
    a7c9:	mov    edx,DWORD PTR [rbx+0x4]
    a7cc:	mov    rsi,QWORD PTR [rbx+0x8]
    a7d0:	mov    rdi,r12
    a7d3:	call   5eb0 <memcpy@plt>
    a7d8:	mov    QWORD PTR [rbp+0x160],r12
    a7df:	mov    eax,DWORD PTR [rbx+0x4]
    a7e2:	mov    QWORD PTR [rbp+0x168],rax
    a7e9:	jmp    a66f <x86_hvm_process_record+0x2f>
    a7ee:	xchg   ax,ax
    a7f0:	call   5940 <__errno_location@plt>
    a7f5:	mov    r12d,DWORD PTR [rax]
    a7f8:	mov    rdi,r13
    a7fb:	mov    rbp,rax
    a7fe:	mov    esi,r12d
    a801:	call   6570 <xc_strerror@plt>
    a806:	sub    rsp,0x8
    a80a:	lea    rdx,[rip+0x17cdf]        # 224f0 <__PRETTY_FUNCTION__.13083+0x1f0>
    a811:	mov    esi,0x1
    a816:	push   rax
    a817:	mov    r9d,DWORD PTR [rbp+0x0]
    a81b:	xor    eax,eax
    a81d:	mov    r8,QWORD PTR [rbx+0x8]
    a821:	mov    rcx,QWORD PTR [rbx]
    a824:	mov    rdi,r13
    a827:	call   5d50 <xc_report_error@plt>
    a82c:	mov    DWORD PTR [rbp+0x0],r12d
    a830:	pop    rax
    a831:	pop    rdx
    a832:	jmp    a66f <x86_hvm_process_record+0x2f>
    a837:	nop    WORD PTR [rax+rax*1+0x0]
    a840:	xor    r15d,r15d
    a843:	jmp    a66f <x86_hvm_process_record+0x2f>
    a848:	call   5940 <__errno_location@plt>
    a84d:	sub    rsp,0x8
    a851:	mov    r14d,DWORD PTR [rax]
    a854:	lea    rdx,[rip+0x17c1d]        # 22478 <__PRETTY_FUNCTION__.13083+0x178>
    a85b:	push   r12
    a85d:	mov    rbp,rax
    a860:	mov    r8d,r15d
    a863:	mov    ecx,0x8
    a868:	mov    esi,0x1
    a86d:	mov    r9,rbx
    a870:	mov    rdi,r13
    a873:	xor    eax,eax
    a875:	mov    r15d,0xffffffff
    a87b:	call   5d50 <xc_report_error@plt>
    a880:	mov    DWORD PTR [rbp+0x0],r14d
    a884:	pop    rcx
    a885:	pop    rsi
    a886:	jmp    a66f <x86_hvm_process_record+0x2f>
    a88b:	call   5940 <__errno_location@plt>
    a890:	mov    ebp,DWORD PTR [rax]
    a892:	lea    rdx,[rip+0x17ba7]        # 22440 <__PRETTY_FUNCTION__.13083+0x140>
    a899:	mov    rbx,rax
    a89c:	mov    r8d,0x8
    a8a2:	mov    ecx,r12d
    a8a5:	mov    esi,0x1
    a8aa:	mov    rdi,r13
    a8ad:	xor    eax,eax
    a8af:	mov    r15d,0xffffffff
    a8b5:	call   5d50 <xc_report_error@plt>
    a8ba:	mov    DWORD PTR [rbx],ebp
    a8bc:	jmp    a66f <x86_hvm_process_record+0x2f>
    a8c1:	call   5940 <__errno_location@plt>
    a8c6:	mov    ebp,DWORD PTR [rax]
    a8c8:	lea    rdx,[rip+0x17b41]        # 22410 <__PRETTY_FUNCTION__.13083+0x110>
    a8cf:	mov    rbx,rax
    a8d2:	mov    ecx,r13d
    a8d5:	mov    esi,0x1
    a8da:	mov    rdi,r14
    a8dd:	xor    eax,eax
    a8df:	mov    r15d,0xffffffff
    a8e5:	call   5d50 <xc_report_error@plt>
    a8ea:	mov    DWORD PTR [rbx],ebp
    a8ec:	jmp    a66f <x86_hvm_process_record+0x2f>
    a8f1:	nop    DWORD PTR [rax+rax*1+0x0]
    a8f6:	nop    WORD PTR cs:[rax+rax*1+0x0]

000000000000a900 <x86_hvm_set_page_type>:
    a900:	repz ret 
    a902:	nop    WORD PTR cs:[rax+rax*1+0x0]
    a90c:	nop    DWORD PTR [rax+0x0]

000000000000a910 <x86_pv_start_of_checkpoint>:
    a910:	xor    eax,eax
    a912:	ret    
    a913:	nop    DWORD PTR [rax]
    a916:	nop    WORD PTR cs:[rax+rax*1+0x0]

000000000000a920 <x86_pv_cleanup>:
    a920:	push   rbx
    a921:	mov    rbx,rdi
    a924:	mov    rdi,QWORD PTR [rdi+0x1a0]
    a92b:	call   5900 <free@plt>
    a930:	mov    rdi,QWORD PTR [rbx+0x198]
    a937:	test   rdi,rdi
    a93a:	je     a94b <x86_pv_cleanup+0x2b>
    a93c:	mov    esi,DWORD PTR [rbx+0x190]
    a942:	shl    rsi,0xc
    a946:	call   61b0 <munmap@plt>
    a94b:	mov    rdi,QWORD PTR [rbx+0x1a8]
    a952:	test   rdi,rdi
    a955:	je     a961 <x86_pv_cleanup+0x41>
    a957:	mov    esi,0x1000
    a95c:	call   61b0 <munmap@plt>
    a961:	mov    rdi,QWORD PTR [rbx+0x170]
    a968:	test   rdi,rdi
    a96b:	je     a97d <x86_pv_cleanup+0x5d>
    a96d:	mov    rsi,QWORD PTR [rbx+0x180]
    a974:	shl    rsi,0xc
    a978:	call   61b0 <munmap@plt>
    a97d:	xor    eax,eax
    a97f:	pop    rbx
    a980:	ret    
    a981:	nop    DWORD PTR [rax+rax*1+0x0]
    a986:	nop    WORD PTR cs:[rax+rax*1+0x0]

000000000000a990 <x86_pv_check_vm_state>:
    a990:	mov    rdx,QWORD PTR [rdi+0x1b0]
    a997:	xor    eax,eax
    a999:	cmp    rdx,0xffffffffffffffff
    a99d:	je     a9d0 <x86_pv_check_vm_state+0x40>
    a99f:	cmp    BYTE PTR [rdi+0xc8],0x0
    a9a6:	je     a9d0 <x86_pv_check_vm_state+0x40>
    a9a8:	cmp    DWORD PTR [rdi+0x160],0x8
    a9af:	mov    rax,QWORD PTR [rdi+0x1a8]
    a9b6:	je     a9d8 <x86_pv_check_vm_state+0x48>
    a9b8:	mov    ecx,DWORD PTR [rax+0x920]
    a9be:	cmp    rdx,rcx
    a9c1:	jne    a9e1 <x86_pv_check_vm_state+0x51>
    a9c3:	xor    eax,eax
    a9c5:	ret    
    a9c6:	nop    WORD PTR cs:[rax+rax*1+0x0]
    a9d0:	repz ret 
    a9d2:	nop    WORD PTR [rax+rax*1+0x0]
    a9d8:	mov    rcx,QWORD PTR [rax+0xc38]
    a9df:	jmp    a9be <x86_pv_check_vm_state+0x2e>
    a9e1:	push   r12
    a9e3:	push   rbp
    a9e4:	push   rbx
    a9e5:	mov    QWORD PTR [rdi+0x1b0],rcx
    a9ec:	mov    r12,QWORD PTR [rdi]
    a9ef:	call   5940 <__errno_location@plt>
    a9f4:	mov    ebp,DWORD PTR [rax]
    a9f6:	lea    rdx,[rip+0x17b1b]        # 22518 <__PRETTY_FUNCTION__.13083+0x218>
    a9fd:	mov    rbx,rax
    aa00:	mov    rdi,r12
    aa03:	xor    eax,eax
    aa05:	mov    esi,0x1
    aa0a:	call   5d50 <xc_report_error@plt>
    aa0f:	mov    DWORD PTR [rbx],ebp
    aa11:	mov    eax,0xffffffff
    aa16:	pop    rbx
    aa17:	pop    rbp
    aa18:	pop    r12
    aa1a:	ret    
    aa1b:	nop    DWORD PTR [rax+rax*1+0x0]

000000000000aa20 <write_one_vcpu_basic>:
    aa20:	push   r15
    aa22:	push   r14
    aa24:	mov    edx,esi
    aa26:	push   r13
    aa28:	push   r12
    aa2a:	push   rbp
    aa2b:	push   rbx
    aa2c:	mov    rbx,rdi
    aa2f:	sub    rsp,0x1478
    aa36:	mov    rdi,QWORD PTR [rdi]
    aa39:	mov    rax,QWORD PTR fs:0x28
    aa42:	mov    QWORD PTR [rsp+0x1468],rax
    aa4a:	xor    eax,eax
    aa4c:	mov    DWORD PTR [rsp+0x4],esi
    aa50:	mov    DWORD PTR [rsp+0x28],esi
    aa54:	movabs rax,0x800000004
    aa5e:	lea    rbp,[rsp+0x30]
    aa63:	mov    esi,DWORD PTR [rbx+0x8]
    aa66:	mov    QWORD PTR [rsp+0x10],rax
    aa6b:	lea    rax,[rsp+0x28]
    aa70:	mov    QWORD PTR [rsp+0x8],rdi
    aa75:	mov    DWORD PTR [rsp+0x2c],0x0
    aa7d:	mov    rcx,rbp
    aa80:	mov    QWORD PTR [rsp+0x18],rax
    aa85:	call   6290 <xc_vcpu_getcontext@plt>
    aa8a:	test   eax,eax
    aa8c:	jne    adac <write_one_vcpu_basic+0x38c>
    aa92:	mov    edx,DWORD PTR [rsp+0x4]
    aa96:	mov    eax,DWORD PTR [rbx+0x160]
    aa9c:	test   edx,edx
    aa9e:	je     ac80 <write_one_vcpu_basic+0x260>
    aaa4:	cmp    eax,0x8
    aaa7:	mov    r12d,DWORD PTR [rsp+0x1390]
    aaaf:	je     aab9 <write_one_vcpu_basic+0x99>
    aab1:	mov    r12d,DWORD PTR [rsp+0xac0]
    aab9:	cmp    r12d,0x1c00
    aac0:	ja     adf1 <write_one_vcpu_basic+0x3d1>
    aac6:	add    r12d,0x1ff
    aacd:	shr    r12d,0x9
    aad1:	test   r12d,r12d
    aad4:	je     abc8 <write_one_vcpu_basic+0x1a8>
    aada:	sub    r12d,0x1
    aade:	xor    r14d,r14d
    aae1:	add    r12,0x1
    aae5:	jmp    ab3a <write_one_vcpu_basic+0x11a>
    aae7:	nop    WORD PTR [rax+rax*1+0x0]
    aaf0:	mov    r15d,DWORD PTR [rbp+r14*4+0xa50]
    aaf8:	mov    rdi,rbx
    aafb:	mov    rsi,r15
    aafe:	call   5990 <mfn_in_pseudophysmap@plt>
    ab03:	test   al,al
    ab05:	je     ab59 <write_one_vcpu_basic+0x139>
    ab07:	cmp    DWORD PTR [rbx+0x160],0x8
    ab0e:	mov    rsi,r15
    ab11:	mov    rdi,rbx
    ab14:	je     aba8 <write_one_vcpu_basic+0x188>
    ab1a:	call   6450 <mfn_to_pfn@plt>
    ab1f:	mov    DWORD PTR [rbp+r14*4+0xa50],eax
    ab27:	add    r14,0x1
    ab2b:	mov    eax,DWORD PTR [rbx+0x160]
    ab31:	cmp    r14,r12
    ab34:	je     abc8 <write_one_vcpu_basic+0x1a8>
    ab3a:	cmp    eax,0x8
    ab3d:	mov    r13d,r14d
    ab40:	jne    aaf0 <write_one_vcpu_basic+0xd0>
    ab42:	mov    r15,QWORD PTR [rbp+r14*8+0x12e0]
    ab4a:	mov    rdi,rbx
    ab4d:	mov    rsi,r15
    ab50:	call   5990 <mfn_in_pseudophysmap@plt>
    ab55:	test   al,al
    ab57:	jne    ab07 <write_one_vcpu_basic+0xe7>
    ab59:	call   5940 <__errno_location@plt>
    ab5e:	mov    r8d,DWORD PTR [rsp+0x4]
    ab63:	mov    r12d,DWORD PTR [rax]
    ab66:	lea    rdx,[rip+0x17a0b]        # 22578 <__PRETTY_FUNCTION__.13083+0x278>
    ab6d:	mov    rdi,QWORD PTR [rsp+0x8]
    ab72:	mov    rbp,rax
    ab75:	mov    ecx,r13d
    ab78:	xor    eax,eax
    ab7a:	mov    esi,0x1
    ab7f:	call   5d50 <xc_report_error@plt>
    ab84:	mov    DWORD PTR [rbp+0x0],r12d
    ab88:	mov    rsi,r15
    ab8b:	mov    rdi,rbx
    ab8e:	call   5d90 <dump_bad_pseudophysmap_entry@plt>
    ab93:	mov    DWORD PTR [rbp+0x0],0x22
    ab9a:	mov    eax,0xffffffff
    ab9f:	jmp    ac53 <write_one_vcpu_basic+0x233>
    aba4:	nop    DWORD PTR [rax+0x0]
    aba8:	call   6450 <mfn_to_pfn@plt>
    abad:	mov    QWORD PTR [rbp+r14*8+0x12e0],rax
    abb5:	add    r14,0x1
    abb9:	mov    eax,DWORD PTR [rbx+0x160]
    abbf:	cmp    r14,r12
    abc2:	jne    ab3a <write_one_vcpu_basic+0x11a>
    abc8:	cmp    eax,0x8
    abcb:	mov    rsi,QWORD PTR [rsp+0x13c0]
    abd3:	je     abdc <write_one_vcpu_basic+0x1bc>
    abd5:	mov    esi,DWORD PTR [rsp+0xad8]
    abdc:	mov    rdi,rbx
    abdf:	call   5e50 <cr3_to_mfn@plt>
    abe4:	mov    rdi,rbx
    abe7:	mov    rsi,rax
    abea:	mov    r12,rax
    abed:	call   5990 <mfn_in_pseudophysmap@plt>
    abf2:	test   al,al
    abf4:	je     ad65 <write_one_vcpu_basic+0x345>
    abfa:	mov    rsi,r12
    abfd:	mov    rdi,rbx
    ac00:	call   6450 <mfn_to_pfn@plt>
    ac05:	cmp    DWORD PTR [rbx+0x160],0x8
    ac0c:	mov    rsi,rax
    ac0f:	mov    rdi,rbx
    ac12:	je     ad20 <write_one_vcpu_basic+0x300>
    ac18:	call   64a0 <mfn_to_cr3@plt>
    ac1d:	mov    DWORD PTR [rsp+0xad8],eax
    ac24:	cmp    DWORD PTR [rbx+0x164],0x4
    ac2b:	je     acd8 <write_one_vcpu_basic+0x2b8>
    ac31:	cmp    DWORD PTR [rbx+0x160],0x8
    ac38:	lea    rsi,[rsp+0x10]
    ac3d:	je     ad50 <write_one_vcpu_basic+0x330>
    ac43:	mov    ecx,0xaf0
    ac48:	mov    rdx,rbp
    ac4b:	mov    rdi,rbx
    ac4e:	call   5870 <write_split_record@plt>
    ac53:	mov    rcx,QWORD PTR [rsp+0x1468]
    ac5b:	xor    rcx,QWORD PTR fs:0x28
    ac64:	jne    ae6d <write_one_vcpu_basic+0x44d>
    ac6a:	add    rsp,0x1478
    ac71:	pop    rbx
    ac72:	pop    rbp
    ac73:	pop    r12
    ac75:	pop    r13
    ac77:	pop    r14
    ac79:	pop    r15
    ac7b:	ret    
    ac7c:	nop    DWORD PTR [rax+0x0]
    ac80:	cmp    eax,0x8
    ac83:	mov    r12,QWORD PTR [rsp+0x298]
    ac8b:	je     ac95 <write_one_vcpu_basic+0x275>
    ac8d:	mov    r12d,DWORD PTR [rsp+0x23c]
    ac95:	mov    rsi,r12
    ac98:	mov    rdi,rbx
    ac9b:	call   5990 <mfn_in_pseudophysmap@plt>
    aca0:	test   al,al
    aca2:	je     ae2a <write_one_vcpu_basic+0x40a>
    aca8:	cmp    DWORD PTR [rbx+0x160],0x8
    acaf:	mov    rsi,r12
    acb2:	mov    rdi,rbx
    acb5:	je     ad38 <write_one_vcpu_basic+0x318>
    acbb:	call   6450 <mfn_to_pfn@plt>
    acc0:	mov    DWORD PTR [rsp+0x23c],eax
    acc7:	mov    eax,DWORD PTR [rbx+0x160]
    accd:	jmp    aaa4 <write_one_vcpu_basic+0x84>
    acd2:	nop    WORD PTR [rax+rax*1+0x0]
    acd8:	mov    rsi,QWORD PTR [rsp+0x13b0]
    ace0:	test   rsi,rsi
    ace3:	je     ac31 <write_one_vcpu_basic+0x211>
    ace9:	shr    rsi,0xc
    aced:	mov    rdi,rbx
    acf0:	mov    r12,rsi
    acf3:	call   5990 <mfn_in_pseudophysmap@plt>
    acf8:	test   al,al
    acfa:	je     ae52 <write_one_vcpu_basic+0x432>
    ad00:	mov    rsi,r12
    ad03:	mov    rdi,rbx
    ad06:	call   6450 <mfn_to_pfn@plt>
    ad0b:	shl    rax,0xc
    ad0f:	or     rax,0x1
    ad13:	mov    QWORD PTR [rsp+0x13b0],rax
    ad1b:	jmp    ac31 <write_one_vcpu_basic+0x211>
    ad20:	call   64a0 <mfn_to_cr3@plt>
    ad25:	mov    QWORD PTR [rsp+0x13c0],rax
    ad2d:	jmp    ac24 <write_one_vcpu_basic+0x204>
    ad32:	nop    WORD PTR [rax+rax*1+0x0]
    ad38:	call   6450 <mfn_to_pfn@plt>
    ad3d:	mov    QWORD PTR [rsp+0x298],rax
    ad45:	mov    eax,DWORD PTR [rbx+0x160]
    ad4b:	jmp    aaa4 <write_one_vcpu_basic+0x84>
    ad50:	mov    ecx,0x1430
    ad55:	mov    rdx,rbp
    ad58:	mov    rdi,rbx
    ad5b:	call   5870 <write_split_record@plt>
    ad60:	jmp    ac53 <write_one_vcpu_basic+0x233>
    ad65:	call   5940 <__errno_location@plt>
    ad6a:	mov    ecx,DWORD PTR [rsp+0x4]
    ad6e:	mov    r13d,DWORD PTR [rax]
    ad71:	lea    rdx,[rip+0x17d46]        # 22abe <__PRETTY_FUNCTION__.13083+0x7be>
    ad78:	mov    rbp,rax
    ad7b:	mov    rdi,QWORD PTR [rsp+0x8]
    ad80:	mov    esi,0x1
    ad85:	xor    eax,eax
    ad87:	call   5d50 <xc_report_error@plt>
    ad8c:	mov    DWORD PTR [rbp+0x0],r13d
    ad90:	mov    rsi,r12
    ad93:	mov    rdi,rbx
    ad96:	call   5d90 <dump_bad_pseudophysmap_entry@plt>
    ad9b:	mov    DWORD PTR [rbp+0x0],0x22
    ada2:	mov    eax,0xffffffff
    ada7:	jmp    ac53 <write_one_vcpu_basic+0x233>
    adac:	call   5940 <__errno_location@plt>
    adb1:	mov    r15,QWORD PTR [rsp+0x8]
    adb6:	mov    ebp,DWORD PTR [rax]
    adb8:	mov    rbx,rax
    adbb:	mov    esi,ebp
    adbd:	mov    rdi,r15
    adc0:	call   6570 <xc_strerror@plt>
    adc5:	mov    r8d,DWORD PTR [rbx]
    adc8:	mov    ecx,DWORD PTR [rsp+0x4]
    adcc:	lea    rdx,[rip+0x1777d]        # 22550 <__PRETTY_FUNCTION__.13083+0x250>
    add3:	mov    r9,rax
    add6:	mov    esi,0x1
    addb:	xor    eax,eax
    addd:	mov    rdi,r15
    ade0:	call   5d50 <xc_report_error@plt>
    ade5:	mov    DWORD PTR [rbx],ebp
    ade7:	mov    eax,0xffffffff
    adec:	jmp    ac53 <write_one_vcpu_basic+0x233>
    adf1:	call   5940 <__errno_location@plt>
    adf6:	mov    rdi,QWORD PTR [rsp+0x8]
    adfb:	lea    rdx,[rip+0x16b8e]        # 21990 <__PRETTY_FUNCTION__.12816+0x250>
    ae02:	mov    rbx,rax
    ae05:	mov    r8d,0x1c00
    ae0b:	xor    eax,eax
    ae0d:	mov    ecx,r12d
    ae10:	mov    esi,0x1
    ae15:	call   5d50 <xc_report_error@plt>
    ae1a:	mov    DWORD PTR [rbx],0x22
    ae20:	mov    eax,0xffffffff
    ae25:	jmp    ac53 <write_one_vcpu_basic+0x233>
    ae2a:	call   5940 <__errno_location@plt>
    ae2f:	mov    rdi,QWORD PTR [rsp+0x8]
    ae34:	lea    rdx,[rip+0x17c68]        # 22aa3 <__PRETTY_FUNCTION__.13083+0x7a3>
    ae3b:	mov    rbp,rax
    ae3e:	mov    r13d,DWORD PTR [rax]
    ae41:	mov    esi,0x1
    ae46:	xor    eax,eax
    ae48:	call   5d50 <xc_report_error@plt>
    ae4d:	jmp    ad8c <write_one_vcpu_basic+0x36c>
    ae52:	call   5940 <__errno_location@plt>
    ae57:	mov    ecx,DWORD PTR [rsp+0x4]
    ae5b:	mov    rbp,rax
    ae5e:	mov    r13d,DWORD PTR [rax]
    ae61:	lea    rdx,[rip+0x17c6f]        # 22ad7 <__PRETTY_FUNCTION__.13083+0x7d7>
    ae68:	jmp    ad7b <write_one_vcpu_basic+0x35b>
    ae6d:	call   5b80 <__stack_chk_fail@plt>
    ae72:	nop    DWORD PTR [rax+0x0]
    ae76:	nop    WORD PTR cs:[rax+rax*1+0x0]

000000000000ae80 <write_all_vcpu_information>:
    ae80:	push   r15
    ae82:	push   r14
    ae84:	push   r13
    ae86:	push   r12
    ae88:	push   rbp
    ae89:	push   rbx
    ae8a:	mov    rbp,rdi
    ae8d:	xor    ebx,ebx
    ae8f:	sub    rsp,0x138
    ae96:	mov    rax,QWORD PTR fs:0x28
    ae9f:	mov    QWORD PTR [rsp+0x128],rax
    aea7:	xor    eax,eax
    aea9:	mov    rax,QWORD PTR [rdi]
    aeac:	mov    QWORD PTR [rsp+0x8],rax
    aeb1:	lea    rax,[rsp+0x40]
    aeb6:	mov    QWORD PTR [rsp+0x10],rax
    aebb:	lea    rax,[rsp+0x90]
    aec3:	mov    QWORD PTR [rsp],rax
    aec7:	lea    rax,[rsp+0xa0]
    aecf:	mov    QWORD PTR [rsp+0x28],rax
    aed4:	jmp    b185 <write_all_vcpu_information+0x305>
    aed9:	nop    DWORD PTR [rax+0x0]
    aee0:	lea    rdi,[r15+0x8]
    aee4:	mov    rcx,r15
    aee7:	movabs rax,0x800000006
    aef1:	mov    QWORD PTR [rsp+0x30],rax
    aef6:	xor    eax,eax
    aef8:	mov    r14,QWORD PTR [rbp+0x0]
    aefc:	and    rdi,0xfffffffffffffff8
    af00:	mov    QWORD PTR [rsp+0x60],0x0
    af09:	mov    QWORD PTR [rsp+0x68],0x0
    af12:	sub    rcx,rdi
    af15:	mov    DWORD PTR [rsp+0x70],0x0
    af1d:	mov    QWORD PTR [rsp+0x78],0xffffffffffffffff
    af26:	add    ecx,0x8c
    af2c:	mov    QWORD PTR [rsp+0x80],0x0
    af38:	mov    DWORD PTR [rsp+0x8c],0x0
    af43:	shr    ecx,0x3
    af46:	mov    DWORD PTR [rsp+0x88],ebx
    af4d:	mov    QWORD PTR [rsp+0x38],r13
    af52:	mov    QWORD PTR [r15],0x0
    af59:	mov    QWORD PTR [r15+0x84],0x0
    af64:	rep stos QWORD PTR es:[rdi],rax
    af67:	mov    rdi,r14
    af6a:	mov    DWORD PTR [rsp+0x90],0x3f
    af75:	mov    DWORD PTR [rsp+0xa0],ebx
    af7c:	mov    eax,DWORD PTR [rbp+0x8]
    af7f:	mov    rsi,QWORD PTR [rsp]
    af83:	mov    WORD PTR [rsp+0x98],ax
    af8b:	call   59d0 <xc_domctl@plt>
    af90:	test   eax,eax
    af92:	js     b393 <write_all_vcpu_information+0x513>
    af98:	cmp    QWORD PTR [rsp+0xa8],0x0
    afa1:	mov    rsi,QWORD PTR [rsp+0x68]
    afa6:	je     b01f <write_all_vcpu_information+0x19f>
    afa8:	lea    rax,[rsp+0x60]
    afad:	mov    rdx,QWORD PTR [rsp+0xb0]
    afb5:	test   rsi,rsi
    afb8:	mov    rdi,r14
    afbb:	cmove  rsi,rax
    afbf:	mov    QWORD PTR [rsp+0x18],rax
    afc4:	call   6220 <xc__hypercall_buffer_alloc@plt>
    afc9:	test   rax,rax
    afcc:	je     b4a3 <write_all_vcpu_information+0x623>
    afd2:	mov    QWORD PTR [rsp+0x20],rax
    afd7:	mov    rax,QWORD PTR [rsp+0x68]
    afdc:	mov    rdi,r14
    afdf:	mov    rsi,QWORD PTR [rsp]
    afe3:	test   rax,rax
    afe6:	cmove  rax,QWORD PTR [rsp+0x18]
    afec:	mov    rax,QWORD PTR [rax]
    afef:	mov    QWORD PTR [rsp+0xb8],rax
    aff7:	call   59d0 <xc_domctl@plt>
    affc:	test   eax,eax
    affe:	mov    rdx,QWORD PTR [rsp+0x20]
    b003:	js     b393 <write_all_vcpu_information+0x513>
    b009:	mov    rcx,QWORD PTR [rsp+0xb0]
    b011:	test   rcx,rcx
    b014:	jne    b2b8 <write_all_vcpu_information+0x438>
    b01a:	mov    rsi,QWORD PTR [rsp+0x68]
    b01f:	test   rsi,rsi
    b022:	je     b330 <write_all_vcpu_information+0x4b0>
    b028:	mov    rdi,r14
    b02b:	call   6190 <xc__hypercall_buffer_free@plt>
    b030:	lea    rdi,[r15+0x8]
    b034:	mov    r8,r15
    b037:	movabs rax,0x80000000c
    b041:	mov    QWORD PTR [rsp+0x30],rax
    b046:	xor    eax,eax
    b048:	mov    r14,QWORD PTR [rbp+0x0]
    b04c:	and    rdi,0xfffffffffffffff8
    b050:	mov    QWORD PTR [rsp+0x60],0x0
    b059:	mov    QWORD PTR [rsp+0x68],0x0
    b062:	sub    r8,rdi
    b065:	mov    DWORD PTR [rsp+0x70],0x0
    b06d:	mov    QWORD PTR [rsp+0x78],0xffffffffffffffff
    b076:	lea    ecx,[r8+0x8c]
    b07d:	mov    QWORD PTR [rsp+0x80],0x0
    b089:	mov    DWORD PTR [rsp+0x8c],0x0
    b094:	mov    DWORD PTR [rsp+0x88],ebx
    b09b:	mov    QWORD PTR [rsp+0x38],r13
    b0a0:	shr    ecx,0x3
    b0a3:	mov    QWORD PTR [r15],0x0
    b0aa:	mov    QWORD PTR [r15+0x84],0x0
    b0b5:	rep stos QWORD PTR es:[rdi],rax
    b0b8:	mov    rdi,r14
    b0bb:	mov    DWORD PTR [rsp+0x90],0x48
    b0c6:	mov    DWORD PTR [rsp+0xa0],ebx
    b0cd:	mov    eax,DWORD PTR [rbp+0x8]
    b0d0:	mov    rsi,QWORD PTR [rsp]
    b0d4:	mov    WORD PTR [rsp+0x98],ax
    b0dc:	call   59d0 <xc_domctl@plt>
    b0e1:	test   eax,eax
    b0e3:	js     b3ed <write_all_vcpu_information+0x56d>
    b0e9:	mov    r13d,DWORD PTR [rsp+0xa4]
    b0f1:	mov    rsi,QWORD PTR [rsp+0x68]
    b0f6:	test   r13d,r13d
    b0f9:	je     b168 <write_all_vcpu_information+0x2e8>
    b0fb:	lea    r15,[rsp+0x60]
    b100:	shl    r13,0x4
    b104:	test   rsi,rsi
    b107:	mov    rdx,r13
    b10a:	mov    rdi,r14
    b10d:	cmove  rsi,r15
    b111:	call   6220 <xc__hypercall_buffer_alloc@plt>
    b116:	test   rax,rax
    b119:	je     b4d8 <write_all_vcpu_information+0x658>
    b11f:	mov    QWORD PTR [rsp+0x18],rax
    b124:	mov    rax,QWORD PTR [rsp+0x68]
    b129:	mov    rdi,r14
    b12c:	mov    rsi,QWORD PTR [rsp]
    b130:	test   rax,rax
    b133:	cmove  rax,r15
    b137:	mov    rax,QWORD PTR [rax]
    b13a:	mov    QWORD PTR [rsp+0xa8],rax
    b142:	call   59d0 <xc_domctl@plt>
    b147:	test   eax,eax
    b149:	mov    rdx,QWORD PTR [rsp+0x18]
    b14e:	js     b3ed <write_all_vcpu_information+0x56d>
    b154:	mov    ecx,DWORD PTR [rsp+0xa4]
    b15b:	test   ecx,ecx
    b15d:	jne    b2f0 <write_all_vcpu_information+0x470>
    b163:	mov    rsi,QWORD PTR [rsp+0x68]
    b168:	test   rsi,rsi
    b16b:	je     b340 <write_all_vcpu_information+0x4c0>
    b171:	mov    rdi,r14
    b174:	call   6190 <xc__hypercall_buffer_free@plt>
    b179:	add    ebx,0x1
    b17c:	cmp    DWORD PTR [rbp+0x5c],ebx
    b17f:	jb     b287 <write_all_vcpu_information+0x407>
    b185:	mov    esi,DWORD PTR [rbp+0x8]
    b188:	mov    rcx,QWORD PTR [rsp+0x10]
    b18d:	mov    edx,ebx
    b18f:	mov    rdi,QWORD PTR [rsp+0x8]
    b194:	call   5950 <xc_vcpu_getinfo@plt>
    b199:	test   eax,eax
    b19b:	mov    r12d,eax
    b19e:	jne    b350 <write_all_vcpu_information+0x4d0>
    b1a4:	cmp    BYTE PTR [rsp+0x44],0x0
    b1a9:	je     b179 <write_all_vcpu_information+0x2f9>
    b1ab:	mov    esi,ebx
    b1ad:	mov    rdi,rbp
    b1b0:	call   aa20 <write_one_vcpu_basic>
    b1b5:	test   eax,eax
    b1b7:	jne    b284 <write_all_vcpu_information+0x404>
    b1bd:	lea    r15,[rsp+0x94]
    b1c5:	movabs rax,0x800000005
    b1cf:	lea    r13,[rsp+0x88]
    b1d7:	mov    QWORD PTR [rsp+0x60],rax
    b1dc:	xor    eax,eax
    b1de:	mov    r14,QWORD PTR [rbp+0x0]
    b1e2:	lea    rdi,[r15+0x8]
    b1e6:	mov    rcx,r15
    b1e9:	mov    QWORD PTR [rsp+0x94],0x0
    b1f5:	mov    DWORD PTR [rsp+0x8c],0x0
    b200:	mov    DWORD PTR [rsp+0x88],ebx
    b207:	and    rdi,0xfffffffffffffff8
    b20b:	mov    QWORD PTR [rsp+0x68],r13
    b210:	mov    QWORD PTR [r15+0x84],0x0
    b21b:	sub    rcx,rdi
    b21e:	add    ecx,0x8c
    b224:	shr    ecx,0x3
    b227:	rep stos QWORD PTR es:[rdi],rax
    b22a:	mov    rdi,r14
    b22d:	mov    DWORD PTR [rsp+0x90],0x2b
    b238:	mov    DWORD PTR [rsp+0xa0],ebx
    b23f:	mov    eax,DWORD PTR [rbp+0x8]
    b242:	mov    rsi,QWORD PTR [rsp]
    b246:	mov    WORD PTR [rsp+0x98],ax
    b24e:	call   59d0 <xc_domctl@plt>
    b253:	test   eax,eax
    b255:	js     b448 <write_all_vcpu_information+0x5c8>
    b25b:	mov    ecx,DWORD PTR [rsp+0xa4]
    b262:	test   ecx,ecx
    b264:	je     aee0 <write_all_vcpu_information+0x60>
    b26a:	mov    rdx,QWORD PTR [rsp+0x28]
    b26f:	lea    rsi,[rsp+0x60]
    b274:	mov    rdi,rbp
    b277:	call   5870 <write_split_record@plt>
    b27c:	test   eax,eax
    b27e:	je     aee0 <write_all_vcpu_information+0x60>
    b284:	mov    r12d,eax
    b287:	mov    rdx,QWORD PTR [rsp+0x128]
    b28f:	xor    rdx,QWORD PTR fs:0x28
    b298:	mov    eax,r12d
    b29b:	jne    b508 <write_all_vcpu_information+0x688>
    b2a1:	add    rsp,0x138
    b2a8:	pop    rbx
    b2a9:	pop    rbp
    b2aa:	pop    r12
    b2ac:	pop    r13
    b2ae:	pop    r14
    b2b0:	pop    r15
    b2b2:	ret    
    b2b3:	nop    DWORD PTR [rax+rax*1+0x0]
    b2b8:	lea    rsi,[rsp+0x30]
    b2bd:	mov    rdi,rbp
    b2c0:	call   5870 <write_split_record@plt>
    b2c5:	mov    rsi,QWORD PTR [rsp+0x68]
    b2ca:	mov    rdi,r14
    b2cd:	mov    DWORD PTR [rsp+0x20],eax
    b2d1:	test   rsi,rsi
    b2d4:	cmove  rsi,QWORD PTR [rsp+0x18]
    b2da:	call   6190 <xc__hypercall_buffer_free@plt>
    b2df:	mov    eax,DWORD PTR [rsp+0x20]
    b2e3:	test   eax,eax
    b2e5:	je     b030 <write_all_vcpu_information+0x1b0>
    b2eb:	mov    r12d,eax
    b2ee:	jmp    b287 <write_all_vcpu_information+0x407>
    b2f0:	lea    rsi,[rsp+0x30]
    b2f5:	shl    rcx,0x4
    b2f9:	mov    rdi,rbp
    b2fc:	call   5870 <write_split_record@plt>
    b301:	mov    rsi,QWORD PTR [rsp+0x68]
    b306:	mov    r13d,eax
    b309:	mov    rdi,r14
    b30c:	test   rsi,rsi
    b30f:	cmove  rsi,r15
    b313:	call   6190 <xc__hypercall_buffer_free@plt>
    b318:	test   r13d,r13d
    b31b:	je     b179 <write_all_vcpu_information+0x2f9>
    b321:	mov    r12d,r13d
    b324:	jmp    b287 <write_all_vcpu_information+0x407>
    b329:	nop    DWORD PTR [rax+0x0]
    b330:	lea    rsi,[rsp+0x60]
    b335:	jmp    b028 <write_all_vcpu_information+0x1a8>
    b33a:	nop    WORD PTR [rax+rax*1+0x0]
    b340:	lea    rsi,[rsp+0x60]
    b345:	jmp    b171 <write_all_vcpu_information+0x2f1>
    b34a:	nop    WORD PTR [rax+rax*1+0x0]
    b350:	call   5940 <__errno_location@plt>
    b355:	mov    r14,QWORD PTR [rsp+0x8]
    b35a:	mov    r13d,DWORD PTR [rax]
    b35d:	mov    rbp,rax
    b360:	mov    esi,r13d
    b363:	mov    rdi,r14
    b366:	call   6570 <xc_strerror@plt>
    b36b:	mov    r8d,DWORD PTR [rbp+0x0]
    b36f:	lea    rdx,[rip+0x1722a]        # 225a0 <__PRETTY_FUNCTION__.13083+0x2a0>
    b376:	mov    r9,rax
    b379:	mov    ecx,ebx
    b37b:	mov    esi,0x1
    b380:	mov    rdi,r14
    b383:	xor    eax,eax
    b385:	call   5d50 <xc_report_error@plt>
    b38a:	mov    DWORD PTR [rbp+0x0],r13d
    b38e:	jmp    b287 <write_all_vcpu_information+0x407>
    b393:	call   5940 <__errno_location@plt>
    b398:	mov    r12d,DWORD PTR [rax]
    b39b:	mov    rbp,rax
    b39e:	mov    rdi,r14
    b3a1:	mov    esi,r12d
    b3a4:	call   6570 <xc_strerror@plt>
    b3a9:	mov    r8d,DWORD PTR [rbp+0x0]
    b3ad:	lea    rdx,[rip+0x1724c]        # 22600 <__PRETTY_FUNCTION__.13083+0x300>
    b3b4:	mov    r9,rax
    b3b7:	mov    ecx,ebx
    b3b9:	mov    esi,0x1
    b3be:	mov    rdi,r14
    b3c1:	xor    eax,eax
    b3c3:	call   5d50 <xc_report_error@plt>
    b3c8:	mov    DWORD PTR [rbp+0x0],r12d
    b3cc:	mov    rsi,QWORD PTR [rsp+0x68]
    b3d1:	test   rsi,rsi
    b3d4:	je     b48c <write_all_vcpu_information+0x60c>
    b3da:	mov    rdi,r14
    b3dd:	mov    r12d,0xffffffff
    b3e3:	call   6190 <xc__hypercall_buffer_free@plt>
    b3e8:	jmp    b287 <write_all_vcpu_information+0x407>
    b3ed:	call   5940 <__errno_location@plt>
    b3f2:	mov    r12d,DWORD PTR [rax]
    b3f5:	mov    rbp,rax
    b3f8:	mov    rdi,r14
    b3fb:	mov    esi,r12d
    b3fe:	call   6570 <xc_strerror@plt>
    b403:	mov    r8d,DWORD PTR [rbp+0x0]
    b407:	lea    rdx,[rip+0x1725a]        # 22668 <__PRETTY_FUNCTION__.13083+0x368>
    b40e:	mov    r9,rax
    b411:	mov    ecx,ebx
    b413:	mov    esi,0x1
    b418:	mov    rdi,r14
    b41b:	xor    eax,eax
    b41d:	call   5d50 <xc_report_error@plt>
    b422:	mov    DWORD PTR [rbp+0x0],r12d
    b426:	mov    rsi,QWORD PTR [rsp+0x68]
    b42b:	test   rsi,rsi
    b42e:	jne    b3da <write_all_vcpu_information+0x55a>
    b430:	lea    rsi,[rsp+0x60]
    b435:	mov    rdi,r14
    b438:	mov    r13d,0xffffffff
    b43e:	call   6190 <xc__hypercall_buffer_free@plt>
    b443:	jmp    b321 <write_all_vcpu_information+0x4a1>
    b448:	call   5940 <__errno_location@plt>
    b44d:	mov    r12d,DWORD PTR [rax]
    b450:	mov    rbp,rax
    b453:	mov    rdi,r14
    b456:	mov    esi,r12d
    b459:	call   6570 <xc_strerror@plt>
    b45e:	mov    r8d,DWORD PTR [rbp+0x0]
    b462:	lea    rdx,[rip+0x17167]        # 225d0 <__PRETTY_FUNCTION__.13083+0x2d0>
    b469:	mov    r9,rax
    b46c:	mov    ecx,ebx
    b46e:	mov    esi,0x1
    b473:	mov    rdi,r14
    b476:	xor    eax,eax
    b478:	call   5d50 <xc_report_error@plt>
    b47d:	mov    DWORD PTR [rbp+0x0],r12d
    b481:	mov    r12d,0xffffffff
    b487:	jmp    b287 <write_all_vcpu_information+0x407>
    b48c:	lea    rsi,[rsp+0x60]
    b491:	mov    rdi,r14
    b494:	call   6190 <xc__hypercall_buffer_free@plt>
    b499:	mov    eax,0xffffffff
    b49e:	jmp    b284 <write_all_vcpu_information+0x404>
    b4a3:	call   5940 <__errno_location@plt>
    b4a8:	mov    rcx,QWORD PTR [rsp+0xb0]
    b4b0:	mov    r12d,DWORD PTR [rax]
    b4b3:	lea    rdx,[rip+0x17176]        # 22630 <__PRETTY_FUNCTION__.13083+0x330>
    b4ba:	mov    rbp,rax
    b4bd:	mov    r8d,ebx
    b4c0:	mov    esi,0x1
    b4c5:	mov    rdi,r14
    b4c8:	xor    eax,eax
    b4ca:	call   5d50 <xc_report_error@plt>
    b4cf:	mov    DWORD PTR [rbp+0x0],r12d
    b4d3:	jmp    b3cc <write_all_vcpu_information+0x54c>
    b4d8:	call   5940 <__errno_location@plt>
    b4dd:	mov    r12d,DWORD PTR [rax]
    b4e0:	lea    rdx,[rip+0x171a9]        # 22690 <__PRETTY_FUNCTION__.13083+0x390>
    b4e7:	mov    rbp,rax
    b4ea:	mov    r8d,ebx
    b4ed:	mov    rcx,r13
    b4f0:	mov    esi,0x1
    b4f5:	mov    rdi,r14
    b4f8:	xor    eax,eax
    b4fa:	call   5d50 <xc_report_error@plt>
    b4ff:	mov    DWORD PTR [rbp+0x0],r12d
    b503:	jmp    b426 <write_all_vcpu_information+0x5a6>
    b508:	call   5b80 <__stack_chk_fail@plt>
    b50d:	nop    DWORD PTR [rax]

000000000000b510 <x86_pv_normalise_page>:
    b510:	and    esi,0x70000000
    b516:	push   r15
    b518:	push   r14
    b51a:	lea    rcx,[rsi-0x10000000]
    b521:	push   r13
    b523:	push   r12
    b525:	push   rbp
    b526:	push   rbx
    b527:	xor    eax,eax
    b529:	sub    rsp,0x38
    b52d:	cmp    rcx,0x30000000
    b534:	mov    QWORD PTR [rsp+0x10],rsi
    b539:	jbe    b550 <x86_pv_normalise_page+0x40>
    b53b:	add    rsp,0x38
    b53f:	pop    rbx
    b540:	pop    rbp
    b541:	pop    r12
    b543:	pop    r13
    b545:	pop    r14
    b547:	pop    r15
    b549:	ret    
    b54a:	nop    WORD PTR [rax+rax*1+0x0]
    b550:	mov    rax,QWORD PTR [rdi]
    b553:	mov    rbx,rdi
    b556:	mov    edi,0x1000
    b55b:	mov    QWORD PTR [rsp+0x20],rdx
    b560:	mov    QWORD PTR [rsp+0x28],rax
    b565:	call   5ff0 <malloc@plt>
    b56a:	test   rax,rax
    b56d:	mov    r12,rax
    b570:	je     b7f7 <x86_pv_normalise_page+0x2e7>
    b576:	mov    rax,QWORD PTR [rsp+0x20]
    b57b:	cmp    DWORD PTR [rbx+0x164],0x4
    b582:	mov    rax,QWORD PTR [rax]
    b585:	mov    QWORD PTR [rsp+0x18],rax
    b58a:	je     b6c0 <x86_pv_normalise_page+0x1b0>
    b590:	mov    rax,QWORD PTR [rsp+0x10]
    b595:	cmp    rax,0x30000000
    b59b:	je     b668 <x86_pv_normalise_page+0x158>
    b5a1:	cmp    rax,0x40000000
    b5a7:	je     b780 <x86_pv_normalise_page+0x270>
    b5ad:	cmp    rax,0x20000000
    b5b3:	je     b737 <x86_pv_normalise_page+0x227>
    b5b9:	mov    eax,0xffffffff
    b5be:	mov    DWORD PTR [rsp+0xc],eax
    b5c2:	mov    DWORD PTR [rsp],eax
    b5c5:	xor    r13d,r13d
    b5c8:	jmp    b5ee <x86_pv_normalise_page+0xde>
    b5ca:	nop    WORD PTR [rax+rax*1+0x0]
    b5d0:	xor    ebp,ebp
    b5d2:	cmp    DWORD PTR [rsp+0xc],r13d
    b5d7:	jb     b5f7 <x86_pv_normalise_page+0xe7>
    b5d9:	mov    QWORD PTR [r12+r13*8],rbp
    b5dd:	add    r13,0x1
    b5e1:	cmp    r13,0x200
    b5e8:	je     b730 <x86_pv_normalise_page+0x220>
    b5ee:	cmp    DWORD PTR [rsp],r13d
    b5f2:	mov    r15d,r13d
    b5f5:	jbe    b5d0 <x86_pv_normalise_page+0xc0>
    b5f7:	mov    rax,QWORD PTR [rsp+0x18]
    b5fc:	mov    rbp,QWORD PTR [rax+r13*8]
    b600:	test   bpl,0x1
    b604:	je     b5d9 <x86_pv_normalise_page+0xc9>
    b606:	mov    r8,rbp
    b609:	movabs r14,0xffffffffff
    b613:	shr    r8,0xc
    b617:	and    r14,r8
    b61a:	cmp    QWORD PTR [rsp+0x10],0x10000000
    b623:	je     b62f <x86_pv_normalise_page+0x11f>
    b625:	test   bpl,0x80
    b629:	jne    b6e8 <x86_pv_normalise_page+0x1d8>
    b62f:	mov    rsi,r14
    b632:	mov    rdi,rbx
    b635:	call   5990 <mfn_in_pseudophysmap@plt>
    b63a:	test   al,al
    b63c:	je     b680 <x86_pv_normalise_page+0x170>
    b63e:	mov    rsi,r14
    b641:	mov    rdi,rbx
    b644:	call   6450 <mfn_to_pfn@plt>
    b649:	movabs rcx,0xfff0000000000fff
    b653:	shl    rax,0xc
    b657:	and    rcx,rbp
    b65a:	or     rcx,rax
    b65d:	mov    rbp,rcx
    b660:	jmp    b5d9 <x86_pv_normalise_page+0xc9>
    b665:	nop    DWORD PTR [rax]
    b668:	mov    DWORD PTR [rsp+0xc],0x1ff
    b670:	mov    DWORD PTR [rsp],0x4
    b677:	jmp    b5c5 <x86_pv_normalise_page+0xb5>
    b67c:	nop    DWORD PTR [rax+0x0]
    b680:	mov    eax,r15d
    b683:	mov    r15,r14
    b686:	mov    r14d,eax
    b689:	call   5940 <__errno_location@plt>
    b68e:	test   BYTE PTR [rbx+0x18],0x8
    b692:	mov    r13,rax
    b695:	jne    b7b0 <x86_pv_normalise_page+0x2a0>
    b69b:	mov    DWORD PTR [rax],0xb
    b6a1:	mov    eax,0xffffffff
    b6a6:	mov    rdx,QWORD PTR [rsp+0x20]
    b6ab:	mov    QWORD PTR [rdx],r12
    b6ae:	add    rsp,0x38
    b6b2:	pop    rbx
    b6b3:	pop    rbp
    b6b4:	pop    r12
    b6b6:	pop    r13
    b6b8:	pop    r14
    b6ba:	pop    r15
    b6bc:	ret    
    b6bd:	nop    DWORD PTR [rax]
    b6c0:	cmp    QWORD PTR [rsp+0x10],0x40000000
    b6c9:	jne    b5b9 <x86_pv_normalise_page+0xa9>
    b6cf:	mov    DWORD PTR [rsp+0xc],0x10f
    b6d7:	mov    DWORD PTR [rsp],0x100
    b6de:	jmp    b5c5 <x86_pv_normalise_page+0xb5>
    b6e3:	nop    DWORD PTR [rax+rax*1+0x0]
    b6e8:	call   5940 <__errno_location@plt>
    b6ed:	mov    rcx,QWORD PTR [rsp+0x10]
    b6f2:	mov    rdi,QWORD PTR [rsp+0x28]
    b6f7:	lea    rdx,[rip+0x1700a]        # 22708 <__PRETTY_FUNCTION__.13083+0x408>
    b6fe:	mov    rbx,rax
    b701:	mov    r9,rbp
    b704:	xor    eax,eax
    b706:	mov    r8d,r15d
    b709:	mov    esi,0x1
    b70e:	shr    rcx,0x1c
    b712:	call   5d50 <xc_report_error@plt>
    b717:	mov    DWORD PTR [rbx],0x7
    b71d:	mov    eax,0xffffffff
    b722:	jmp    b6a6 <x86_pv_normalise_page+0x196>
    b727:	nop    WORD PTR [rax+rax*1+0x0]
    b730:	xor    eax,eax
    b732:	jmp    b6a6 <x86_pv_normalise_page+0x196>
    b737:	mov    rax,QWORD PTR [rsp+0x18]
    b73c:	mov    esi,0xffffffff
    b741:	mov    edx,0x1ff
    b746:	mov    rax,QWORD PTR [rax+0xd60]
    b74d:	mov    QWORD PTR [rsp],rax
    b751:	shl    rax,0xc
    b755:	shr    rax,0x18
    b759:	cmp    rax,QWORD PTR [rbx+0x178]
    b760:	mov    eax,0x1ac
    b765:	cmovne edx,esi
    b768:	cmovne eax,esi
    b76b:	mov    DWORD PTR [rsp+0xc],edx
    b76f:	mov    DWORD PTR [rsp],eax
    b772:	jmp    b5c5 <x86_pv_normalise_page+0xb5>
    b777:	nop    WORD PTR [rax+rax*1+0x0]
    b780:	call   5940 <__errno_location@plt>
    b785:	mov    rdi,QWORD PTR [rsp+0x28]
    b78a:	lea    rdx,[rip+0x16f4f]        # 226e0 <__PRETTY_FUNCTION__.13083+0x3e0>
    b791:	mov    rbx,rax
    b794:	mov    esi,0x1
    b799:	xor    eax,eax
    b79b:	call   5d50 <xc_report_error@plt>
    b7a0:	mov    DWORD PTR [rbx],0x16
    b7a6:	mov    eax,0xffffffff
    b7ab:	jmp    b6a6 <x86_pv_normalise_page+0x196>
    b7b0:	mov    rcx,QWORD PTR [rsp+0x10]
    b7b5:	mov    ebp,DWORD PTR [rax]
    b7b7:	lea    rdx,[rip+0x17332]        # 22af0 <__PRETTY_FUNCTION__.13083+0x7f0>
    b7be:	mov    rdi,QWORD PTR [rsp+0x28]
    b7c3:	xor    eax,eax
    b7c5:	mov    r8d,r14d
    b7c8:	mov    esi,0x1
    b7cd:	shr    rcx,0x1c
    b7d1:	call   5d50 <xc_report_error@plt>
    b7d6:	mov    DWORD PTR [r13+0x0],ebp
    b7da:	mov    rsi,r15
    b7dd:	mov    rdi,rbx
    b7e0:	call   5d90 <dump_bad_pseudophysmap_entry@plt>
    b7e5:	mov    DWORD PTR [r13+0x0],0x22
    b7ed:	mov    eax,0xffffffff
    b7f2:	jmp    b6a6 <x86_pv_normalise_page+0x196>
    b7f7:	call   5940 <__errno_location@plt>
    b7fc:	mov    rdi,QWORD PTR [rsp+0x28]
    b801:	mov    ebp,DWORD PTR [rax]
    b803:	lea    rdx,[rip+0x16eb6]        # 226c0 <__PRETTY_FUNCTION__.13083+0x3c0>
    b80a:	mov    rbx,rax
    b80d:	mov    esi,0x1
    b812:	xor    eax,eax
    b814:	call   5d50 <xc_report_error@plt>
    b819:	mov    DWORD PTR [rbx],ebp
    b81b:	mov    eax,0xffffffff
    b820:	jmp    b53b <x86_pv_normalise_page+0x2b>
    b825:	nop
    b826:	nop    WORD PTR cs:[rax+rax*1+0x0]

000000000000b830 <map_p2m_leaves>:
    b830:	push   r15
    b832:	push   r14
    b834:	mov    r8d,edx
    b837:	push   r13
    b839:	push   r12
    b83b:	mov    r13,rsi
    b83e:	push   rbp
    b83f:	push   rbx
    b840:	mov    r12,rdx
    b843:	mov    rbx,rdi
    b846:	mov    rcx,r13
    b849:	mov    edx,0x1
    b84e:	sub    rsp,0x18
    b852:	mov    rax,QWORD PTR [rdi]
    b855:	mov    esi,DWORD PTR [rdi+0x8]
    b858:	mov    rdi,rax
    b85b:	mov    QWORD PTR [rsp+0x8],rax
    b860:	call   5f50 <xc_map_foreign_pages@plt>
    b865:	test   rax,rax
    b868:	mov    QWORD PTR [rbx+0x198],rax
    b86f:	je     b961 <map_p2m_leaves+0x131>
    b875:	mov    rax,QWORD PTR [rbx+0x188]
    b87c:	lea    rbp,[r12*8+0x0]
    b884:	mov    DWORD PTR [rbx+0x190],r12d
    b88b:	mov    rdi,rbp
    b88e:	add    rax,0x1
    b892:	mov    QWORD PTR [rbx+0xd8],rax
    b899:	call   5ff0 <malloc@plt>
    b89e:	test   rax,rax
    b8a1:	mov    QWORD PTR [rbx+0x1a0],rax
    b8a8:	je     b99e <map_p2m_leaves+0x16e>
    b8ae:	xor    ebp,ebp
    b8b0:	xor    eax,eax
    b8b2:	test   r12,r12
    b8b5:	jne    b8e0 <map_p2m_leaves+0xb0>
    b8b7:	jmp    b950 <map_p2m_leaves+0x120>
    b8bc:	nop    DWORD PTR [rax+0x0]
    b8c0:	add    r15,QWORD PTR [rbx+0x1a0]
    b8c7:	mov    rsi,QWORD PTR [r14]
    b8ca:	mov    rdi,rbx
    b8cd:	call   6450 <mfn_to_pfn@plt>
    b8d2:	mov    QWORD PTR [r15],rax
    b8d5:	lea    eax,[rbp+0x1]
    b8d8:	cmp    rax,r12
    b8db:	mov    rbp,rax
    b8de:	jae    b950 <map_p2m_leaves+0x120>
    b8e0:	lea    r15,[rax*8+0x0]
    b8e8:	mov    rdi,rbx
    b8eb:	lea    r14,[r13+r15*1+0x0]
    b8f0:	mov    rsi,QWORD PTR [r14]
    b8f3:	call   5990 <mfn_in_pseudophysmap@plt>
    b8f8:	test   al,al
    b8fa:	jne    b8c0 <map_p2m_leaves+0x90>
    b8fc:	call   5940 <__errno_location@plt>
    b901:	mov    rdi,QWORD PTR [rsp+0x8]
    b906:	mov    r13d,DWORD PTR [rax]
    b909:	lea    rdx,[rip+0x171f5]        # 22b05 <__PRETTY_FUNCTION__.13083+0x805>
    b910:	mov    r12,rax
    b913:	mov    ecx,ebp
    b915:	xor    eax,eax
    b917:	mov    esi,0x1
    b91c:	call   5d50 <xc_report_error@plt>
    b921:	mov    DWORD PTR [r12],r13d
    b925:	mov    rsi,QWORD PTR [r14]
    b928:	mov    rdi,rbx
    b92b:	call   5d90 <dump_bad_pseudophysmap_entry@plt>
    b930:	mov    DWORD PTR [r12],0x22
    b938:	add    rsp,0x18
    b93c:	mov    eax,0xffffffff
    b941:	pop    rbx
    b942:	pop    rbp
    b943:	pop    r12
    b945:	pop    r13
    b947:	pop    r14
    b949:	pop    r15
    b94b:	ret    
    b94c:	nop    DWORD PTR [rax+0x0]
    b950:	xor    eax,eax
    b952:	add    rsp,0x18
    b956:	pop    rbx
    b957:	pop    rbp
    b958:	pop    r12
    b95a:	pop    r13
    b95c:	pop    r14
    b95e:	pop    r15
    b960:	ret    
    b961:	call   5940 <__errno_location@plt>
    b966:	mov    r14,QWORD PTR [rsp+0x8]
    b96b:	mov    ebp,DWORD PTR [rax]
    b96d:	mov    rbx,rax
    b970:	mov    esi,ebp
    b972:	mov    rdi,r14
    b975:	call   6570 <xc_strerror@plt>
    b97a:	mov    ecx,DWORD PTR [rbx]
    b97c:	lea    rdx,[rip+0x162c5]        # 21c48 <__PRETTY_FUNCTION__.12816+0x508>
    b983:	mov    r8,rax
    b986:	mov    esi,0x1
    b98b:	xor    eax,eax
    b98d:	mov    rdi,r14
    b990:	call   5d50 <xc_report_error@plt>
    b995:	mov    DWORD PTR [rbx],ebp
    b997:	mov    eax,0xffffffff
    b99c:	jmp    b952 <map_p2m_leaves+0x122>
    b99e:	call   5940 <__errno_location@plt>
    b9a3:	mov    rdi,QWORD PTR [rsp+0x8]
    b9a8:	mov    r12d,DWORD PTR [rax]
    b9ab:	lea    rdx,[rip+0x16d86]        # 22738 <__PRETTY_FUNCTION__.13083+0x438>
    b9b2:	mov    rbx,rax
    b9b5:	mov    rcx,rbp
    b9b8:	xor    eax,eax
    b9ba:	mov    esi,0x1
    b9bf:	call   5d50 <xc_report_error@plt>
    b9c4:	mov    DWORD PTR [rbx],r12d
    b9c7:	mov    eax,0xffffffff
    b9cc:	jmp    b952 <map_p2m_leaves+0x122>
    b9ce:	xchg   ax,ax

000000000000b9d0 <copy_mfns_from_guest.isra.0>:
    b9d0:	cmp    edi,0x8
    b9d3:	je     ba08 <copy_mfns_from_guest.isra.0+0x38>
    b9d5:	xor    eax,eax
    b9d7:	test   rcx,rcx
    b9da:	mov    rdi,0xffffffffffffffff
    b9e1:	je     ba01 <copy_mfns_from_guest.isra.0+0x31>
    b9e3:	nop    DWORD PTR [rax+rax*1+0x0]
    b9e8:	mov    r8d,DWORD PTR [rdx+rax*4]
    b9ec:	cmp    r8d,0xffffffff
    b9f0:	cmove  r8,rdi
    b9f4:	mov    QWORD PTR [rsi+rax*8],r8
    b9f8:	add    rax,0x1
    b9fc:	cmp    rcx,rax
    b9ff:	jne    b9e8 <copy_mfns_from_guest.isra.0+0x18>
    ba01:	xor    eax,eax
    ba03:	ret    
    ba04:	nop    DWORD PTR [rax+0x0]
    ba08:	mov    rax,rdx
    ba0b:	lea    rdx,[rcx*8+0x0]
    ba13:	sub    rsp,0x8
    ba17:	mov    rdi,rsi
    ba1a:	mov    rsi,rax
    ba1d:	call   5eb0 <memcpy@plt>
    ba22:	xor    eax,eax
    ba24:	add    rsp,0x8
    ba28:	ret    
    ba29:	nop    DWORD PTR [rax+0x0]

000000000000ba30 <x86_pv_start_of_stream>:
    ba30:	push   r12
    ba32:	push   rbp
    ba33:	xor    ecx,ecx
    ba35:	push   rbx
    ba36:	xor    edx,edx
    ba38:	mov    rbx,rdi
    ba3b:	sub    rsp,0x30
    ba3f:	mov    rax,QWORD PTR fs:0x28
    ba48:	mov    QWORD PTR [rsp+0x28],rax
    ba4d:	xor    eax,eax
    ba4f:	xor    eax,eax
    ba51:	lea    rbp,[rsp+0x10]
    ba56:	lea    r12,[rsp+0x20]
    ba5b:	mov    WORD PTR [rsp+0x26],ax
    ba60:	mov    eax,DWORD PTR [rdi+0x160]
    ba66:	mov    rsi,rbp
    ba69:	mov    DWORD PTR [rsp+0x22],0x0
    ba71:	mov    QWORD PTR [rsp+0x18],r12
    ba76:	mov    BYTE PTR [rsp+0x20],al
    ba7a:	mov    eax,DWORD PTR [rdi+0x164]
    ba80:	mov    BYTE PTR [rsp+0x21],al
    ba84:	movabs rax,0x800000002
    ba8e:	mov    QWORD PTR [rsp+0x10],rax
    ba93:	call   5870 <write_split_record@plt>
    ba98:	test   eax,eax
    ba9a:	je     bab8 <x86_pv_start_of_stream+0x88>
    ba9c:	mov    rdx,QWORD PTR [rsp+0x28]
    baa1:	xor    rdx,QWORD PTR fs:0x28
    baaa:	jne    bb19 <x86_pv_start_of_stream+0xe9>
    baac:	add    rsp,0x30
    bab0:	pop    rbx
    bab1:	pop    rbp
    bab2:	pop    r12
    bab4:	ret    
    bab5:	nop    DWORD PTR [rax]
    bab8:	mov    ecx,DWORD PTR [rbx+0x190]
    babe:	mov    rax,QWORD PTR [rbx+0x188]
    bac5:	mov    rsi,rbp
    bac8:	mov    QWORD PTR [rsp+0x18],r12
    bacd:	mov    r12,QWORD PTR [rbx+0x1a0]
    bad4:	mov    rdi,rbx
    bad7:	mov    DWORD PTR [rsp+0x20],0x0
    badf:	mov    DWORD PTR [rsp+0x24],eax
    bae3:	movabs rax,0x800000003
    baed:	shl    rcx,0x3
    baf1:	mov    rdx,r12
    baf4:	mov    QWORD PTR [rsp+0x10],rax
    baf9:	call   5870 <write_split_record@plt>
    bafe:	cmp    r12,QWORD PTR [rbx+0x1a0]
    bb05:	je     ba9c <x86_pv_start_of_stream+0x6c>
    bb07:	mov    rdi,r12
    bb0a:	mov    DWORD PTR [rsp+0xc],eax
    bb0e:	call   5900 <free@plt>
    bb13:	mov    eax,DWORD PTR [rsp+0xc]
    bb17:	jmp    ba9c <x86_pv_start_of_stream+0x6c>
    bb19:	call   5b80 <__stack_chk_fail@plt>
    bb1e:	xchg   ax,ax

000000000000bb20 <x86_pv_end_of_checkpoint>:
    bb20:	push   rbx
    bb21:	mov    rbx,rdi
    bb24:	sub    rsp,0x20
    bb28:	mov    rax,QWORD PTR fs:0x28
    bb31:	mov    QWORD PTR [rsp+0x18],rax
    bb36:	xor    eax,eax
    bb38:	call   60b0 <write_tsc_info@plt>
    bb3d:	test   eax,eax
    bb3f:	je     bb60 <x86_pv_end_of_checkpoint+0x40>
    bb41:	mov    rdx,QWORD PTR [rsp+0x18]
    bb46:	xor    rdx,QWORD PTR fs:0x28
    bb4f:	jne    bb97 <x86_pv_end_of_checkpoint+0x77>
    bb51:	add    rsp,0x20
    bb55:	pop    rbx
    bb56:	ret    
    bb57:	nop    WORD PTR [rax+rax*1+0x0]
    bb60:	movabs rax,0x100000000007
    bb6a:	xor    ecx,ecx
    bb6c:	xor    edx,edx
    bb6e:	mov    QWORD PTR [rsp],rax
    bb72:	mov    rax,QWORD PTR [rbx+0x1a8]
    bb79:	mov    rsi,rsp
    bb7c:	mov    rdi,rbx
    bb7f:	mov    QWORD PTR [rsp+0x8],rax
    bb84:	call   5870 <write_split_record@plt>
    bb89:	test   eax,eax
    bb8b:	jne    bb41 <x86_pv_end_of_checkpoint+0x21>
    bb8d:	mov    rdi,rbx
    bb90:	call   ae80 <write_all_vcpu_information>
    bb95:	jmp    bb41 <x86_pv_end_of_checkpoint+0x21>
    bb97:	call   5b80 <__stack_chk_fail@plt>
    bb9c:	nop    DWORD PTR [rax+0x0]

000000000000bba0 <x86_pv_pfn_to_gfn>:
    bba0:	cmp    QWORD PTR [rdi+0x188],rsi
    bba7:	jb     bbd5 <x86_pv_pfn_to_gfn+0x35>
    bba9:	cmp    DWORD PTR [rdi+0x160],0x8
    bbb0:	mov    rax,QWORD PTR [rdi+0x198]
    bbb7:	je     bbd0 <x86_pv_pfn_to_gfn+0x30>
    bbb9:	mov    eax,DWORD PTR [rax+rsi*4]
    bbbc:	mov    rdx,0xffffffffffffffff
    bbc3:	cmp    eax,0xffffffff
    bbc6:	cmove  rax,rdx
    bbca:	ret    
    bbcb:	nop    DWORD PTR [rax+rax*1+0x0]
    bbd0:	mov    rax,QWORD PTR [rax+rsi*8]
    bbd4:	ret    
    bbd5:	lea    rcx,[rip+0x16fa4]        # 22b80 <__PRETTY_FUNCTION__.13085>
    bbdc:	lea    rsi,[rip+0x16f40]        # 22b23 <__PRETTY_FUNCTION__.13083+0x823>
    bbe3:	lea    rdi,[rip+0x15b78]        # 21762 <__PRETTY_FUNCTION__.12816+0x22>
    bbea:	sub    rsp,0x8
    bbee:	mov    edx,0x3f3
    bbf3:	call   5c70 <__assert_fail@plt>
    bbf8:	nop    DWORD PTR [rax+rax*1+0x0]

000000000000bc00 <x86_pv_setup>:
    bc00:	push   r15
    bc02:	push   r14
    bc04:	mov    r15,rdi
    bc07:	push   r13
    bc09:	push   r12
    bc0b:	push   rbp
    bc0c:	push   rbx
    bc0d:	sub    rsp,0x88
    bc14:	call   5cd0 <x86_pv_domain_info@plt>
    bc19:	test   eax,eax
    bc1b:	mov    r14d,eax
    bc1e:	je     bc38 <x86_pv_setup+0x38>
    bc20:	add    rsp,0x88
    bc27:	mov    eax,r14d
    bc2a:	pop    rbx
    bc2b:	pop    rbp
    bc2c:	pop    r12
    bc2e:	pop    r13
    bc30:	pop    r14
    bc32:	pop    r15
    bc34:	ret    
    bc35:	nop    DWORD PTR [rax]
    bc38:	mov    rdi,r15
    bc3b:	call   5da0 <x86_pv_map_m2p@plt>
    bc40:	test   eax,eax
    bc42:	mov    r14d,eax
    bc45:	jne    bc20 <x86_pv_setup+0x20>
    bc47:	mov    rbx,QWORD PTR [r15]
    bc4a:	mov    esi,DWORD PTR [r15+0x8]
    bc4e:	mov    ecx,0x1
    bc53:	mov    r8,QWORD PTR [r15+0x40]
    bc57:	mov    edx,0x1000
    bc5c:	mov    rdi,rbx
    bc5f:	call   6590 <xc_map_foreign_range@plt>
    bc64:	test   rax,rax
    bc67:	mov    r12,rax
    bc6a:	mov    QWORD PTR [r15+0x1a8],rax
    bc71:	je     c5c5 <x86_pv_setup+0x9c5>
    bc77:	mov    r13d,DWORD PTR [r15+0x160]
    bc7e:	mov    QWORD PTR [r15+0x1b0],0xffffffffffffffff
    bc89:	cmp    r13d,0x8
    bc8d:	je     c2e8 <x86_pv_setup+0x6e8>
    bc93:	mov    esi,DWORD PTR [rax+0x90c]
    bc99:	sub    rsi,0x1
    bc9d:	mov    QWORD PTR [r15+0x188],rsi
    bca4:	mov    ebx,DWORD PTR [rax+0x918]
    bcaa:	mov    rax,QWORD PTR [r15]
    bcad:	test   rbx,rbx
    bcb0:	mov    QWORD PTR [rsp+0x8],rax
    bcb5:	jne    bfa0 <x86_pv_setup+0x3a0>
    bcbb:	xor    edx,edx
    bcbd:	mov    eax,0x1000
    bcc2:	mov    QWORD PTR [rsp+0x10],rsi
    bcc7:	div    r13d
    bcca:	mov    ebp,eax
    bccc:	imul   eax,ebp
    bccf:	mov    edx,eax
    bcd1:	mov    DWORD PTR [rsp+0x18],eax
    bcd5:	mov    rax,rsi
    bcd8:	mov    rcx,rdx
    bcdb:	mov    QWORD PTR [rsp+0x20],rdx
    bce0:	xor    edx,edx
    bce2:	div    rcx
    bce5:	lea    ebx,[rax+0x1]
    bce8:	call   5940 <__errno_location@plt>
    bced:	cmp    ebp,ebx
    bcef:	mov    r14,rax
    bcf2:	mov    rsi,QWORD PTR [rsp+0x10]
    bcf7:	jb     c609 <x86_pv_setup+0xa09>
    bcfd:	cmp    r13d,0x8
    bd01:	je     c3a2 <x86_pv_setup+0x7a2>
    bd07:	mov    r12d,DWORD PTR [r12+0x910]
    bd0f:	test   r12,r12
    bd12:	je     c4e3 <x86_pv_setup+0x8e3>
    bd18:	cmp    r12,QWORD PTR [r15+0x168]
    bd1f:	ja     c4e3 <x86_pv_setup+0x8e3>
    bd25:	mov    esi,DWORD PTR [r15+0x8]
    bd29:	mov    rdi,QWORD PTR [rsp+0x8]
    bd2e:	mov    r8,r12
    bd31:	mov    ecx,0x1
    bd36:	mov    edx,0x1000
    bd3b:	call   6590 <xc_map_foreign_range@plt>
    bd40:	test   rax,rax
    bd43:	mov    r13,rax
    bd46:	je     c65b <x86_pv_setup+0xa5b>
    bd4c:	mov    ecx,ebx
    bd4e:	lea    rax,[rcx*8+0x0]
    bd56:	mov    QWORD PTR [rsp+0x10],rcx
    bd5b:	mov    rdi,rax
    bd5e:	mov    QWORD PTR [rsp+0x28],rax
    bd63:	call   5ff0 <malloc@plt>
    bd68:	test   rax,rax
    bd6b:	mov    r12,rax
    bd6e:	mov    rcx,QWORD PTR [rsp+0x10]
    bd73:	je     c6bb <x86_pv_setup+0xabb>
    bd79:	mov    edi,DWORD PTR [r15+0x160]
    bd80:	mov    rdx,r13
    bd83:	mov    rsi,rax
    bd86:	call   b9d0 <copy_mfns_from_guest.isra.0>
    bd8b:	test   eax,eax
    bd8d:	jne    c694 <x86_pv_setup+0xa94>
    bd93:	test   ebx,ebx
    bd95:	je     bdf8 <x86_pv_setup+0x1f8>
    bd97:	mov    rdx,QWORD PTR [r12]
    bd9b:	test   rdx,rdx
    bd9e:	je     c307 <x86_pv_setup+0x707>
    bda4:	mov    rdi,QWORD PTR [r15+0x168]
    bdab:	cmp    rdx,rdi
    bdae:	ja     c50f <x86_pv_setup+0x90f>
    bdb4:	lea    rax,[r12+0x8]
    bdb9:	xor    r8d,r8d
    bdbc:	xor    esi,esi
    bdbe:	jmp    bde3 <x86_pv_setup+0x1e3>
    bdc0:	mov    rcx,QWORD PTR [rax]
    bdc3:	test   rcx,rcx
    bdc6:	je     c310 <x86_pv_setup+0x710>
    bdcc:	cmp    rcx,rdi
    bdcf:	ja     c310 <x86_pv_setup+0x710>
    bdd5:	cmp    rcx,rdx
    bdd8:	mov    rdx,rcx
    bddb:	cmovne esi,r8d
    bddf:	add    rax,0x8
    bde3:	add    r8d,0x1
    bde7:	cmp    ebx,r8d
    bdea:	jne    bdc0 <x86_pv_setup+0x1c0>
    bdec:	add    esi,0x1
    bdef:	imul   esi,DWORD PTR [rsp+0x18]
    bdf4:	mov    DWORD PTR [rsp+0x18],esi
    bdf8:	mov    eax,DWORD PTR [rsp+0x18]
    bdfc:	mov    r9,QWORD PTR [r15+0x188]
    be03:	lea    ecx,[rax-0x1]
    be06:	cmp    rcx,r9
    be09:	jae    be22 <x86_pv_setup+0x222>
    be0b:	mov    rax,rcx
    be0e:	xor    edx,edx
    be10:	mov    QWORD PTR [r15+0x188],rcx
    be17:	div    QWORD PTR [rsp+0x20]
    be1c:	mov    r9,rcx
    be1f:	lea    ebx,[rax+0x1]
    be22:	lea    rax,[rbp+r9*1+0x0]
    be27:	xor    edx,edx
    be29:	mov    rdi,QWORD PTR [rsp+0x8]
    be2e:	sub    rsp,0x8
    be32:	lea    r8,[rip+0x16d22]        # 22b5b <__PRETTY_FUNCTION__.13083+0x85b>
    be39:	xor    ecx,ecx
    be3b:	div    rbp
    be3e:	mov    edx,0x3
    be43:	mov    DWORD PTR [r15+0x190],eax
    be4a:	mov    r10d,DWORD PTR [r14]
    be4d:	mov    rsi,QWORD PTR [rdi+0x8]
    be51:	mov    DWORD PTR [rsp+0x18],r10d
    be56:	push   rax
    be57:	xor    eax,eax
    be59:	mov    QWORD PTR [rsp+0x18],rdi
    be5e:	call   6540 <xc_report@plt>
    be63:	mov    r10d,DWORD PTR [rsp+0x20]
    be68:	xor    edx,edx
    be6a:	mov    rdi,QWORD PTR [rsp+0x18]
    be6f:	mov    rcx,r12
    be72:	mov    r8d,ebx
    be75:	mov    DWORD PTR [r14],r10d
    be78:	mov    rax,QWORD PTR [r15+0x188]
    be7f:	mov    esi,DWORD PTR [r15+0x8]
    be83:	div    rbp
    be86:	mov    edx,0x1
    be8b:	lea    r9d,[rax+0x1]
    be8f:	mov    DWORD PTR [rsp+0x28],r9d
    be94:	call   5f50 <xc_map_foreign_pages@plt>
    be99:	mov    QWORD PTR [rsp+0x20],rax
    be9e:	test   rax,rax
    bea1:	pop    rdx
    bea2:	pop    rcx
    bea3:	mov    r9d,DWORD PTR [rsp+0x18]
    bea8:	je     c713 <x86_pv_setup+0xb13>
    beae:	mov    eax,r9d
    beb1:	mov    DWORD PTR [rsp+0x20],r9d
    beb6:	mov    QWORD PTR [rsp+0x18],rax
    bebb:	shl    rax,0x3
    bebf:	mov    rdi,rax
    bec2:	mov    QWORD PTR [rsp+0x28],rax
    bec7:	call   5ff0 <malloc@plt>
    becc:	test   rax,rax
    becf:	mov    rbp,rax
    bed2:	mov    r9d,DWORD PTR [rsp+0x20]
    bed7:	je     c6e7 <x86_pv_setup+0xae7>
    bedd:	mov    edi,DWORD PTR [r15+0x160]
    bee4:	mov    rcx,QWORD PTR [rsp+0x18]
    bee9:	mov    rsi,rax
    beec:	mov    rdx,QWORD PTR [rsp+0x10]
    bef1:	mov    DWORD PTR [rsp+0x20],r9d
    bef6:	call   b9d0 <copy_mfns_from_guest.isra.0>
    befb:	test   eax,eax
    befd:	jne    c80c <x86_pv_setup+0xc0c>
    bf03:	mov    r9d,DWORD PTR [rsp+0x20]
    bf08:	test   r9d,r9d
    bf0b:	je     bf5a <x86_pv_setup+0x35a>
    bf0d:	mov    rcx,QWORD PTR [rbp+0x0]
    bf11:	test   rcx,rcx
    bf14:	je     c45d <x86_pv_setup+0x85d>
    bf1a:	mov    rdx,QWORD PTR [r15+0x168]
    bf21:	xor    r8d,r8d
    bf24:	lea    rax,[rbp+0x8]
    bf28:	cmp    rcx,rdx
    bf2b:	jbe    bf51 <x86_pv_setup+0x351>
    bf2d:	jmp    c45d <x86_pv_setup+0x85d>
    bf32:	nop    WORD PTR [rax+rax*1+0x0]
    bf38:	mov    rcx,QWORD PTR [rax]
    bf3b:	test   rcx,rcx
    bf3e:	je     c460 <x86_pv_setup+0x860>
    bf44:	add    rax,0x8
    bf48:	cmp    rcx,rdx
    bf4b:	ja     c460 <x86_pv_setup+0x860>
    bf51:	add    r8d,0x1
    bf55:	cmp    r9d,r8d
    bf58:	jne    bf38 <x86_pv_setup+0x338>
    bf5a:	mov    rdx,QWORD PTR [rsp+0x18]
    bf5f:	mov    rsi,rbp
    bf62:	mov    rdi,r15
    bf65:	call   b830 <map_p2m_leaves>
    bf6a:	mov    r14d,eax
    bf6d:	mov    rdi,rbp
    bf70:	call   5900 <free@plt>
    bf75:	mov    rdi,QWORD PTR [rsp+0x10]
    bf7a:	mov    esi,ebx
    bf7c:	shl    rsi,0xc
    bf80:	call   61b0 <munmap@plt>
    bf85:	mov    rdi,r12
    bf88:	call   5900 <free@plt>
    bf8d:	mov    esi,0x1000
    bf92:	mov    rdi,r13
    bf95:	call   61b0 <munmap@plt>
    bf9a:	jmp    bc20 <x86_pv_setup+0x20>
    bf9f:	nop
    bfa0:	mov    rsi,rbx
    bfa3:	mov    rdi,r15
    bfa6:	call   5e50 <cr3_to_mfn@plt>
    bfab:	test   rax,rax
    bfae:	mov    r12,rax
    bfb1:	je     c833 <x86_pv_setup+0xc33>
    bfb7:	call   5940 <__errno_location@plt>
    bfbc:	cmp    r12,QWORD PTR [r15+0x168]
    bfc3:	mov    QWORD PTR [rsp+0x40],rax
    bfc8:	ja     c62c <x86_pv_setup+0xa2c>
    bfce:	mov    esi,DWORD PTR [r15+0x160]
    bfd5:	mov    rax,QWORD PTR [r15+0x1a8]
    bfdc:	mov    rcx,QWORD PTR [r15+0x188]
    bfe3:	cmp    esi,0x8
    bfe6:	je     c3af <x86_pv_setup+0x7af>
    bfec:	mov    ebx,DWORD PTR [rax+0x920]
    bff2:	xor    edx,edx
    bff4:	mov    QWORD PTR [r15+0x1b0],rbx
    bffb:	mov    ebx,DWORD PTR [rax+0x91c]
    c001:	mov    eax,0x1000
    c006:	div    esi
    c008:	mov    QWORD PTR [rsp+0x20],rbx
    c00d:	mov    edx,eax
    c00f:	mov    rax,rcx
    c012:	lea    rcx,[rbx-0x1]
    c016:	mov    rsi,rdx
    c019:	mov    QWORD PTR [rsp+0x78],rdx
    c01e:	xor    edx,edx
    c020:	div    rsi
    c023:	mov    QWORD PTR [rsp+0x70],rcx
    c028:	add    eax,0x1
    c02b:	mov    DWORD PTR [r15+0x190],eax
    c032:	shl    rax,0xc
    c036:	add    rax,rcx
    c039:	cmp    rbx,rax
    c03c:	mov    QWORD PTR [rsp+0x10],rax
    c041:	ja     c489 <x86_pv_setup+0x889>
    c047:	mov    eax,0xf5800000
    c04c:	cmp    QWORD PTR [rsp+0x10],rax
    c051:	ja     c489 <x86_pv_setup+0x889>
    c057:	mov    eax,0xffffffff
    c05c:	mov    QWORD PTR [rsp+0x48],rax
    c061:	mov    rbp,QWORD PTR [rsp+0x40]
    c066:	mov    r14,QWORD PTR [rsp+0x8]
    c06b:	lea    r8,[rip+0x16756]        # 227c8 <__PRETTY_FUNCTION__.13083+0x4c8>
    c072:	xor    ecx,ecx
    c074:	xor    eax,eax
    c076:	mov    edx,0x3
    c07b:	mov    ebx,DWORD PTR [rbp+0x0]
    c07e:	mov    rsi,QWORD PTR [r14+0x8]
    c082:	mov    rdi,r14
    c085:	push   r12
    c087:	push   QWORD PTR [rsp+0x18]
    c08b:	mov    r9,QWORD PTR [rsp+0x30]
    c090:	call   6540 <xc_report@plt>
    c095:	mov    DWORD PTR [rbp+0x0],ebx
    c098:	mov    eax,DWORD PTR [r15+0x190]
    c09f:	lea    r8,[rip+0x16ab5]        # 22b5b <__PRETTY_FUNCTION__.13083+0x85b>
    c0a6:	mov    rsi,QWORD PTR [r14+0x8]
    c0aa:	xor    ecx,ecx
    c0ac:	mov    rdi,r14
    c0af:	mov    edx,0x3
    c0b4:	mov    DWORD PTR [rsp],eax
    c0b7:	mov    r9,QWORD PTR [r15+0x188]
    c0be:	xor    eax,eax
    c0c0:	call   6540 <xc_report@plt>
    c0c5:	mov    DWORD PTR [rbp+0x0],ebx
    c0c8:	mov    edi,0x8
    c0cd:	call   5ff0 <malloc@plt>
    c0d2:	test   rax,rax
    c0d5:	mov    rbp,rax
    c0d8:	pop    rsi
    c0d9:	pop    rdi
    c0da:	je     c7db <x86_pv_setup+0xbdb>
    c0e0:	mov    QWORD PTR [rax],r12
    c0e3:	mov    eax,DWORD PTR [r15+0x164]
    c0ea:	test   eax,eax
    c0ec:	mov    DWORD PTR [rsp+0x18],eax
    c0f0:	je     c592 <x86_pv_setup+0x992>
    c0f6:	lea    eax,[rax+rax*8+0x3]
    c0fa:	xor    r12d,r12d
    c0fd:	xor    r10d,r10d
    c100:	mov    DWORD PTR [rsp+0x68],0x0
    c108:	xor    r13d,r13d
    c10b:	mov    QWORD PTR [rsp+0x30],0x0
    c114:	mov    DWORD PTR [rsp+0x28],eax
    c118:	mov    r14d,r10d
    c11b:	mov    r8d,r12d
    c11e:	mov    QWORD PTR [rsp+0x38],r15
    c123:	mov    rax,QWORD PTR [rsp+0x38]
    c128:	add    r14d,0x1
    c12c:	mov    rdi,QWORD PTR [rsp+0x8]
    c131:	sub    r14d,r8d
    c134:	mov    rcx,rbp
    c137:	mov    edx,0x1
    c13c:	mov    r8d,r14d
    c13f:	mov    DWORD PTR [rsp+0x60],r14d
    c144:	mov    esi,DWORD PTR [rax+0x8]
    c147:	call   5f50 <xc_map_foreign_pages@plt>
    c14c:	test   rax,rax
    c14f:	mov    r12,rax
    c152:	je     c547 <x86_pv_setup+0x947>
    c158:	mov    rdi,rbp
    c15b:	call   5900 <free@plt>
    c160:	mov    rax,QWORD PTR [rsp+0x30]
    c165:	mov    rsi,QWORD PTR [rsp+0x20]
    c16a:	mov    ebx,DWORD PTR [rsp+0x28]
    c16e:	mov    rdx,QWORD PTR [rsp+0x48]
    c173:	sub    rsi,rax
    c176:	and    rsi,rdx
    c179:	mov    ecx,ebx
    c17b:	shr    rsi,cl
    c17e:	mov    rcx,QWORD PTR [rsp+0x10]
    c183:	mov    DWORD PTR [rsp+0x64],esi
    c187:	mov    QWORD PTR [rsp+0x50],rsi
    c18c:	sub    rcx,rax
    c18f:	mov    rax,rcx
    c192:	mov    ecx,ebx
    c194:	and    rax,rdx
    c197:	shr    rax,cl
    c19a:	mov    rcx,rax
    c19d:	mov    r14d,eax
    c1a0:	lea    eax,[rax+0x1]
    c1a3:	mov    QWORD PTR [rsp+0x58],rcx
    c1a8:	mov    ebx,eax
    c1aa:	mov    DWORD PTR [rsp+0x6c],eax
    c1ae:	sub    ebx,esi
    c1b0:	mov    edi,ebx
    c1b2:	shl    rdi,0x3
    c1b6:	call   5ff0 <malloc@plt>
    c1bb:	test   rax,rax
    c1be:	mov    rbp,rax
    c1c1:	je     c51a <x86_pv_setup+0x91a>
    c1c7:	mov    rsi,QWORD PTR [rsp+0x50]
    c1cc:	mov    rcx,QWORD PTR [rsp+0x58]
    c1d1:	mov    r8d,DWORD PTR [rsp+0x64]
    c1d6:	cmp    esi,ecx
    c1d8:	ja     c4c1 <x86_pv_setup+0x8c1>
    c1de:	mov    edi,esi
    c1e0:	movabs rax,0xffffffffff
    c1ea:	mov    rbx,QWORD PTR [r12+rdi*8]
    c1ee:	shr    rbx,0xc
    c1f2:	and    rbx,rax
    c1f5:	je     c4d9 <x86_pv_setup+0x8d9>
    c1fb:	mov    rax,QWORD PTR [rsp+0x38]
    c200:	mov    r10,QWORD PTR [rax+0x168]
    c207:	cmp    rbx,r10
    c20a:	ja     c4ce <x86_pv_setup+0x8ce>
    c210:	cmp    DWORD PTR [rsp+0x18],0x2
    c215:	mov    edx,esi
    c217:	mov    r9d,DWORD PTR [rsp+0x68]
    c21c:	sete   r11b
    c220:	jmp    c257 <x86_pv_setup+0x657>
    c222:	nop    WORD PTR [rax+rax*1+0x0]
    c228:	mov    edi,edx
    c22a:	movabs r9,0xffffffffff
    c234:	mov    rax,QWORD PTR [r12+rdi*8]
    c238:	shr    rax,0xc
    c23c:	and    rax,r9
    c23f:	je     c340 <x86_pv_setup+0x740>
    c245:	cmp    rax,r10
    c248:	ja     c340 <x86_pv_setup+0x740>
    c24e:	mov    r13,rbx
    c251:	mov    r9d,r15d
    c254:	mov    rbx,rax
    c257:	mov    r15d,edx
    c25a:	sub    r15d,r8d
    c25d:	cmp    r13,rbx
    c260:	mov    eax,r15d
    c263:	mov    QWORD PTR [rbp+rax*8+0x0],rbx
    c268:	je     c5ba <x86_pv_setup+0x9ba>
    c26e:	test   r11b,r11b
    c271:	je     c5ba <x86_pv_setup+0x9ba>
    c277:	add    edx,0x1
    c27a:	cmp    r14d,edx
    c27d:	jae    c228 <x86_pv_setup+0x628>
    c27f:	cmp    DWORD PTR [rsp+0x18],0x2
    c284:	je     c74d <x86_pv_setup+0xb4d>
    c28a:	mov    esi,DWORD PTR [rsp+0x60]
    c28e:	mov    rdi,r12
    c291:	mov    DWORD PTR [rsp+0x50],r8d
    c296:	shl    rsi,0xc
    c29a:	call   61b0 <munmap@plt>
    c29f:	mov    esi,DWORD PTR [rsp+0x28]
    c2a3:	mov    rax,QWORD PTR [rsp+0x48]
    c2a8:	mov    r8d,DWORD PTR [rsp+0x50]
    c2ad:	mov    ecx,esi
    c2af:	shr    rax,cl
    c2b2:	shl    rax,cl
    c2b5:	and    rax,QWORD PTR [rsp+0x20]
    c2ba:	cmp    DWORD PTR [rsp+0x18],0x1
    c2bf:	mov    QWORD PTR [rsp+0x30],rax
    c2c4:	je     c61a <x86_pv_setup+0xa1a>
    c2ca:	sub    DWORD PTR [rsp+0x18],0x1
    c2cf:	sub    DWORD PTR [rsp+0x28],0x9
    c2d4:	mov    r13,rbx
    c2d7:	mov    DWORD PTR [rsp+0x68],r15d
    c2dc:	jmp    c123 <x86_pv_setup+0x523>
    c2e1:	nop    DWORD PTR [rax+0x0]
    c2e8:	mov    rax,QWORD PTR [rax+0xc10]
    c2ef:	lea    rsi,[rax-0x1]
    c2f3:	mov    QWORD PTR [r15+0x188],rsi
    c2fa:	mov    rbx,QWORD PTR [r12+0xc28]
    c302:	jmp    bcaa <x86_pv_setup+0xaa>
    c307:	xor    ecx,ecx
    c309:	xor    r8d,r8d
    c30c:	nop    DWORD PTR [rax+0x0]
    c310:	mov    ebp,DWORD PTR [r14]
    c313:	mov    rdi,QWORD PTR [rsp+0x8]
    c318:	lea    rdx,[rip+0x16689]        # 229a8 <__PRETTY_FUNCTION__.13083+0x6a8>
    c31f:	mov    r9d,ebx
    c322:	mov    esi,0x1
    c327:	xor    eax,eax
    c329:	call   5d50 <xc_report_error@plt>
    c32e:	mov    DWORD PTR [r14],ebp
    c331:	mov    r14d,0xffffffff
    c337:	jmp    bf85 <x86_pv_setup+0x385>
    c33c:	nop    DWORD PTR [rax+0x0]
    c340:	mov    r14,r12
    c343:	movzx  ecx,BYTE PTR [rsp+0x28]
    c348:	mov    rsi,QWORD PTR [rsp+0x30]
    c34d:	lea    rdx,[rip+0x16514]        # 22868 <__PRETTY_FUNCTION__.13083+0x568>
    c354:	mov    r9d,DWORD PTR [rsp+0x18]
    c359:	shl    rdi,cl
    c35c:	mov    rcx,rax
    c35f:	xor    eax,eax
    c361:	lea    r8,[rdi+rsi*1]
    c365:	mov    rdi,QWORD PTR [rsp+0x8]
    c36a:	mov    esi,0x1
    c36f:	call   5d50 <xc_report_error@plt>
    c374:	mov    rax,QWORD PTR [rsp+0x40]
    c379:	mov    DWORD PTR [rax],0x22
    c37f:	mov    rdi,rbp
    c382:	call   5900 <free@plt>
    c387:	mov    esi,DWORD PTR [rsp+0x60]
    c38b:	mov    rdi,r14
    c38e:	mov    r14d,0xffffffff
    c394:	shl    rsi,0xc
    c398:	call   61b0 <munmap@plt>
    c39d:	jmp    bc20 <x86_pv_setup+0x20>
    c3a2:	mov    r12,QWORD PTR [r12+0xc18]
    c3aa:	jmp    bd0f <x86_pv_setup+0x10f>
    c3af:	mov    rdx,QWORD PTR [rax+0xc38]
    c3b6:	shr    rcx,0x9
    c3ba:	mov    QWORD PTR [r15+0x1b0],rdx
    c3c1:	mov    rdx,QWORD PTR [rax+0xc30]
    c3c8:	lea    eax,[rcx+0x1]
    c3cb:	mov    DWORD PTR [r15+0x190],eax
    c3d2:	shl    rax,0xc
    c3d6:	lea    rbx,[rdx-0x1]
    c3da:	mov    QWORD PTR [rsp+0x20],rdx
    c3df:	add    rax,rbx
    c3e2:	mov    QWORD PTR [rsp+0x70],rbx
    c3e7:	mov    QWORD PTR [rsp+0x10],rax
    c3ec:	mov    rax,rdx
    c3ef:	sar    rdx,0x2f
    c3f3:	sar    rax,0x3f
    c3f7:	cmp    rdx,rax
    c3fa:	jne    c489 <x86_pv_setup+0x889>
    c400:	mov    rcx,QWORD PTR [rsp+0x10]
    c405:	mov    rdx,rcx
    c408:	mov    rax,rcx
    c40b:	sar    rdx,0x2f
    c40f:	sar    rax,0x3f
    c413:	cmp    rdx,rax
    c416:	jne    c489 <x86_pv_setup+0x889>
    c418:	mov    rdx,QWORD PTR [rsp+0x20]
    c41d:	cmp    rdx,rcx
    c420:	ja     c489 <x86_pv_setup+0x889>
    c422:	movabs rax,0xffff87ffffffffff
    c42c:	cmp    rdx,rax
    c42f:	ja     c440 <x86_pv_setup+0x840>
    c431:	movabs rax,0xffff800000000000
    c43b:	cmp    rcx,rax
    c43e:	ja     c489 <x86_pv_setup+0x889>
    c440:	movabs rax,0xffffffffffff
    c44a:	mov    QWORD PTR [rsp+0x78],0x200
    c453:	mov    QWORD PTR [rsp+0x48],rax
    c458:	jmp    c061 <x86_pv_setup+0x461>
    c45d:	xor    r8d,r8d
    c460:	mov    r15d,DWORD PTR [r14]
    c463:	mov    rdi,QWORD PTR [rsp+0x8]
    c468:	lea    rdx,[rip+0x16601]        # 22a70 <__PRETTY_FUNCTION__.13083+0x770>
    c46f:	mov    esi,0x1
