
qemu-nbd-xen:     file format elf64-x86-64


Disassembly of section .init:

0000000000002dd0 <_init>:
    2dd0:	sub    rsp,0x8
    2dd4:	mov    rax,QWORD PTR [rip+0x2231fd]        # 225fd8 <__gmon_start__>
    2ddb:	test   rax,rax
    2dde:	je     2de2 <_init+0x12>
    2de0:	call   rax
    2de2:	add    rsp,0x8
    2de6:	ret    

Disassembly of section .plt:

0000000000002df0 <.plt>:
    2df0:	push   QWORD PTR [rip+0x222e5a]        # 225c50 <_GLOBAL_OFFSET_TABLE_+0x8>
    2df6:	jmp    QWORD PTR [rip+0x222e5c]        # 225c58 <_GLOBAL_OFFSET_TABLE_+0x10>
    2dfc:	nop    DWORD PTR [rax+0x0]

0000000000002e00 <__ctype_toupper_loc@plt>:
    2e00:	jmp    QWORD PTR [rip+0x222e5a]        # 225c60 <__ctype_toupper_loc@GLIBC_2.3>
    2e06:	push   0x0
    2e0b:	jmp    2df0 <.plt>

0000000000002e10 <getenv@plt>:
    2e10:	jmp    QWORD PTR [rip+0x222e52]        # 225c68 <getenv@GLIBC_2.2.5>
    2e16:	push   0x1
    2e1b:	jmp    2df0 <.plt>

0000000000002e20 <sigprocmask@plt>:
    2e20:	jmp    QWORD PTR [rip+0x222e4a]        # 225c70 <sigprocmask@GLIBC_2.2.5>
    2e26:	push   0x2
    2e2b:	jmp    2df0 <.plt>

0000000000002e30 <__snprintf_chk@plt>:
    2e30:	jmp    QWORD PTR [rip+0x222e42]        # 225c78 <__snprintf_chk@GLIBC_2.3.4>
    2e36:	push   0x3
    2e3b:	jmp    2df0 <.plt>

0000000000002e40 <free@plt>:
    2e40:	jmp    QWORD PTR [rip+0x222e3a]        # 225c80 <free@GLIBC_2.2.5>
    2e46:	push   0x4
    2e4b:	jmp    2df0 <.plt>

0000000000002e50 <recv@plt>:
    2e50:	jmp    QWORD PTR [rip+0x222e32]        # 225c88 <recv@GLIBC_2.2.5>
    2e56:	push   0x5
    2e5b:	jmp    2df0 <.plt>

0000000000002e60 <pthread_create@plt>:
    2e60:	jmp    QWORD PTR [rip+0x222e2a]        # 225c90 <pthread_create@GLIBC_2.2.5>
    2e66:	push   0x6
    2e6b:	jmp    2df0 <.plt>

0000000000002e70 <abort@plt>:
    2e70:	jmp    QWORD PTR [rip+0x222e22]        # 225c98 <abort@GLIBC_2.2.5>
    2e76:	push   0x7
    2e7b:	jmp    2df0 <.plt>

0000000000002e80 <__errno_location@plt>:
    2e80:	jmp    QWORD PTR [rip+0x222e1a]        # 225ca0 <__errno_location@GLIBC_2.2.5>
    2e86:	push   0x8
    2e8b:	jmp    2df0 <.plt>

0000000000002e90 <unlink@plt>:
    2e90:	jmp    QWORD PTR [rip+0x222e12]        # 225ca8 <unlink@GLIBC_2.2.5>
    2e96:	push   0x9
    2e9b:	jmp    2df0 <.plt>

0000000000002ea0 <strncmp@plt>:
    2ea0:	jmp    QWORD PTR [rip+0x222e0a]        # 225cb0 <strncmp@GLIBC_2.2.5>
    2ea6:	push   0xa
    2eab:	jmp    2df0 <.plt>

0000000000002eb0 <localtime_r@plt>:
    2eb0:	jmp    QWORD PTR [rip+0x222e02]        # 225cb8 <localtime_r@GLIBC_2.2.5>
    2eb6:	push   0xb
    2ebb:	jmp    2df0 <.plt>

0000000000002ec0 <inflate@plt>:
    2ec0:	jmp    QWORD PTR [rip+0x222dfa]        # 225cc0 <inflate>
    2ec6:	push   0xc
    2ecb:	jmp    2df0 <.plt>

0000000000002ed0 <mkdir@plt>:
    2ed0:	jmp    QWORD PTR [rip+0x222df2]        # 225cc8 <mkdir@GLIBC_2.2.5>
    2ed6:	push   0xd
    2edb:	jmp    2df0 <.plt>

0000000000002ee0 <sigaction@plt>:
    2ee0:	jmp    QWORD PTR [rip+0x222dea]        # 225cd0 <sigaction@GLIBC_2.2.5>
    2ee6:	push   0xe
    2eeb:	jmp    2df0 <.plt>

0000000000002ef0 <setsockopt@plt>:
    2ef0:	jmp    QWORD PTR [rip+0x222de2]        # 225cd8 <setsockopt@GLIBC_2.2.5>
    2ef6:	push   0xf
    2efb:	jmp    2df0 <.plt>

0000000000002f00 <fcntl@plt>:
    2f00:	jmp    QWORD PTR [rip+0x222dda]        # 225ce0 <fcntl@GLIBC_2.2.5>
    2f06:	push   0x10
    2f0b:	jmp    2df0 <.plt>

0000000000002f10 <write@plt>:
    2f10:	jmp    QWORD PTR [rip+0x222dd2]        # 225ce8 <write@GLIBC_2.2.5>
    2f16:	push   0x11
    2f1b:	jmp    2df0 <.plt>

0000000000002f20 <getpid@plt>:
    2f20:	jmp    QWORD PTR [rip+0x222dca]        # 225cf0 <getpid@GLIBC_2.2.5>
    2f26:	push   0x12
    2f2b:	jmp    2df0 <.plt>

0000000000002f30 <__xstat64@plt>:
    2f30:	jmp    QWORD PTR [rip+0x222dc2]        # 225cf8 <__xstat64@GLIBC_2.2.5>
    2f36:	push   0x13
    2f3b:	jmp    2df0 <.plt>

0000000000002f40 <opendir@plt>:
    2f40:	jmp    QWORD PTR [rip+0x222dba]        # 225d00 <opendir@GLIBC_2.2.5>
    2f46:	push   0x14
    2f4b:	jmp    2df0 <.plt>

0000000000002f50 <rmdir@plt>:
    2f50:	jmp    QWORD PTR [rip+0x222db2]        # 225d08 <rmdir@GLIBC_2.2.5>
    2f56:	push   0x15
    2f5b:	jmp    2df0 <.plt>

0000000000002f60 <strlen@plt>:
    2f60:	jmp    QWORD PTR [rip+0x222daa]        # 225d10 <strlen@GLIBC_2.2.5>
    2f66:	push   0x16
    2f6b:	jmp    2df0 <.plt>

0000000000002f70 <__stack_chk_fail@plt>:
    2f70:	jmp    QWORD PTR [rip+0x222da2]        # 225d18 <__stack_chk_fail@GLIBC_2.4>
    2f76:	push   0x17
    2f7b:	jmp    2df0 <.plt>

0000000000002f80 <getopt_long@plt>:
    2f80:	jmp    QWORD PTR [rip+0x222d9a]        # 225d20 <getopt_long@GLIBC_2.2.5>
    2f86:	push   0x18
    2f8b:	jmp    2df0 <.plt>

0000000000002f90 <errx@plt>:
    2f90:	jmp    QWORD PTR [rip+0x222d92]        # 225d28 <errx@GLIBC_2.2.5>
    2f96:	push   0x19
    2f9b:	jmp    2df0 <.plt>

0000000000002fa0 <send@plt>:
    2fa0:	jmp    QWORD PTR [rip+0x222d8a]        # 225d30 <send@GLIBC_2.2.5>
    2fa6:	push   0x1a
    2fab:	jmp    2df0 <.plt>

0000000000002fb0 <strchr@plt>:
    2fb0:	jmp    QWORD PTR [rip+0x222d82]        # 225d38 <strchr@GLIBC_2.2.5>
    2fb6:	push   0x1b
    2fbb:	jmp    2df0 <.plt>

0000000000002fc0 <__fdelt_chk@plt>:
    2fc0:	jmp    QWORD PTR [rip+0x222d7a]        # 225d40 <__fdelt_chk@GLIBC_2.15>
    2fc6:	push   0x1c
    2fcb:	jmp    2df0 <.plt>

0000000000002fd0 <snprintf@plt>:
    2fd0:	jmp    QWORD PTR [rip+0x222d72]        # 225d48 <snprintf@GLIBC_2.2.5>
    2fd6:	push   0x1d
    2fdb:	jmp    2df0 <.plt>

0000000000002fe0 <strrchr@plt>:
    2fe0:	jmp    QWORD PTR [rip+0x222d6a]        # 225d50 <strrchr@GLIBC_2.2.5>
    2fe6:	push   0x1e
    2feb:	jmp    2df0 <.plt>

0000000000002ff0 <gettimeofday@plt>:
    2ff0:	jmp    QWORD PTR [rip+0x222d62]        # 225d58 <gettimeofday@GLIBC_2.2.5>
    2ff6:	push   0x1f
    2ffb:	jmp    2df0 <.plt>

0000000000003000 <__assert_fail@plt>:
    3000:	jmp    QWORD PTR [rip+0x222d5a]        # 225d60 <__assert_fail@GLIBC_2.2.5>
    3006:	push   0x20
    300b:	jmp    2df0 <.plt>

0000000000003010 <deflate@plt>:
    3010:	jmp    QWORD PTR [rip+0x222d52]        # 225d68 <deflate>
    3016:	push   0x21
    301b:	jmp    2df0 <.plt>

0000000000003020 <memset@plt>:
    3020:	jmp    QWORD PTR [rip+0x222d4a]        # 225d70 <memset@GLIBC_2.2.5>
    3026:	push   0x22
    302b:	jmp    2df0 <.plt>

0000000000003030 <ioctl@plt>:
    3030:	jmp    QWORD PTR [rip+0x222d42]        # 225d78 <ioctl@GLIBC_2.2.5>
    3036:	push   0x23
    303b:	jmp    2df0 <.plt>

0000000000003040 <close@plt>:
    3040:	jmp    QWORD PTR [rip+0x222d3a]        # 225d80 <close@GLIBC_2.2.5>
    3046:	push   0x24
    304b:	jmp    2df0 <.plt>

0000000000003050 <__realpath_chk@plt>:
    3050:	jmp    QWORD PTR [rip+0x222d32]        # 225d88 <__realpath_chk@GLIBC_2.4>
    3056:	push   0x25
    305b:	jmp    2df0 <.plt>

0000000000003060 <pipe@plt>:
    3060:	jmp    QWORD PTR [rip+0x222d2a]        # 225d90 <pipe@GLIBC_2.2.5>
    3066:	push   0x26
    306b:	jmp    2df0 <.plt>

0000000000003070 <closedir@plt>:
    3070:	jmp    QWORD PTR [rip+0x222d22]        # 225d98 <closedir@GLIBC_2.2.5>
    3076:	push   0x27
    307b:	jmp    2df0 <.plt>

0000000000003080 <deflateInit2_@plt>:
    3080:	jmp    QWORD PTR [rip+0x222d1a]        # 225da0 <deflateInit2_>
    3086:	push   0x28
    308b:	jmp    2df0 <.plt>

0000000000003090 <memchr@plt>:
    3090:	jmp    QWORD PTR [rip+0x222d12]        # 225da8 <memchr@GLIBC_2.2.5>
    3096:	push   0x29
    309b:	jmp    2df0 <.plt>

00000000000030a0 <read@plt>:
    30a0:	jmp    QWORD PTR [rip+0x222d0a]        # 225db0 <read@GLIBC_2.2.5>
    30a6:	push   0x2a
    30ab:	jmp    2df0 <.plt>

00000000000030b0 <memcmp@plt>:
    30b0:	jmp    QWORD PTR [rip+0x222d02]        # 225db8 <memcmp@GLIBC_2.2.5>
    30b6:	push   0x2b
    30bb:	jmp    2df0 <.plt>

00000000000030c0 <mkstemp64@plt>:
    30c0:	jmp    QWORD PTR [rip+0x222cfa]        # 225dc0 <mkstemp64@GLIBC_2.2.5>
    30c6:	push   0x2c
    30cb:	jmp    2df0 <.plt>

00000000000030d0 <pthread_attr_init@plt>:
    30d0:	jmp    QWORD PTR [rip+0x222cf2]        # 225dc8 <pthread_attr_init@GLIBC_2.2.5>
    30d6:	push   0x2d
    30db:	jmp    2df0 <.plt>

00000000000030e0 <pthread_cond_signal@plt>:
    30e0:	jmp    QWORD PTR [rip+0x222cea]        # 225dd0 <pthread_cond_signal@GLIBC_2.3.2>
    30e6:	push   0x2e
    30eb:	jmp    2df0 <.plt>

00000000000030f0 <calloc@plt>:
    30f0:	jmp    QWORD PTR [rip+0x222ce2]        # 225dd8 <calloc@GLIBC_2.2.5>
    30f6:	push   0x2f
    30fb:	jmp    2df0 <.plt>

0000000000003100 <__fxstat64@plt>:
    3100:	jmp    QWORD PTR [rip+0x222cda]        # 225de0 <__fxstat64@GLIBC_2.2.5>
    3106:	push   0x30
    310b:	jmp    2df0 <.plt>

0000000000003110 <strcmp@plt>:
    3110:	jmp    QWORD PTR [rip+0x222cd2]        # 225de8 <strcmp@GLIBC_2.2.5>
    3116:	push   0x31
    311b:	jmp    2df0 <.plt>

0000000000003120 <strtoll@plt>:
    3120:	jmp    QWORD PTR [rip+0x222cca]        # 225df0 <strtoll@GLIBC_2.2.5>
    3126:	push   0x32
    312b:	jmp    2df0 <.plt>

0000000000003130 <gethostbyname@plt>:
    3130:	jmp    QWORD PTR [rip+0x222cc2]        # 225df8 <gethostbyname@GLIBC_2.2.5>
    3136:	push   0x33
    313b:	jmp    2df0 <.plt>

0000000000003140 <__memcpy_chk@plt>:
    3140:	jmp    QWORD PTR [rip+0x222cba]        # 225e00 <__memcpy_chk@GLIBC_2.3.4>
    3146:	push   0x34
    314b:	jmp    2df0 <.plt>

0000000000003150 <sigemptyset@plt>:
    3150:	jmp    QWORD PTR [rip+0x222cb2]        # 225e08 <sigemptyset@GLIBC_2.2.5>
    3156:	push   0x35
    315b:	jmp    2df0 <.plt>

0000000000003160 <basename@plt>:
    3160:	jmp    QWORD PTR [rip+0x222caa]        # 225e10 <basename@GLIBC_2.2.5>
    3166:	push   0x36
    316b:	jmp    2df0 <.plt>

0000000000003170 <strtol@plt>:
    3170:	jmp    QWORD PTR [rip+0x222ca2]        # 225e18 <strtol@GLIBC_2.2.5>
    3176:	push   0x37
    317b:	jmp    2df0 <.plt>

0000000000003180 <sigfillset@plt>:
    3180:	jmp    QWORD PTR [rip+0x222c9a]        # 225e20 <sigfillset@GLIBC_2.2.5>
    3186:	push   0x38
    318b:	jmp    2df0 <.plt>

0000000000003190 <memcpy@plt>:
    3190:	jmp    QWORD PTR [rip+0x222c92]        # 225e28 <memcpy@GLIBC_2.14>
    3196:	push   0x39
    319b:	jmp    2df0 <.plt>

00000000000031a0 <inflateEnd@plt>:
    31a0:	jmp    QWORD PTR [rip+0x222c8a]        # 225e30 <inflateEnd>
    31a6:	push   0x3a
    31ab:	jmp    2df0 <.plt>

00000000000031b0 <kill@plt>:
    31b0:	jmp    QWORD PTR [rip+0x222c82]        # 225e38 <kill@GLIBC_2.2.5>
    31b6:	push   0x3b
    31bb:	jmp    2df0 <.plt>

00000000000031c0 <time@plt>:
    31c0:	jmp    QWORD PTR [rip+0x222c7a]        # 225e40 <time@GLIBC_2.2.5>
    31c6:	push   0x3c
    31cb:	jmp    2df0 <.plt>

00000000000031d0 <select@plt>:
    31d0:	jmp    QWORD PTR [rip+0x222c72]        # 225e48 <select@GLIBC_2.2.5>
    31d6:	push   0x3d
    31db:	jmp    2df0 <.plt>

00000000000031e0 <inet_aton@plt>:
    31e0:	jmp    QWORD PTR [rip+0x222c6a]        # 225e50 <inet_aton@GLIBC_2.2.5>
    31e6:	push   0x3e
    31eb:	jmp    2df0 <.plt>

00000000000031f0 <pthread_attr_setdetachstate@plt>:
    31f0:	jmp    QWORD PTR [rip+0x222c62]        # 225e58 <pthread_attr_setdetachstate@GLIBC_2.2.5>
    31f6:	push   0x3f
    31fb:	jmp    2df0 <.plt>

0000000000003200 <mmap64@plt>:
    3200:	jmp    QWORD PTR [rip+0x222c5a]        # 225e60 <mmap64@GLIBC_2.2.5>
    3206:	push   0x40
    320b:	jmp    2df0 <.plt>

0000000000003210 <pthread_mutex_unlock@plt>:
    3210:	jmp    QWORD PTR [rip+0x222c52]        # 225e68 <pthread_mutex_unlock@GLIBC_2.2.5>
    3216:	push   0x41
    321b:	jmp    2df0 <.plt>

0000000000003220 <__open64_2@plt>:
    3220:	jmp    QWORD PTR [rip+0x222c4a]        # 225e70 <__open64_2@GLIBC_2.7>
    3226:	push   0x42
    322b:	jmp    2df0 <.plt>

0000000000003230 <malloc@plt>:
    3230:	jmp    QWORD PTR [rip+0x222c42]        # 225e78 <malloc@GLIBC_2.2.5>
    3236:	push   0x43
    323b:	jmp    2df0 <.plt>

0000000000003240 <listen@plt>:
    3240:	jmp    QWORD PTR [rip+0x222c3a]        # 225e80 <listen@GLIBC_2.2.5>
    3246:	push   0x44
    324b:	jmp    2df0 <.plt>

0000000000003250 <sscanf@plt>:
    3250:	jmp    QWORD PTR [rip+0x222c32]        # 225e88 <sscanf@GLIBC_2.2.5>
    3256:	push   0x45
    325b:	jmp    2df0 <.plt>

0000000000003260 <daemon@plt>:
    3260:	jmp    QWORD PTR [rip+0x222c2a]        # 225e90 <daemon@GLIBC_2.2.5>
    3266:	push   0x46
    326b:	jmp    2df0 <.plt>

0000000000003270 <deflateEnd@plt>:
    3270:	jmp    QWORD PTR [rip+0x222c22]        # 225e98 <deflateEnd>
    3276:	push   0x47
    327b:	jmp    2df0 <.plt>

0000000000003280 <realloc@plt>:
    3280:	jmp    QWORD PTR [rip+0x222c1a]        # 225ea0 <realloc@GLIBC_2.2.5>
    3286:	push   0x48
    328b:	jmp    2df0 <.plt>

0000000000003290 <munmap@plt>:
    3290:	jmp    QWORD PTR [rip+0x222c12]        # 225ea8 <munmap@GLIBC_2.2.5>
    3296:	push   0x49
    329b:	jmp    2df0 <.plt>

00000000000032a0 <ftruncate64@plt>:
    32a0:	jmp    QWORD PTR [rip+0x222c0a]        # 225eb0 <ftruncate64@GLIBC_2.2.5>
    32a6:	push   0x4a
    32ab:	jmp    2df0 <.plt>

00000000000032b0 <__printf_chk@plt>:
    32b0:	jmp    QWORD PTR [rip+0x222c02]        # 225eb8 <__printf_chk@GLIBC_2.3.4>
    32b6:	push   0x4b
    32bb:	jmp    2df0 <.plt>

00000000000032c0 <inflateInit_@plt>:
    32c0:	jmp    QWORD PTR [rip+0x222bfa]        # 225ec0 <inflateInit_>
    32c6:	push   0x4c
    32cb:	jmp    2df0 <.plt>

00000000000032d0 <bind@plt>:
    32d0:	jmp    QWORD PTR [rip+0x222bf2]        # 225ec8 <bind@GLIBC_2.2.5>
    32d6:	push   0x4d
    32db:	jmp    2df0 <.plt>

00000000000032e0 <open64@plt>:
    32e0:	jmp    QWORD PTR [rip+0x222bea]        # 225ed0 <open64@GLIBC_2.2.5>
    32e6:	push   0x4e
    32eb:	jmp    2df0 <.plt>

00000000000032f0 <strftime@plt>:
    32f0:	jmp    QWORD PTR [rip+0x222be2]        # 225ed8 <strftime@GLIBC_2.2.5>
    32f6:	push   0x4f
    32fb:	jmp    2df0 <.plt>

0000000000003300 <memmove@plt>:
    3300:	jmp    QWORD PTR [rip+0x222bda]        # 225ee0 <memmove@GLIBC_2.2.5>
    3306:	push   0x50
    330b:	jmp    2df0 <.plt>

0000000000003310 <readdir64@plt>:
    3310:	jmp    QWORD PTR [rip+0x222bd2]        # 225ee8 <readdir64@GLIBC_2.2.5>
    3316:	push   0x51
    331b:	jmp    2df0 <.plt>

0000000000003320 <lockf64@plt>:
    3320:	jmp    QWORD PTR [rip+0x222bca]        # 225ef0 <lockf64@GLIBC_2.2.5>
    3326:	push   0x52
    332b:	jmp    2df0 <.plt>

0000000000003330 <fsync@plt>:
    3330:	jmp    QWORD PTR [rip+0x222bc2]        # 225ef8 <fsync@GLIBC_2.2.5>
    3336:	push   0x53
    333b:	jmp    2df0 <.plt>

0000000000003340 <pthread_cond_timedwait@plt>:
    3340:	jmp    QWORD PTR [rip+0x222bba]        # 225f00 <pthread_cond_timedwait@GLIBC_2.3.2>
    3346:	push   0x54
    334b:	jmp    2df0 <.plt>

0000000000003350 <inflateInit2_@plt>:
    3350:	jmp    QWORD PTR [rip+0x222bb2]        # 225f08 <inflateInit2_>
    3356:	push   0x55
    335b:	jmp    2df0 <.plt>

0000000000003360 <perror@plt>:
    3360:	jmp    QWORD PTR [rip+0x222baa]        # 225f10 <perror@GLIBC_2.2.5>
    3366:	push   0x56
    336b:	jmp    2df0 <.plt>

0000000000003370 <rename@plt>:
    3370:	jmp    QWORD PTR [rip+0x222ba2]        # 225f18 <rename@GLIBC_2.2.5>
    3376:	push   0x57
    337b:	jmp    2df0 <.plt>

0000000000003380 <accept@plt>:
    3380:	jmp    QWORD PTR [rip+0x222b9a]        # 225f20 <accept@GLIBC_2.2.5>
    3386:	push   0x58
    338b:	jmp    2df0 <.plt>

0000000000003390 <strtoul@plt>:
    3390:	jmp    QWORD PTR [rip+0x222b92]        # 225f28 <strtoul@GLIBC_2.2.5>
    3396:	push   0x59
    339b:	jmp    2df0 <.plt>

00000000000033a0 <inflateReset@plt>:
    33a0:	jmp    QWORD PTR [rip+0x222b8a]        # 225f30 <inflateReset>
    33a6:	push   0x5a
    33ab:	jmp    2df0 <.plt>

00000000000033b0 <getpagesize@plt>:
    33b0:	jmp    QWORD PTR [rip+0x222b82]        # 225f38 <getpagesize@GLIBC_2.2.5>
    33b6:	push   0x5b
    33bb:	jmp    2df0 <.plt>

00000000000033c0 <exit@plt>:
    33c0:	jmp    QWORD PTR [rip+0x222b7a]        # 225f40 <exit@GLIBC_2.2.5>
    33c6:	push   0x5c
    33cb:	jmp    2df0 <.plt>

00000000000033d0 <connect@plt>:
    33d0:	jmp    QWORD PTR [rip+0x222b72]        # 225f48 <connect@GLIBC_2.2.5>
    33d6:	push   0x5d
    33db:	jmp    2df0 <.plt>

00000000000033e0 <fwrite@plt>:
    33e0:	jmp    QWORD PTR [rip+0x222b6a]        # 225f50 <fwrite@GLIBC_2.2.5>
    33e6:	push   0x5e
    33eb:	jmp    2df0 <.plt>

00000000000033f0 <lseek64@plt>:
    33f0:	jmp    QWORD PTR [rip+0x222b62]        # 225f58 <lseek64@GLIBC_2.2.5>
    33f6:	push   0x5f
    33fb:	jmp    2df0 <.plt>

0000000000003400 <__fprintf_chk@plt>:
    3400:	jmp    QWORD PTR [rip+0x222b5a]        # 225f60 <__fprintf_chk@GLIBC_2.3.4>
    3406:	push   0x60
    340b:	jmp    2df0 <.plt>

0000000000003410 <posix_memalign@plt>:
    3410:	jmp    QWORD PTR [rip+0x222b52]        # 225f68 <posix_memalign@GLIBC_2.2.5>
    3416:	push   0x61
    341b:	jmp    2df0 <.plt>

0000000000003420 <strdup@plt>:
    3420:	jmp    QWORD PTR [rip+0x222b4a]        # 225f70 <strdup@GLIBC_2.2.5>
    3426:	push   0x62
    342b:	jmp    2df0 <.plt>

0000000000003430 <strerror@plt>:
    3430:	jmp    QWORD PTR [rip+0x222b42]        # 225f78 <strerror@GLIBC_2.2.5>
    3436:	push   0x63
    343b:	jmp    2df0 <.plt>

0000000000003440 <sleep@plt>:
    3440:	jmp    QWORD PTR [rip+0x222b3a]        # 225f80 <sleep@GLIBC_2.2.5>
    3446:	push   0x64
    344b:	jmp    2df0 <.plt>

0000000000003450 <sigaddset@plt>:
    3450:	jmp    QWORD PTR [rip+0x222b32]        # 225f88 <sigaddset@GLIBC_2.2.5>
    3456:	push   0x65
    345b:	jmp    2df0 <.plt>

0000000000003460 <fork@plt>:
    3460:	jmp    QWORD PTR [rip+0x222b2a]        # 225f90 <fork@GLIBC_2.2.5>
    3466:	push   0x66
    346b:	jmp    2df0 <.plt>

0000000000003470 <strstr@plt>:
    3470:	jmp    QWORD PTR [rip+0x222b22]        # 225f98 <strstr@GLIBC_2.2.5>
    3476:	push   0x67
    347b:	jmp    2df0 <.plt>

0000000000003480 <pthread_mutex_lock@plt>:
    3480:	jmp    QWORD PTR [rip+0x222b1a]        # 225fa0 <pthread_mutex_lock@GLIBC_2.2.5>
    3486:	push   0x68
    348b:	jmp    2df0 <.plt>

0000000000003490 <__ctype_tolower_loc@plt>:
    3490:	jmp    QWORD PTR [rip+0x222b12]        # 225fa8 <__ctype_tolower_loc@GLIBC_2.3>
    3496:	push   0x69
    349b:	jmp    2df0 <.plt>

00000000000034a0 <__ctype_b_loc@plt>:
    34a0:	jmp    QWORD PTR [rip+0x222b0a]        # 225fb0 <__ctype_b_loc@GLIBC_2.3>
    34a6:	push   0x6a
    34ab:	jmp    2df0 <.plt>

00000000000034b0 <__sprintf_chk@plt>:
    34b0:	jmp    QWORD PTR [rip+0x222b02]        # 225fb8 <__sprintf_chk@GLIBC_2.3.4>
    34b6:	push   0x6b
    34bb:	jmp    2df0 <.plt>

00000000000034c0 <socket@plt>:
    34c0:	jmp    QWORD PTR [rip+0x222afa]        # 225fc0 <socket@GLIBC_2.2.5>
    34c6:	push   0x6c
    34cb:	jmp    2df0 <.plt>

Disassembly of section .plt.got:

00000000000034d0 <__cxa_finalize@plt>:
    34d0:	jmp    QWORD PTR [rip+0x222b22]        # 225ff8 <__cxa_finalize@GLIBC_2.2.5>
    34d6:	xchg   ax,ax

Disassembly of section .text:

00000000000034e0 <main>:
    34e0:	push   r15
    34e2:	push   r14
    34e4:	mov    ecx,0x40
    34e9:	push   r13
    34eb:	push   r12
    34ed:	mov    r13,rsi
    34f0:	push   rbp
    34f1:	push   rbx
    34f2:	mov    r12d,edi
    34f5:	lea    rsi,[rip+0x222b24]        # 226020 <__dso_handle+0x18>
    34fc:	lea    r14,[rip+0x18434]        # 1b937 <_IO_stdin_used+0xb7>
    3503:	lea    rbx,[rip+0x18b02]        # 1c00c <_IO_stdin_used+0x78c>
    350a:	sub    rsp,0x788
    3511:	lea    rbp,[rsp+0x170]
    3519:	lea    r15,[rsp+0x6c]
    351e:	mov    QWORD PTR [rsp+0x70],0x0
    3527:	mov    rax,QWORD PTR fs:0x28
    3530:	mov    QWORD PTR [rsp+0x778],rax
    3538:	xor    eax,eax
    353a:	mov    rdi,rbp
    353d:	lea    rax,[rip+0x18340]        # 1b884 <_IO_stdin_used+0x4>
    3544:	mov    DWORD PTR [rsp+0x68],0x10
    354c:	rep movs QWORD PTR es:[rdi],QWORD PTR ds:[rsi]
    354f:	mov    QWORD PTR [rsp+0x50],rax
    3554:	lea    rax,[rsp+0x78]
    3559:	mov    DWORD PTR [rsp+0x6c],0x0
    3561:	mov    QWORD PTR [rsp+0x10],0x0
    356a:	mov    DWORD PTR [rsp+0x44],0x0
    3572:	mov    DWORD PTR [rsp+0x40],0x1
    357a:	mov    DWORD PTR [rsp+0x3c],0xffffffff
    3582:	mov    DWORD PTR [rsp+0x18],0x0
    358a:	mov    QWORD PTR [rsp+0x28],0x0
    3593:	mov    QWORD PTR [rsp+0x30],0x0
    359c:	mov    DWORD PTR [rsp+0x48],0x400
    35a4:	mov    BYTE PTR [rsp+0x20],0x0
    35a9:	mov    BYTE PTR [rsp+0x58],0x0
    35ae:	mov    QWORD PTR [rsp+0x8],rax
    35b3:	nop    DWORD PTR [rax+rax*1+0x0]
    35b8:	mov    r8,r15
    35bb:	mov    rcx,rbp
    35be:	mov    rdx,r14
    35c1:	mov    rsi,r13
    35c4:	mov    edi,r12d
    35c7:	call   2f80 <getopt_long@plt>
    35cc:	cmp    eax,0xffffffff
    35cf:	je     37b9 <main+0x2d9>
    35d5:	sub    eax,0x3f
    35d8:	cmp    eax,0x37
    35db:	ja     35b8 <main+0xd8>
    35dd:	movsxd rax,DWORD PTR [rbx+rax*4]
    35e1:	add    rax,rbx
    35e4:	jmp    rax
    35e6:	mov    BYTE PTR [rsp+0x20],0x1
    35eb:	jmp    35b8 <main+0xd8>
    35ed:	mov    BYTE PTR [rsp+0x58],0x1
    35f2:	jmp    35b8 <main+0xd8>
    35f4:	or     DWORD PTR [rsp+0x18],0x8
    35f9:	jmp    35b8 <main+0xd8>
    35fb:	mov    rsi,QWORD PTR [rsp+0x8]
    3600:	mov    rdi,QWORD PTR [rip+0x223ee1]        # 2274e8 <optarg@@GLIBC_2.2.5>
    3607:	xor    edx,edx
    3609:	call   3170 <strtol@plt>
    360e:	mov    rdx,QWORD PTR [rsp+0x78]
    3613:	cmp    BYTE PTR [rdx],0x0
    3616:	jne    3f9f <main+0xabf>
    361c:	lea    edx,[rax-0x1]
    361f:	cmp    edx,0xfffe
    3625:	ja     3f51 <main+0xa71>
    362b:	movzx  eax,ax
    362e:	mov    DWORD PTR [rsp+0x48],eax
    3632:	jmp    35b8 <main+0xd8>
    3634:	mov    rsi,QWORD PTR [rsp+0x8]
    3639:	mov    rdi,QWORD PTR [rip+0x223ea8]        # 2274e8 <optarg@@GLIBC_2.2.5>
    3640:	xor    edx,edx
    3642:	call   3120 <strtoll@plt>
    3647:	mov    QWORD PTR [rsp+0x10],rax
    364c:	mov    rax,QWORD PTR [rsp+0x78]
    3651:	cmp    BYTE PTR [rax],0x0
    3654:	jne    3f6b <main+0xa8b>
    365a:	cmp    QWORD PTR [rsp+0x10],0x0
    3660:	jns    35b8 <main+0xd8>
    3666:	mov    rdx,QWORD PTR [rip+0x223e7b]        # 2274e8 <optarg@@GLIBC_2.2.5>
    366d:	lea    rsi,[rip+0x18255]        # 1b8c9 <_IO_stdin_used+0x49>
    3674:	mov    edi,0x16
    3679:	xor    eax,eax
    367b:	call   2f90 <errx@plt>
    3680:	or     DWORD PTR [rsp+0x18],0x20
    3685:	jmp    35b8 <main+0xd8>
    368a:	mov    rax,QWORD PTR [rip+0x223e57]        # 2274e8 <optarg@@GLIBC_2.2.5>
    3691:	cmp    BYTE PTR [rax],0x2f
    3694:	mov    QWORD PTR [rsp+0x28],rax
    3699:	je     35b8 <main+0xd8>
    369f:	lea    rsi,[rip+0x1826c]        # 1b912 <_IO_stdin_used+0x92>
    36a6:	mov    edi,0x16
    36ab:	xor    eax,eax
    36ad:	call   2f90 <errx@plt>
    36b2:	mov    rdx,QWORD PTR [r13+0x0]
    36b6:	lea    rcx,[rip+0x18273]        # 1b930 <_IO_stdin_used+0xb0>
    36bd:	lea    rsi,[rip+0x184e4]        # 1bba8 <_IO_stdin_used+0x328>
    36c4:	mov    edi,0x1
    36c9:	xor    eax,eax
    36cb:	call   32b0 <__printf_chk@plt>
    36d0:	xor    edi,edi
    36d2:	call   33c0 <exit@plt>
    36d7:	mov    rsi,QWORD PTR [rsp+0x8]
    36dc:	mov    rdi,QWORD PTR [rip+0x223e05]        # 2274e8 <optarg@@GLIBC_2.2.5>
    36e3:	xor    edx,edx
    36e5:	call   3170 <strtol@plt>
    36ea:	mov    rdx,QWORD PTR [rsp+0x78]
    36ef:	mov    DWORD PTR [rsp+0x40],eax
    36f3:	cmp    BYTE PTR [rdx],0x0
    36f6:	jne    3f37 <main+0xa57>
    36fc:	test   eax,eax
    36fe:	jg     35b8 <main+0xd8>
    3704:	lea    rsi,[rip+0x18365]        # 1ba70 <_IO_stdin_used+0x1f0>
    370b:	mov    edi,0x16
    3710:	xor    eax,eax
    3712:	call   2f90 <errx@plt>
    3717:	mov    rax,QWORD PTR [rip+0x223dca]        # 2274e8 <optarg@@GLIBC_2.2.5>
    371e:	mov    QWORD PTR [rsp+0x30],rax
    3723:	jmp    35b8 <main+0xd8>
    3728:	mov    rax,QWORD PTR [rip+0x223db9]        # 2274e8 <optarg@@GLIBC_2.2.5>
    372f:	mov    QWORD PTR [rsp+0x50],rax
    3734:	jmp    35b8 <main+0xd8>
    3739:	mov    rdx,QWORD PTR [r13+0x0]
    373d:	lea    rsi,[rip+0x1835c]        # 1baa0 <_IO_stdin_used+0x220>
    3744:	mov    edi,0x1
    3749:	xor    eax,eax
    374b:	call   32b0 <__printf_chk@plt>
    3750:	xor    edi,edi
    3752:	call   33c0 <exit@plt>
    3757:	mov    rsi,QWORD PTR [rsp+0x8]
    375c:	mov    rdi,QWORD PTR [rip+0x223d85]        # 2274e8 <optarg@@GLIBC_2.2.5>
    3763:	xor    edx,edx
    3765:	call   3170 <strtol@plt>
    376a:	mov    rdx,QWORD PTR [rsp+0x78]
    376f:	mov    DWORD PTR [rsp+0x3c],eax
    3773:	cmp    BYTE PTR [rdx],0x0
    3776:	jne    3f85 <main+0xaa5>
    377c:	lea    edx,[rax-0x1]
    377f:	cmp    edx,0x7
    3782:	jbe    35b8 <main+0xd8>
    3788:	lea    rsi,[rip+0x1816e]        # 1b8fd <_IO_stdin_used+0x7d>
    378f:	mov    edx,eax
    3791:	mov    edi,0x16
    3796:	xor    eax,eax
    3798:	call   2f90 <errx@plt>
    379d:	mov    DWORD PTR [rip+0x223d65],0x1        # 22750c <verbose>
    37a7:	jmp    35b8 <main+0xd8>
    37ac:	mov    DWORD PTR [rsp+0x44],0x1
    37b4:	jmp    35b8 <main+0xd8>
    37b9:	movsxd rax,DWORD PTR [rip+0x223d20]        # 2274e0 <optind@@GLIBC_2.2.5>
    37c0:	sub    r12d,eax
    37c3:	cmp    r12d,0x1
    37c7:	jne    3f20 <main+0xa40>
    37cd:	cmp    BYTE PTR [rsp+0x20],0x0
    37d2:	je     384c <main+0x36c>
    37d4:	mov    rdi,QWORD PTR [r13+rax*8+0x0]
    37d9:	mov    esi,0x2
    37de:	xor    eax,eax
    37e0:	call   32e0 <open64@plt>
    37e5:	cmp    eax,0xffffffff
    37e8:	mov    ebx,eax
    37ea:	je     3eff <main+0xa1f>
    37f0:	mov    edi,eax
    37f2:	xor    r12d,r12d
    37f5:	call   164d0 <nbd_disconnect>
    37fa:	mov    edi,ebx
    37fc:	call   3040 <close@plt>
    3801:	movsxd rax,DWORD PTR [rip+0x223cd8]        # 2274e0 <optind@@GLIBC_2.2.5>
    3808:	lea    rsi,[rip+0x1814e]        # 1b95d <_IO_stdin_used+0xdd>
    380f:	mov    edi,0x1
    3814:	mov    rdx,QWORD PTR [r13+rax*8+0x0]
    3819:	xor    eax,eax
    381b:	call   32b0 <__printf_chk@plt>
    3820:	mov    rcx,QWORD PTR [rsp+0x778]
    3828:	xor    rcx,QWORD PTR fs:0x28
    3831:	mov    eax,r12d
    3834:	jne    3e5a <main+0x97a>
    383a:	add    rsp,0x788
    3841:	pop    rbx
    3842:	pop    rbp
    3843:	pop    r12
    3845:	pop    r13
    3847:	pop    r14
    3849:	pop    r15
    384b:	ret    
    384c:	call   19540 <bdrv_init>
    3851:	lea    rdi,[rip+0x18116]        # 1b96e <_IO_stdin_used+0xee>
    3858:	call   16fb0 <bdrv_new>
    385d:	test   rax,rax
    3860:	mov    r15,rax
    3863:	je     3820 <main+0x340>
    3865:	movsxd rax,DWORD PTR [rip+0x223c74]        # 2274e0 <optind@@GLIBC_2.2.5>
    386c:	mov    edx,DWORD PTR [rsp+0x18]
    3870:	mov    rdi,r15
    3873:	mov    rsi,QWORD PTR [r13+rax*8+0x0]
    3878:	call   180e0 <bdrv_open>
    387d:	add    eax,0x1
    3880:	je     3820 <main+0x340>
    3882:	cmp    DWORD PTR [rsp+0x3c],0xffffffff
    3887:	je     3992 <main+0x4b2>
    388d:	lea    rbx,[rsp+0x370]
    3895:	xor    esi,esi
    3897:	mov    ecx,0x1
    389c:	mov    rdi,r15
    389f:	mov    rdx,rbx
    38a2:	call   171e0 <bdrv_read>
    38a7:	test   eax,eax
    38a9:	jne    3eec <main+0xa0c>
    38af:	cmp    BYTE PTR [rsp+0x56e],0x55
    38b7:	jne    3ea9 <main+0x9c9>
    38bd:	cmp    BYTE PTR [rsp+0x56f],0xaa
    38c5:	jne    3ea9 <main+0x9c9>
    38cb:	lea    rax,[rsp+0x570]
    38d3:	lea    rcx,[rsp+0xf0]
    38db:	lea    rbp,[rsp+0x90]
    38e3:	xor    r14d,r14d
    38e6:	mov    DWORD PTR [rsp+0x8],0x4
    38ee:	add    rbx,0x1be
    38f5:	mov    QWORD PTR [rsp+0x18],rax
    38fa:	lea    rax,[rsp+0x72e]
    3902:	mov    QWORD PTR [rsp+0x20],rcx
    3907:	mov    QWORD PTR [rsp+0x10],rax
    390c:	mov    rdi,r14
    390f:	mov    rsi,rbp
    3912:	shl    rdi,0x4
    3916:	add    rdi,rbx
    3919:	call   40d0 <read_partition>
    391e:	mov    eax,DWORD PTR [rbp+0x14]
    3921:	test   eax,eax
    3923:	je     3949 <main+0x469>
    3925:	movzx  edx,BYTE PTR [rbp+0x9]
    3929:	cmp    dl,0xf
    392c:	je     3c71 <main+0x791>
    3932:	cmp    dl,0x5
    3935:	je     3c71 <main+0x791>
    393b:	lea    edx,[r14+0x1]
    393f:	cmp    DWORD PTR [rsp+0x3c],edx
    3943:	je     3e5f <main+0x97f>
    3949:	add    r14,0x1
    394d:	add    rbp,0x18
    3951:	cmp    r14,0x4
    3955:	jne    390c <main+0x42c>
    3957:	call   2e80 <__errno_location@plt>
    395c:	mov    DWORD PTR [rax],0xfffffffe
    3962:	call   2e80 <__errno_location@plt>
    3967:	mov    edx,DWORD PTR [rsp+0x3c]
    396b:	mov    edi,DWORD PTR [rax]
    396d:	lea    rsi,[rip+0x18044]        # 1b9b8 <_IO_stdin_used+0x138>
    3974:	xor    eax,eax
    3976:	call   2f90 <errx@plt>
    397b:	mov    rdx,QWORD PTR [r13+0x0]
    397f:	lea    rsi,[rip+0x185ea]        # 1bf70 <_IO_stdin_used+0x6f0>
    3986:	mov    edi,0x16
    398b:	xor    eax,eax
    398d:	call   2f90 <errx@plt>
    3992:	mov    rax,QWORD PTR [r15]
    3995:	shl    rax,0x9
    3999:	mov    QWORD PTR [rsp+0x8],rax
    399e:	cmp    QWORD PTR [rsp+0x30],0x0
    39a4:	je     3de1 <main+0x901>
    39aa:	cmp    DWORD PTR [rip+0x223b5b],0x0        # 22750c <verbose>
    39b1:	jne    39bc <main+0x4dc>
    39b3:	xor    esi,esi
    39b5:	xor    edi,edi
    39b7:	call   3260 <daemon@plt>
    39bc:	cmp    QWORD PTR [rsp+0x28],0x0
    39c2:	je     3e18 <main+0x938>
    39c8:	call   3460 <fork@plt>
    39cd:	test   eax,eax
    39cf:	mov    ebx,eax
    39d1:	js     3820 <main+0x340>
    39d7:	jne    3cdb <main+0x7fb>
    39dd:	mov    eax,DWORD PTR [rsp+0x40]
    39e1:	lea    edi,[rax+0x1]
    39e4:	movsxd rdi,edi
    39e7:	shl    rdi,0x2
    39eb:	call   49d0 <qemu_malloc>
    39f0:	mov    rbx,rax
    39f3:	mov    rdi,QWORD PTR [rsp+0x28]
    39f8:	call   15fc0 <unix_socket_incoming>
    39fd:	mov    DWORD PTR [rbx],eax
    39ff:	mov    eax,DWORD PTR [rbx]
    3a01:	mov    DWORD PTR [rsp+0x50],eax
    3a05:	add    eax,0x1
    3a08:	je     3820 <main+0x340>
    3a0e:	mov    esi,0x100000
    3a13:	mov    edi,0x200
    3a18:	call   43f0 <qemu_memalign>
    3a1d:	test   rax,rax
    3a20:	mov    QWORD PTR [rsp+0x20],rax
    3a25:	je     3eb9 <main+0x9d9>
    3a2b:	lea    rax,[rsp+0xf0]
    3a33:	mov    r14d,0x1
    3a39:	mov    QWORD PTR [rsp+0x30],r15
    3a3e:	mov    QWORD PTR [rsp+0x18],rax
    3a43:	movzx  eax,BYTE PTR [rsp+0x58]
    3a48:	mov    DWORD PTR [rsp+0x3c],eax
    3a4c:	lea    rax,[rsp+0x70]
    3a51:	mov    QWORD PTR [rsp+0x48],rax
    3a56:	lea    rax,[rsp+0x90]
    3a5e:	mov    QWORD PTR [rsp+0x58],rax
    3a63:	xor    eax,eax
    3a65:	mov    ecx,0x10
    3a6a:	mov    rdi,QWORD PTR [rsp+0x18]
    3a6f:	cld    
    3a70:	rep stos QWORD PTR es:[rdi],rax
    3a73:	xor    ebp,ebp
    3a75:	mov    r12d,0x40
    3a7b:	movsxd rdi,DWORD PTR [rbx+rbp*4]
    3a7f:	mov    r13d,0x1
    3a85:	call   2fc0 <__fdelt_chk@plt>
    3a8a:	mov    rsi,rax
    3a8d:	mov    eax,DWORD PTR [rbx+rbp*4]
    3a90:	add    rbp,0x1
    3a94:	cdq    
    3a95:	idiv   r12d
    3a98:	mov    rax,r13
    3a9b:	mov    ecx,edx
    3a9d:	shl    rax,cl
    3aa0:	or     QWORD PTR [rsp+rsi*8+0xf0],rax
    3aa8:	cmp    r14d,ebp
    3aab:	jg     3a7b <main+0x59b>
    3aad:	mov    eax,DWORD PTR [rsp+0x50]
    3ab1:	mov    rsi,QWORD PTR [rsp+0x18]
    3ab6:	xor    r8d,r8d
    3ab9:	xor    ecx,ecx
    3abb:	xor    edx,edx
    3abd:	lea    edi,[rax+0x1]
    3ac0:	call   31d0 <select@plt>
    3ac5:	cmp    eax,0xffffffff
    3ac8:	mov    ebp,eax
    3aca:	je     3bc0 <main+0x6e0>
    3ad0:	movsxd rdi,DWORD PTR [rbx]
    3ad3:	mov    r15d,0x1
    3ad9:	call   2fc0 <__fdelt_chk@plt>
    3ade:	mov    rsi,rax
    3ae1:	mov    eax,DWORD PTR [rbx]
    3ae3:	cdq    
    3ae4:	idiv   r12d
    3ae7:	xor    eax,eax
    3ae9:	mov    ecx,edx
    3aeb:	shl    r13,cl
    3aee:	test   QWORD PTR [rsp+rsi*8+0xf0],r13
    3af6:	mov    r13d,0x1
    3afc:	setne  al
    3aff:	sub    ebp,eax
    3b01:	jmp    3b07 <main+0x627>
    3b03:	add    r15d,0x1
    3b07:	cmp    r15d,r14d
    3b0a:	jge    3b79 <main+0x699>
    3b0c:	test   ebp,ebp
    3b0e:	je     3b79 <main+0x699>
    3b10:	movsxd rax,r15d
    3b13:	lea    r12,[rbx+rax*4]
    3b17:	movsxd rdi,DWORD PTR [r12]
    3b1b:	call   2fc0 <__fdelt_chk@plt>
    3b20:	mov    esi,DWORD PTR [r12]
    3b24:	mov    rdi,rax
    3b27:	mov    ecx,0x40
    3b2c:	mov    eax,esi
    3b2e:	cdq    
    3b2f:	idiv   ecx
    3b31:	mov    rax,r13
    3b34:	mov    ecx,edx
    3b36:	shl    rax,cl
    3b39:	test   QWORD PTR [rsp+rdi*8+0xf0],rax
    3b41:	je     3b03 <main+0x623>
    3b43:	push   0x100000
    3b48:	push   QWORD PTR [rsp+0x28]
    3b4c:	mov    r9d,DWORD PTR [rsp+0x4c]
    3b51:	mov    r8,QWORD PTR [rsp+0x58]
    3b56:	mov    rcx,QWORD PTR [rsp+0x20]
    3b5b:	mov    rdx,QWORD PTR [rsp+0x18]
    3b60:	mov    rdi,QWORD PTR [rsp+0x40]
    3b65:	call   16730 <nbd_trip>
    3b6a:	test   eax,eax
    3b6c:	pop    rdx
    3b6d:	pop    rcx
    3b6e:	jne    3c01 <main+0x721>
    3b74:	sub    ebp,0x1
    3b77:	jmp    3b03 <main+0x623>
    3b79:	movsxd rdi,DWORD PTR [rbx]
    3b7c:	call   2fc0 <__fdelt_chk@plt>
    3b81:	mov    edi,DWORD PTR [rbx]
    3b83:	mov    r8,rax
    3b86:	mov    esi,0x40
    3b8b:	mov    eax,edi
    3b8d:	cdq    
    3b8e:	idiv   esi
    3b90:	mov    eax,0x1
    3b95:	mov    ecx,edx
    3b97:	shl    rax,cl
    3b9a:	test   QWORD PTR [rsp+r8*8+0xf0],rax
    3ba2:	je     3bab <main+0x6cb>
    3ba4:	cmp    DWORD PTR [rsp+0x40],r14d
    3ba9:	jge    3c21 <main+0x741>
    3bab:	cmp    r14d,0x1
    3baf:	jg     3a63 <main+0x583>
    3bb5:	cmp    DWORD PTR [rsp+0x44],0x0
    3bba:	jne    3a63 <main+0x583>
    3bc0:	mov    rdi,QWORD PTR [rsp+0x20]
    3bc5:	mov    r15,QWORD PTR [rsp+0x30]
    3bca:	xor    r12d,r12d
    3bcd:	call   49c0 <qemu_free>
    3bd2:	mov    edi,DWORD PTR [rbx]
    3bd4:	call   3040 <close@plt>
    3bd9:	mov    rdi,r15
    3bdc:	call   17170 <bdrv_close>
    3be1:	mov    rdi,rbx
    3be4:	call   49c0 <qemu_free>
    3be9:	mov    rdi,QWORD PTR [rsp+0x28]
    3bee:	test   rdi,rdi
    3bf1:	je     3820 <main+0x340>
    3bf7:	call   2e90 <unlink@plt>
    3bfc:	jmp    3820 <main+0x340>
    3c01:	mov    edi,DWORD PTR [r12]
    3c05:	sub    r14d,0x1
    3c09:	sub    r15d,0x1
    3c0d:	call   3040 <close@plt>
    3c12:	movsxd rax,r14d
    3c15:	mov    eax,DWORD PTR [rbx+rax*4]
    3c18:	mov    DWORD PTR [r12],eax
    3c1c:	jmp    3b74 <main+0x694>
    3c21:	mov    rsi,QWORD PTR [rsp+0x58]
    3c26:	movsxd rax,r14d
    3c29:	lea    rdx,[rsp+0x68]
    3c2e:	lea    rbp,[rbx+rax*4]
    3c32:	call   3380 <accept@plt>
    3c37:	cmp    eax,0xffffffff
    3c3a:	mov    DWORD PTR [rbp+0x0],eax
    3c3d:	je     3bab <main+0x6cb>
    3c43:	mov    rsi,QWORD PTR [rsp+0x8]
    3c48:	mov    edi,eax
    3c4a:	call   16160 <nbd_negotiate>
    3c4f:	add    eax,0x1
    3c52:	je     3bab <main+0x6cb>
    3c58:	mov    ecx,DWORD PTR [rsp+0x50]
    3c5c:	mov    eax,DWORD PTR [rbp+0x0]
    3c5f:	cmp    ecx,eax
    3c61:	cmovge eax,ecx
    3c64:	add    r14d,0x1
    3c68:	mov    DWORD PTR [rsp+0x50],eax
    3c6c:	jmp    3bab <main+0x6cb>
    3c71:	mov    esi,DWORD PTR [rbp+0x10]
    3c74:	mov    rdx,QWORD PTR [rsp+0x18]
    3c79:	mov    ecx,0x1
    3c7e:	mov    rdi,r15
    3c81:	call   171e0 <bdrv_read>
    3c86:	test   eax,eax
    3c88:	jne    3eec <main+0xa0c>
    3c8e:	mov    r9,QWORD PTR [rsp+0x20]
    3c93:	xor    ecx,ecx
    3c95:	mov    rdi,rcx
    3c98:	mov    rsi,r9
    3c9b:	shl    rdi,0x4
    3c9f:	add    rdi,QWORD PTR [rsp+0x10]
    3ca4:	call   40d0 <read_partition>
    3ca9:	mov    eax,DWORD PTR [r9+0x14]
    3cad:	test   eax,eax
    3caf:	je     3cc3 <main+0x7e3>
    3cb1:	mov    esi,DWORD PTR [rsp+0x8]
    3cb5:	lea    edx,[rsi+rcx*1+0x1]
    3cb9:	cmp    DWORD PTR [rsp+0x3c],edx
    3cbd:	je     3e84 <main+0x9a4>
    3cc3:	add    rcx,0x1
    3cc7:	add    r9,0x18
    3ccb:	cmp    rcx,0x4
    3ccf:	jne    3c95 <main+0x7b5>
    3cd1:	add    DWORD PTR [rsp+0x8],0x4
    3cd6:	jmp    3949 <main+0x469>
    3cdb:	mov    rdi,r15
    3cde:	call   17170 <bdrv_close>
    3ce3:	mov    rdi,QWORD PTR [rsp+0x28]
    3ce8:	call   160a0 <unix_socket_outgoing>
    3ced:	cmp    eax,0xffffffff
    3cf0:	je     3dbd <main+0x8dd>
    3cf6:	mov    rdi,QWORD PTR [rsp+0x30]
    3cfb:	mov    ebp,eax
    3cfd:	mov    esi,0x2
    3d02:	xor    eax,eax
    3d04:	call   32e0 <open64@plt>
    3d09:	cmp    eax,0xffffffff
    3d0c:	mov    r14d,eax
    3d0f:	je     3db5 <main+0x8d5>
    3d15:	lea    rdx,[rsp+0x88]
    3d1d:	lea    rsi,[rsp+0x80]
    3d25:	mov    edi,ebp
    3d27:	call   16240 <nbd_receive_negotiate>
    3d2c:	add    eax,0x1
    3d2f:	je     3db5 <main+0x8d5>
    3d35:	mov    rcx,QWORD PTR [rsp+0x88]
    3d3d:	mov    rdx,QWORD PTR [rsp+0x80]
    3d45:	mov    esi,ebp
    3d47:	mov    edi,r14d
    3d4a:	call   16360 <nbd_init>
    3d4f:	cmp    eax,0xffffffff
    3d52:	mov    r12d,eax
    3d55:	je     3db5 <main+0x8d5>
    3d57:	movsxd rax,DWORD PTR [rip+0x223782]        # 2274e0 <optind@@GLIBC_2.2.5>
    3d5e:	mov    rdx,QWORD PTR [rsp+0x30]
    3d63:	lea    rsi,[rip+0x18276]        # 1bfe0 <_IO_stdin_used+0x760>
    3d6a:	mov    edi,0x1
    3d6f:	mov    rcx,QWORD PTR [r13+rax*8+0x0]
    3d74:	xor    eax,eax
    3d76:	call   32b0 <__printf_chk@plt>
    3d7b:	call   3460 <fork@plt>
    3d80:	test   eax,eax
    3d82:	je     3eca <main+0x9ea>
    3d88:	mov    edi,r14d
    3d8b:	mov    esi,ebp
    3d8d:	call   16500 <nbd_client>
    3d92:	mov    edi,r14d
    3d95:	call   3040 <close@plt>
    3d9a:	mov    edi,ebx
    3d9c:	mov    esi,0xf
    3da1:	call   31b0 <kill@plt>
    3da6:	mov    rdi,QWORD PTR [rsp+0x28]
    3dab:	call   2e90 <unlink@plt>
    3db0:	jmp    3820 <main+0x340>
    3db5:	mov    r12d,0x1
    3dbb:	jmp    3d9a <main+0x8ba>
    3dbd:	call   2e80 <__errno_location@plt>
    3dc2:	mov    eax,DWORD PTR [rax]
    3dc4:	cmp    eax,0x2
    3dc7:	je     3dd2 <main+0x8f2>
    3dc9:	cmp    eax,0x6f
    3dcc:	jne    3e52 <main+0x972>
    3dd2:	mov    edi,0x1
    3dd7:	call   3440 <sleep@plt>
    3ddc:	jmp    3ce3 <main+0x803>
    3de1:	mov    eax,DWORD PTR [rsp+0x40]
    3de5:	lea    edi,[rax+0x1]
    3de8:	movsxd rdi,edi
    3deb:	shl    rdi,0x2
    3def:	call   49d0 <qemu_malloc>
    3df4:	cmp    QWORD PTR [rsp+0x28],0x0
    3dfa:	mov    rbx,rax
    3dfd:	jne    39f3 <main+0x513>
    3e03:	mov    esi,DWORD PTR [rsp+0x48]
    3e07:	mov    rdi,QWORD PTR [rsp+0x50]
    3e0c:	call   15ea0 <tcp_socket_incoming>
    3e11:	mov    DWORD PTR [rbx],eax
    3e13:	jmp    39ff <main+0x51f>
    3e18:	mov    rdi,QWORD PTR [rsp+0x30]
    3e1d:	lea    rbx,[rsp+0x570]
    3e25:	call   3160 <basename@plt>
    3e2a:	lea    rcx,[rip+0x17b55]        # 1b986 <_IO_stdin_used+0x106>
    3e31:	mov    r8,rax
    3e34:	mov    edx,0x80
    3e39:	mov    esi,0x1
    3e3e:	mov    rdi,rbx
    3e41:	xor    eax,eax
    3e43:	call   34b0 <__sprintf_chk@plt>
    3e48:	mov    QWORD PTR [rsp+0x28],rbx
    3e4d:	jmp    39c8 <main+0x4e8>
    3e52:	xor    r12d,r12d
    3e55:	jmp    3d9a <main+0x8ba>
    3e5a:	call   2f70 <__stack_chk_fail@plt>
    3e5f:	movsxd rdx,r14d
    3e62:	shl    rax,0x9
    3e66:	imul   rdx,rdx,0x18
    3e6a:	mov    QWORD PTR [rsp+0x8],rax
    3e6f:	mov    edx,DWORD PTR [rsp+rdx*1+0xa0]
    3e76:	shl    rdx,0x9
    3e7a:	mov    QWORD PTR [rsp+0x10],rdx
    3e7f:	jmp    399e <main+0x4be>
    3e84:	movsxd rdx,ecx
    3e87:	shl    rax,0x9
    3e8b:	imul   rdx,rdx,0x18
    3e8f:	mov    QWORD PTR [rsp+0x8],rax
    3e94:	mov    edx,DWORD PTR [rsp+rdx*1+0x100]
    3e9b:	shl    rdx,0x9
    3e9f:	mov    QWORD PTR [rsp+0x10],rdx
    3ea4:	jmp    399e <main+0x4be>
    3ea9:	call   2e80 <__errno_location@plt>
    3eae:	mov    DWORD PTR [rax],0xffffffea
    3eb4:	jmp    3962 <main+0x482>
    3eb9:	lea    rsi,[rip+0x17adc]        # 1b99c <_IO_stdin_used+0x11c>
    3ec0:	mov    edi,0xc
    3ec5:	call   2f90 <errx@plt>
    3eca:	mov    rdi,QWORD PTR [rsp+0x30]
    3ecf:	mov    esi,0x2
    3ed4:	call   32e0 <open64@plt>
    3ed9:	cmp    eax,0xffffffff
    3edc:	je     3ee5 <main+0xa05>
    3ede:	mov    edi,eax
    3ee0:	call   3040 <close@plt>
    3ee5:	xor    edi,edi
    3ee7:	call   33c0 <exit@plt>
    3eec:	lea    rsi,[rip+0x17a7f]        # 1b972 <_IO_stdin_used+0xf2>
    3ef3:	mov    edi,0x16
    3ef8:	xor    eax,eax
    3efa:	call   2f90 <errx@plt>
    3eff:	call   2e80 <__errno_location@plt>
    3f04:	movsxd rdx,DWORD PTR [rip+0x2235d5]        # 2274e0 <optind@@GLIBC_2.2.5>
    3f0b:	mov    edi,DWORD PTR [rax]
    3f0d:	lea    rsi,[rip+0x17a3a]        # 1b94e <_IO_stdin_used+0xce>
    3f14:	xor    eax,eax
    3f16:	mov    rdx,QWORD PTR [r13+rdx*8+0x0]
    3f1b:	call   2f90 <errx@plt>
    3f20:	mov    rdx,QWORD PTR [r13+0x0]
    3f24:	lea    rsi,[rip+0x1806d]        # 1bf98 <_IO_stdin_used+0x718>
    3f2b:	mov    edi,0x16
    3f30:	xor    eax,eax
    3f32:	call   2f90 <errx@plt>
    3f37:	mov    rdx,QWORD PTR [rip+0x2235aa]        # 2274e8 <optarg@@GLIBC_2.2.5>
    3f3e:	lea    rsi,[rip+0x17b03]        # 1ba48 <_IO_stdin_used+0x1c8>
    3f45:	mov    edi,0x16
    3f4a:	xor    eax,eax
    3f4c:	call   2f90 <errx@plt>
    3f51:	mov    rdx,QWORD PTR [rip+0x223590]        # 2274e8 <optarg@@GLIBC_2.2.5>
    3f58:	lea    rsi,[rip+0x1793f]        # 1b89e <_IO_stdin_used+0x1e>
    3f5f:	mov    edi,0x16
    3f64:	xor    eax,eax
    3f66:	call   2f90 <errx@plt>
    3f6b:	mov    rdx,QWORD PTR [rip+0x223576]        # 2274e8 <optarg@@GLIBC_2.2.5>
    3f72:	lea    rsi,[rip+0x1793c]        # 1b8b5 <_IO_stdin_used+0x35>
    3f79:	mov    edi,0x16
    3f7e:	xor    eax,eax
    3f80:	call   2f90 <errx@plt>
    3f85:	mov    rdx,QWORD PTR [rip+0x22355c]        # 2274e8 <optarg@@GLIBC_2.2.5>
    3f8c:	lea    rsi,[rip+0x17953]        # 1b8e6 <_IO_stdin_used+0x66>
    3f93:	mov    edi,0x16
    3f98:	xor    eax,eax
    3f9a:	call   2f90 <errx@plt>
    3f9f:	mov    rdx,QWORD PTR [rip+0x223542]        # 2274e8 <optarg@@GLIBC_2.2.5>
    3fa6:	lea    rsi,[rip+0x178df]        # 1b88c <_IO_stdin_used+0xc>
    3fad:	mov    edi,0x16
    3fb2:	xor    eax,eax
    3fb4:	call   2f90 <errx@plt>
    3fb9:	nop    DWORD PTR [rax+0x0]

0000000000003fc0 <_start>:
    3fc0:	xor    ebp,ebp
    3fc2:	mov    r9,rdx
    3fc5:	pop    rsi
    3fc6:	mov    rdx,rsp
    3fc9:	and    rsp,0xfffffffffffffff0
    3fcd:	push   rax
    3fce:	push   rsp
    3fcf:	lea    r8,[rip+0x1789a]        # 1b870 <__libc_csu_fini>
    3fd6:	lea    rcx,[rip+0x17823]        # 1b800 <__libc_csu_init>
    3fdd:	lea    rdi,[rip+0xfffffffffffff4fc]        # 34e0 <main>
    3fe4:	call   QWORD PTR [rip+0x221fe6]        # 225fd0 <__libc_start_main@GLIBC_2.2.5>
    3fea:	hlt    
    3feb:	nop    DWORD PTR [rax+rax*1+0x0]

0000000000003ff0 <deregister_tm_clones>:
    3ff0:	lea    rdi,[rip+0x2234e9]        # 2274e0 <optind@@GLIBC_2.2.5>
    3ff7:	push   rbp
    3ff8:	lea    rax,[rip+0x2234e1]        # 2274e0 <optind@@GLIBC_2.2.5>
    3fff:	cmp    rax,rdi
    4002:	mov    rbp,rsp
    4005:	je     4020 <deregister_tm_clones+0x30>
    4007:	mov    rax,QWORD PTR [rip+0x221fba]        # 225fc8 <_ITM_deregisterTMCloneTable>
    400e:	test   rax,rax
    4011:	je     4020 <deregister_tm_clones+0x30>
    4013:	pop    rbp
    4014:	jmp    rax
    4016:	nop    WORD PTR cs:[rax+rax*1+0x0]
    4020:	pop    rbp
    4021:	ret    
    4022:	nop    DWORD PTR [rax+0x0]
    4026:	nop    WORD PTR cs:[rax+rax*1+0x0]

0000000000004030 <register_tm_clones>:
    4030:	lea    rdi,[rip+0x2234a9]        # 2274e0 <optind@@GLIBC_2.2.5>
    4037:	lea    rsi,[rip+0x2234a2]        # 2274e0 <optind@@GLIBC_2.2.5>
    403e:	push   rbp
    403f:	sub    rsi,rdi
    4042:	mov    rbp,rsp
    4045:	sar    rsi,0x3
    4049:	mov    rax,rsi
    404c:	shr    rax,0x3f
    4050:	add    rsi,rax
    4053:	sar    rsi,1
    4056:	je     4070 <register_tm_clones+0x40>
    4058:	mov    rax,QWORD PTR [rip+0x221f91]        # 225ff0 <_ITM_registerTMCloneTable>
    405f:	test   rax,rax
    4062:	je     4070 <register_tm_clones+0x40>
    4064:	pop    rbp
    4065:	jmp    rax
    4067:	nop    WORD PTR [rax+rax*1+0x0]
    4070:	pop    rbp
    4071:	ret    
    4072:	nop    DWORD PTR [rax+0x0]
    4076:	nop    WORD PTR cs:[rax+rax*1+0x0]

0000000000004080 <__do_global_dtors_aux>:
    4080:	cmp    BYTE PTR [rip+0x223481],0x0        # 227508 <completed.7697>
    4087:	jne    40b8 <__do_global_dtors_aux+0x38>
    4089:	cmp    QWORD PTR [rip+0x221f67],0x0        # 225ff8 <__cxa_finalize@GLIBC_2.2.5>
    4091:	push   rbp
    4092:	mov    rbp,rsp
    4095:	je     40a3 <__do_global_dtors_aux+0x23>
    4097:	mov    rdi,QWORD PTR [rip+0x221f6a]        # 226008 <__dso_handle>
    409e:	call   34d0 <__cxa_finalize@plt>
    40a3:	call   3ff0 <deregister_tm_clones>
    40a8:	mov    BYTE PTR [rip+0x223459],0x1        # 227508 <completed.7697>
    40af:	pop    rbp
    40b0:	ret    
    40b1:	nop    DWORD PTR [rax+0x0]
    40b8:	repz ret 
    40ba:	nop    WORD PTR [rax+rax*1+0x0]

00000000000040c0 <frame_dummy>:
    40c0:	push   rbp
    40c1:	mov    rbp,rsp
    40c4:	pop    rbp
    40c5:	jmp    4030 <register_tm_clones>
    40ca:	nop    WORD PTR [rax+rax*1+0x0]

00000000000040d0 <read_partition>:
    40d0:	movzx  eax,BYTE PTR [rdi]
    40d3:	mov    BYTE PTR [rsi],al
    40d5:	movzx  eax,BYTE PTR [rdi+0x1]
    40d9:	mov    BYTE PTR [rsi+0x1],al
    40dc:	movzx  eax,BYTE PTR [rdi+0x2]
    40e0:	movzx  edx,BYTE PTR [rdi+0x3]
    40e4:	shl    eax,0x2
    40e7:	and    eax,0x300
    40ec:	or     eax,edx
    40ee:	mov    DWORD PTR [rsi+0x4],eax
    40f1:	movzx  eax,BYTE PTR [rdi+0x2]
    40f5:	and    eax,0x3f
    40f8:	mov    BYTE PTR [rsi+0x8],al
    40fb:	movzx  eax,BYTE PTR [rdi+0x4]
    40ff:	mov    BYTE PTR [rsi+0x9],al
    4102:	movzx  eax,BYTE PTR [rdi+0x5]
    4106:	mov    BYTE PTR [rsi+0xa],al
    4109:	movzx  eax,BYTE PTR [rdi+0x7]
    410d:	mov    BYTE PTR [rsi+0xb],al
    4110:	movzx  eax,BYTE PTR [rdi+0x6]
    4114:	and    eax,0x3f
    4117:	mov    BYTE PTR [rsi+0xc],al
    411a:	mov    eax,DWORD PTR [rdi+0x8]
    411d:	mov    DWORD PTR [rsi+0x10],eax
    4120:	mov    eax,DWORD PTR [rdi+0xc]
    4123:	mov    DWORD PTR [rsi+0x14],eax
    4126:	ret    
    4127:	nop    WORD PTR [rax+rax*1+0x0]

0000000000004130 <qemu_service_io>:
    4130:	repz ret 
    4132:	nop    DWORD PTR [rax+0x0]
    4136:	nop    WORD PTR cs:[rax+rax*1+0x0]

0000000000004140 <term_printf>:
    4140:	repz ret 
    4142:	nop    DWORD PTR [rax+0x0]
    4146:	nop    WORD PTR cs:[rax+rax*1+0x0]

0000000000004150 <term_print_filename>:
    4150:	repz ret 
    4152:	nop    DWORD PTR [rax+0x0]
    4156:	nop    WORD PTR cs:[rax+rax*1+0x0]

0000000000004160 <qemu_bh_new>:
    4160:	push   rbp
    4161:	push   rbx
    4162:	mov    rbp,rdi
    4165:	mov    rbx,rsi
    4168:	mov    edi,0x10
    416d:	sub    rsp,0x8
    4171:	call   49d0 <qemu_malloc>
    4176:	mov    QWORD PTR [rax],rbp
    4179:	mov    QWORD PTR [rax+0x8],rbx
    417d:	add    rsp,0x8
    4181:	pop    rbx
    4182:	pop    rbp
    4183:	ret    
    4184:	xchg   ax,ax
    4186:	nop    WORD PTR cs:[rax+rax*1+0x0]

0000000000004190 <qemu_bh_poll>:
    4190:	xor    eax,eax
    4192:	ret    
    4193:	nop    DWORD PTR [rax]
    4196:	nop    WORD PTR cs:[rax+rax*1+0x0]

00000000000041a0 <qemu_bh_schedule>:
    41a0:	mov    rax,rdi
    41a3:	mov    rdi,QWORD PTR [rdi+0x8]
    41a7:	jmp    QWORD PTR [rax]
    41a9:	nop    DWORD PTR [rax+0x0]

00000000000041b0 <qemu_bh_cancel>:
    41b0:	repz ret 
    41b2:	nop    DWORD PTR [rax+0x0]
    41b6:	nop    WORD PTR cs:[rax+rax*1+0x0]

00000000000041c0 <qemu_bh_delete>:
    41c0:	jmp    49c0 <qemu_free>
    41c5:	nop
    41c6:	nop    WORD PTR cs:[rax+rax*1+0x0]

00000000000041d0 <qemu_set_fd_handler2>:
    41d0:	xor    eax,eax
    41d2:	ret    
    41d3:	nop    DWORD PTR [rax]
    41d6:	nop    WORD PTR cs:[rax+rax*1+0x0]

00000000000041e0 <qemu_get_clock>:
    41e0:	sub    rsp,0x28
    41e4:	xor    esi,esi
    41e6:	mov    rdi,rsp
    41e9:	mov    rax,QWORD PTR fs:0x28
    41f2:	mov    QWORD PTR [rsp+0x18],rax
    41f7:	xor    eax,eax
    41f9:	call   2ff0 <gettimeofday@plt>
    41fe:	imul   rax,QWORD PTR [rsp+0x8],0x3e8
    4207:	imul   rcx,QWORD PTR [rsp],0x3b9aca00
    420f:	movabs rdx,0x431bde82d7b634db
    4219:	add    rcx,rax
    421c:	mov    rax,rcx
    421f:	sar    rcx,0x3f
    4223:	imul   rdx
    4226:	sar    rdx,0x12
    422a:	mov    rax,rdx
    422d:	sub    rax,rcx
    4230:	mov    rsi,QWORD PTR [rsp+0x18]
    4235:	xor    rsi,QWORD PTR fs:0x28
    423e:	jne    4245 <qemu_get_clock+0x65>
    4240:	add    rsp,0x28
    4244:	ret    
    4245:	call   2f70 <__stack_chk_fail@plt>
    424a:	nop    WORD PTR [rax+rax*1+0x0]

0000000000004250 <qemu_read>:
    4250:	push   r13
    4252:	push   r12
    4254:	xor    r12d,r12d
    4257:	push   rbp
    4258:	push   rbx
    4259:	mov    r13d,edi
    425c:	mov    rbp,rsi
    425f:	mov    rbx,rdx
    4262:	sub    rsp,0x8
    4266:	test   rdx,rdx
    4269:	je     4290 <qemu_read+0x40>
    426b:	mov    rdx,rbx
    426e:	mov    rsi,rbp
    4271:	mov    edi,r13d
    4274:	call   30a0 <read@plt>
    4279:	test   rax,rax
    427c:	je     42c0 <qemu_read+0x70>
    427e:	js     42a0 <qemu_read+0x50>
    4280:	cmp    rax,rbx
    4283:	ja     42d9 <qemu_read+0x89>
    4285:	add    r12,rax
    4288:	add    rbp,rax
    428b:	sub    rbx,rax
    428e:	jne    426b <qemu_read+0x1b>
    4290:	add    rsp,0x8
    4294:	mov    rax,r12
    4297:	pop    rbx
    4298:	pop    rbp
    4299:	pop    r12
    429b:	pop    r13
    429d:	ret    
    429e:	xchg   ax,ax
    42a0:	call   2e80 <__errno_location@plt>
    42a5:	cmp    DWORD PTR [rax],0x4
    42a8:	je     426b <qemu_read+0x1b>
    42aa:	test   r12,r12
    42ad:	jne    4290 <qemu_read+0x40>
    42af:	mov    r12,0xffffffffffffffff
    42b6:	jmp    4290 <qemu_read+0x40>
    42b8:	nop    DWORD PTR [rax+rax*1+0x0]
    42c0:	call   2e80 <__errno_location@plt>
    42c5:	mov    DWORD PTR [rax],0x0
    42cb:	add    rsp,0x8
    42cf:	mov    rax,r12
    42d2:	pop    rbx
    42d3:	pop    rbp
    42d4:	pop    r12
    42d6:	pop    r13
    42d8:	ret    
    42d9:	lea    rcx,[rip+0x17e70]        # 1c150 <__PRETTY_FUNCTION__.13304>
    42e0:	lea    rsi,[rip+0x17e09]        # 1c0f0 <_IO_stdin_used+0x870>
    42e7:	lea    rdi,[rip+0x17e3f]        # 1c12d <_IO_stdin_used+0x8ad>
    42ee:	mov    edx,0x4b
    42f3:	call   3000 <__assert_fail@plt>
    42f8:	nop    DWORD PTR [rax+rax*1+0x0]

0000000000004300 <qemu_read_ok>:
    4300:	push   rbx
    4301:	mov    rbx,rdx
    4304:	call   4250 <qemu_read>
    4309:	cmp    rax,rbx
    430c:	sete   al
    430f:	movzx  eax,al
    4312:	lea    eax,[rax+rax*1-0x1]
    4316:	pop    rbx
    4317:	ret    
    4318:	nop    DWORD PTR [rax+rax*1+0x0]

0000000000004320 <qemu_write>:
    4320:	push   r13
    4322:	push   r12
    4324:	xor    r12d,r12d
    4327:	push   rbp
    4328:	push   rbx
    4329:	mov    r13d,edi
    432c:	mov    rbp,rsi
    432f:	mov    rbx,rdx
    4332:	sub    rsp,0x8
    4336:	test   rdx,rdx
    4339:	je     4360 <qemu_write+0x40>
    433b:	mov    rdx,rbx
    433e:	mov    rsi,rbp
    4341:	mov    edi,r13d
    4344:	call   2f10 <write@plt>
    4349:	test   rax,rax
    434c:	je     4390 <qemu_write+0x70>
    434e:	js     4370 <qemu_write+0x50>
    4350:	cmp    rax,rbx
    4353:	ja     43a9 <qemu_write+0x89>
    4355:	add    r12,rax
    4358:	add    rbp,rax
    435b:	sub    rbx,rax
    435e:	jne    433b <qemu_write+0x1b>
    4360:	add    rsp,0x8
    4364:	mov    rax,r12
    4367:	pop    rbx
    4368:	pop    rbp
    4369:	pop    r12
    436b:	pop    r13
    436d:	ret    
    436e:	xchg   ax,ax
    4370:	call   2e80 <__errno_location@plt>
    4375:	cmp    DWORD PTR [rax],0x4
    4378:	je     433b <qemu_write+0x1b>
    437a:	test   r12,r12
    437d:	jne    4360 <qemu_write+0x40>
    437f:	mov    r12,0xffffffffffffffff
    4386:	jmp    4360 <qemu_write+0x40>
    4388:	nop    DWORD PTR [rax+rax*1+0x0]
    4390:	call   2e80 <__errno_location@plt>
    4395:	mov    DWORD PTR [rax],0x0
    439b:	add    rsp,0x8
    439f:	mov    rax,r12
    43a2:	pop    rbx
    43a3:	pop    rbp
    43a4:	pop    r12
    43a6:	pop    r13
    43a8:	ret    
    43a9:	lea    rcx,[rip+0x17d90]        # 1c140 <__PRETTY_FUNCTION__.13321>
    43b0:	lea    rsi,[rip+0x17d39]        # 1c0f0 <_IO_stdin_used+0x870>
    43b7:	lea    rdi,[rip+0x17d6f]        # 1c12d <_IO_stdin_used+0x8ad>
    43be:	mov    edx,0x4c
    43c3:	call   3000 <__assert_fail@plt>
    43c8:	nop    DWORD PTR [rax+rax*1+0x0]

00000000000043d0 <qemu_write_ok>:
    43d0:	push   rbx
    43d1:	mov    rbx,rdx
    43d4:	call   4320 <qemu_write>
    43d9:	cmp    rax,rbx
    43dc:	sete   al
    43df:	movzx  eax,al
    43e2:	lea    eax,[rax+rax*1-0x1]
    43e6:	pop    rbx
    43e7:	ret    
    43e8:	nop    DWORD PTR [rax+rax*1+0x0]

00000000000043f0 <qemu_memalign>:
    43f0:	sub    rsp,0x18
    43f4:	mov    rax,rdi
    43f7:	mov    rdx,rsi
    43fa:	mov    rdi,rsp
    43fd:	mov    rsi,rax
    4400:	mov    rcx,QWORD PTR fs:0x28
    4409:	mov    QWORD PTR [rsp+0x8],rcx
    440e:	xor    ecx,ecx
    4410:	call   3410 <posix_memalign@plt>
    4415:	test   eax,eax
    4417:	mov    rdx,QWORD PTR [rsp]
    441b:	je     441f <qemu_memalign+0x2f>
    441d:	xor    edx,edx
    441f:	mov    rcx,QWORD PTR [rsp+0x8]
    4424:	xor    rcx,QWORD PTR fs:0x28
    442d:	mov    rax,rdx
    4430:	jne    4437 <qemu_memalign+0x47>
    4432:	add    rsp,0x18
    4436:	ret    
    4437:	call   2f70 <__stack_chk_fail@plt>
    443c:	nop    DWORD PTR [rax+0x0]

0000000000004440 <qemu_vmalloc>:
    4440:	push   rbx
    4441:	mov    rbx,rdi
    4444:	sub    rsp,0x10
    4448:	mov    rax,QWORD PTR fs:0x28
    4451:	mov    QWORD PTR [rsp+0x8],rax
    4456:	xor    eax,eax
    4458:	call   33b0 <getpagesize@plt>
    445d:	mov    rdx,rbx
    4460:	movsxd rsi,eax
    4463:	mov    rdi,rsp
    4466:	call   3410 <posix_memalign@plt>
    446b:	test   eax,eax
    446d:	mov    rdx,QWORD PTR [rsp]
    4471:	je     4475 <qemu_vmalloc+0x35>
    4473:	xor    edx,edx
    4475:	mov    rcx,QWORD PTR [rsp+0x8]
    447a:	xor    rcx,QWORD PTR fs:0x28
    4483:	mov    rax,rdx
    4486:	jne    448e <qemu_vmalloc+0x4e>
    4488:	add    rsp,0x10
    448c:	pop    rbx
    448d:	ret    
    448e:	call   2f70 <__stack_chk_fail@plt>
    4493:	nop    DWORD PTR [rax]
    4496:	nop    WORD PTR cs:[rax+rax*1+0x0]

00000000000044a0 <qemu_vfree>:
    44a0:	jmp    2e40 <free@plt>
    44a5:	nop
    44a6:	nop    WORD PTR cs:[rax+rax*1+0x0]

00000000000044b0 <qemu_create_pidfile>:
    44b0:	push   r12
    44b2:	push   rbp
    44b3:	mov    edx,0x180
    44b8:	push   rbx
    44b9:	mov    esi,0x42
    44be:	sub    rsp,0x90
    44c5:	mov    rax,QWORD PTR fs:0x28
    44ce:	mov    QWORD PTR [rsp+0x88],rax
    44d6:	xor    eax,eax
    44d8:	call   32e0 <open64@plt>
    44dd:	cmp    eax,0xffffffff
    44e0:	je     4560 <qemu_create_pidfile+0xb0>
    44e2:	xor    edx,edx
    44e4:	mov    esi,0x2
    44e9:	mov    edi,eax
    44eb:	mov    ebp,eax
    44ed:	call   3320 <lockf64@plt>
    44f2:	cmp    eax,0xffffffff
    44f5:	je     4560 <qemu_create_pidfile+0xb0>
    44f7:	call   2f20 <getpid@plt>
    44fc:	mov    r12,rsp
    44ff:	lea    r8,[rip+0x17c34]        # 1c13a <_IO_stdin_used+0x8ba>
    4506:	movsxd r9,eax
    4509:	mov    ecx,0x80
    450e:	mov    edx,0x1
    4513:	mov    esi,0x80
    4518:	mov    rdi,r12
    451b:	xor    eax,eax
    451d:	call   2e30 <__snprintf_chk@plt>
    4522:	movsxd rbx,eax
    4525:	mov    rsi,r12
    4528:	mov    edi,ebp
    452a:	mov    rdx,rbx
    452d:	call   2f10 <write@plt>
    4532:	cmp    rbx,rax
    4535:	setne  al
    4538:	movzx  eax,al
    453b:	neg    eax
    453d:	mov    rcx,QWORD PTR [rsp+0x88]
    4545:	xor    rcx,QWORD PTR fs:0x28
    454e:	jne    4567 <qemu_create_pidfile+0xb7>
    4550:	add    rsp,0x90
    4557:	pop    rbx
    4558:	pop    rbp
    4559:	pop    r12
    455b:	ret    
    455c:	nop    DWORD PTR [rax+0x0]
    4560:	mov    eax,0xffffffff
    4565:	jmp    453d <qemu_create_pidfile+0x8d>
    4567:	call   2f70 <__stack_chk_fail@plt>
    456c:	nop    DWORD PTR [rax+0x0]

0000000000004570 <socket_set_nonblock>:
    4570:	push   rbx
    4571:	mov    esi,0x3
    4576:	mov    ebx,edi
    4578:	xor    eax,eax
    457a:	call   2f00 <fcntl@plt>
    457f:	mov    edi,ebx
    4581:	or     ah,0x8
    4584:	mov    esi,0x4
    4589:	pop    rbx
    458a:	mov    edx,eax
    458c:	xor    eax,eax
    458e:	jmp    2f00 <fcntl@plt>
    4593:	nop    WORD PTR cs:[rax+rax*1+0x0]
    459d:	nop    DWORD PTR [rax]

00000000000045a0 <pstrcpy>:
    45a0:	test   rsi,rsi
    45a3:	je     45db <pstrcpy+0x3b>
    45a5:	movzx  ecx,BYTE PTR [rdx]
    45a8:	lea    rax,[rdx+0x1]
    45ac:	test   cl,cl
    45ae:	je     45d8 <pstrcpy+0x38>
    45b0:	lea    r8,[rdi+rsi*1-0x1]
    45b5:	cmp    rdi,r8
    45b8:	jae    45d8 <pstrcpy+0x38>
    45ba:	add    rdx,rsi
    45bd:	jmp    45c5 <pstrcpy+0x25>
    45bf:	nop
    45c0:	cmp    rax,rdx
    45c3:	je     45d8 <pstrcpy+0x38>
    45c5:	add    rdi,0x1
    45c9:	add    rax,0x1
    45cd:	mov    BYTE PTR [rdi-0x1],cl
    45d0:	movzx  ecx,BYTE PTR [rax-0x1]
    45d4:	test   cl,cl
    45d6:	jne    45c0 <pstrcpy+0x20>
    45d8:	mov    BYTE PTR [rdi],0x0
    45db:	repz ret 
    45dd:	nop    DWORD PTR [rax]

00000000000045e0 <pstrcat>:
    45e0:	push   r12
    45e2:	push   rbp
    45e3:	mov    r12,rdx
    45e6:	push   rbx
    45e7:	mov    rbp,rdi
    45ea:	mov    rbx,rsi
    45ed:	call   2f60 <strlen@plt>
    45f2:	cdqe   
    45f4:	cmp    rax,rbx
    45f7:	jb     4608 <pstrcat+0x28>
    45f9:	mov    rax,rbp
    45fc:	pop    rbx
    45fd:	pop    rbp
    45fe:	pop    r12
    4600:	ret    
    4601:	nop    DWORD PTR [rax+0x0]
    4608:	movzx  edi,BYTE PTR [r12]
    460d:	sub    rbx,0x1
    4611:	add    rax,rbp
    4614:	lea    rcx,[r12+0x1]
    4619:	test   dil,dil
    461c:	je     464a <pstrcat+0x6a>
    461e:	add    rbx,rbp
    4621:	cmp    rax,rbx
    4624:	jae    464a <pstrcat+0x6a>
    4626:	sub    rbx,rax
    4629:	lea    rdx,[rbx+r12*1+0x1]
    462e:	jmp    4635 <pstrcat+0x55>
    4630:	cmp    rdx,rcx
    4633:	je     464a <pstrcat+0x6a>
    4635:	add    rax,0x1
    4639:	add    rcx,0x1
    463d:	mov    BYTE PTR [rax-0x1],dil
    4641:	movzx  edi,BYTE PTR [rcx-0x1]
    4645:	test   dil,dil
    4648:	jne    4630 <pstrcat+0x50>
    464a:	mov    BYTE PTR [rax],0x0
    464d:	mov    rax,rbp
    4650:	pop    rbx
    4651:	pop    rbp
    4652:	pop    r12
    4654:	ret    
    4655:	nop
    4656:	nop    WORD PTR cs:[rax+rax*1+0x0]

0000000000004660 <strstart>:
    4660:	jmp    4674 <strstart+0x14>
    4662:	nop    WORD PTR [rax+rax*1+0x0]
    4668:	cmp    BYTE PTR [rdi],al
    466a:	jne    4690 <strstart+0x30>
    466c:	add    rdi,0x1
    4670:	add    rsi,0x1
    4674:	movzx  eax,BYTE PTR [rsi]
    4677:	test   al,al
    4679:	jne    4668 <strstart+0x8>
    467b:	test   rdx,rdx
    467e:	mov    eax,0x1
    4683:	je     4692 <strstart+0x32>
    4685:	mov    QWORD PTR [rdx],rdi
    4688:	ret    
    4689:	nop    DWORD PTR [rax+0x0]
    4690:	xor    eax,eax
    4692:	repz ret 
    4694:	xchg   ax,ax
    4696:	nop    WORD PTR cs:[rax+rax*1+0x0]

00000000000046a0 <stristart>:
    46a0:	push   r13
    46a2:	push   r12
    46a4:	mov    r13,rdx
    46a7:	push   rbp
    46a8:	push   rbx
    46a9:	mov    r12,rdi
    46ac:	sub    rsp,0x8
    46b0:	movzx  ebx,BYTE PTR [rsi]
    46b3:	test   bl,bl
    46b5:	je     46f8 <stristart+0x58>
    46b7:	mov    rbp,rsi
    46ba:	call   2e00 <__ctype_toupper_loc@plt>
    46bf:	mov    rax,QWORD PTR [rax]
    46c2:	jmp    46d8 <stristart+0x38>
    46c4:	nop    DWORD PTR [rax+0x0]
    46c8:	add    rbp,0x1
    46cc:	movzx  ebx,BYTE PTR [rbp+0x0]
    46d0:	add    r12,0x1
    46d4:	test   bl,bl
    46d6:	je     46f8 <stristart+0x58>
    46d8:	movzx  ecx,BYTE PTR [r12]
    46dd:	mov    edx,DWORD PTR [rax+rbx*4]
    46e0:	cmp    DWORD PTR [rax+rcx*4],edx
    46e3:	je     46c8 <stristart+0x28>
    46e5:	xor    eax,eax
    46e7:	add    rsp,0x8
    46eb:	pop    rbx
    46ec:	pop    rbp
    46ed:	pop    r12
    46ef:	pop    r13
    46f1:	ret    
    46f2:	nop    WORD PTR [rax+rax*1+0x0]
    46f8:	test   r13,r13
    46fb:	mov    eax,0x1
    4700:	je     46e7 <stristart+0x47>
    4702:	mov    QWORD PTR [r13+0x0],r12
    4706:	add    rsp,0x8
    470a:	pop    rbx
    470b:	pop    rbp
    470c:	pop    r12
    470e:	pop    r13
    4710:	ret    
    4711:	nop    DWORD PTR [rax+rax*1+0x0]
    4716:	nop    WORD PTR cs:[rax+rax*1+0x0]

0000000000004720 <mktimegm>:
    4720:	mov    edx,DWORD PTR [rdi+0x10]
    4723:	mov    esi,DWORD PTR [rdi+0x14]
    4726:	mov    ecx,DWORD PTR [rdi+0xc]
    4729:	lea    eax,[rdx+0x1]
    472c:	cmp    eax,0x2
    472f:	jg     47c0 <mktimegm+0xa0>
    4735:	lea    eax,[rdx+0xd]
    4738:	add    esi,0x76b
    473e:	imul   eax,eax,0x99
    4744:	mov    edx,0x66666667
    4749:	lea    r8d,[rax-0x1c9]
    4750:	mov    eax,r8d
    4753:	sar    r8d,0x1f
    4757:	imul   edx
    4759:	mov    eax,esi
    475b:	sar    edx,1
    475d:	sub    edx,r8d
    4760:	add    edx,ecx
    4762:	imul   ecx,esi,0x16d
    4768:	add    edx,ecx
    476a:	lea    ecx,[rsi+0x3]
    476d:	test   esi,esi
    476f:	cmovns ecx,esi
    4772:	sar    esi,0x1f
    4775:	sar    ecx,0x2
    4778:	mov    r9d,esi
    477b:	add    ecx,edx
    477d:	mov    edx,0x51eb851f
    4782:	imul   edx
    4784:	mov    eax,edx
    4786:	sar    edx,0x7
    4789:	sar    eax,0x5
    478c:	sub    edx,esi
    478e:	sub    r9d,eax
    4791:	add    ecx,r9d
    4794:	lea    eax,[rcx+rdx*1-0xafa6d]
    479b:	imul   ecx,DWORD PTR [rdi+0x4],0x3c
    479f:	imul   eax,eax,0x15180
    47a5:	movsxd rdx,eax
    47a8:	imul   eax,DWORD PTR [rdi+0x8],0xe10
    47af:	add    eax,ecx
    47b1:	add    eax,DWORD PTR [rdi]
    47b3:	cdqe   
    47b5:	add    rax,rdx
    47b8:	ret    
    47b9:	nop    DWORD PTR [rax+0x0]
    47c0:	add    esi,0x76c
    47c6:	jmp    473e <mktimegm+0x1e>
    47cb:	nop    DWORD PTR [rax+rax*1+0x0]

00000000000047d0 <qemu_fls>:
    47d0:	xor    eax,eax
    47d2:	test   edi,edi
    47d4:	je     47e3 <qemu_fls+0x13>
    47d6:	bsr    edi,edi
    47d9:	mov    eax,0x20
    47de:	xor    edi,0x1f
    47e1:	sub    eax,edi
    47e3:	repz ret 
    47e5:	nop
    47e6:	nop    WORD PTR cs:[rax+rax*1+0x0]

00000000000047f0 <qemu_iovec_init>:
    47f0:	push   rbp
    47f1:	push   rbx
    47f2:	mov    rbx,rdi
    47f5:	movsxd rdi,esi
    47f8:	sub    rsp,0x8
    47fc:	mov    rbp,rdi
    47ff:	shl    rdi,0x4
    4803:	call   49d0 <qemu_malloc>
    4808:	mov    DWORD PTR [rbx+0xc],ebp
    480b:	mov    QWORD PTR [rbx],rax
    480e:	mov    DWORD PTR [rbx+0x8],0x0
    4815:	mov    QWORD PTR [rbx+0x10],0x0
    481d:	add    rsp,0x8
    4821:	pop    rbx
    4822:	pop    rbp
    4823:	ret    
    4824:	xchg   ax,ax
    4826:	nop    WORD PTR cs:[rax+rax*1+0x0]

0000000000004830 <qemu_iovec_add>:
    4830:	push   rbp
    4831:	push   rbx
    4832:	mov    rbp,rsi
    4835:	mov    rbx,rdi
    4838:	sub    rsp,0x18
    483c:	movsxd rcx,DWORD PTR [rdi+0x8]
    4840:	mov    rax,QWORD PTR [rdi]
    4843:	cmp    ecx,DWORD PTR [rdi+0xc]
    4846:	je     4870 <qemu_iovec_add+0x40>
    4848:	shl    rcx,0x4
    484c:	mov    QWORD PTR [rax+rcx*1],rbp
    4850:	movsxd rax,DWORD PTR [rbx+0x8]
    4854:	shl    rax,0x4
    4858:	add    rax,QWORD PTR [rbx]
    485b:	mov    QWORD PTR [rax+0x8],rdx
    485f:	add    QWORD PTR [rbx+0x10],rdx
    4863:	add    DWORD PTR [rbx+0x8],0x1
    4867:	add    rsp,0x18
    486b:	pop    rbx
    486c:	pop    rbp
    486d:	ret    
    486e:	xchg   ax,ax
    4870:	lea    esi,[rcx+rcx*1+0x1]
    4874:	mov    QWORD PTR [rsp+0x8],rdx
    4879:	mov    DWORD PTR [rdi+0xc],esi
    487c:	movsxd rsi,esi
    487f:	mov    rdi,rax
    4882:	shl    rsi,0x4
    4886:	call   49f0 <qemu_realloc>
    488b:	movsxd rcx,DWORD PTR [rbx+0x8]
    488f:	mov    QWORD PTR [rbx],rax
    4892:	mov    rdx,QWORD PTR [rsp+0x8]
    4897:	jmp    4848 <qemu_iovec_add+0x18>
    4899:	nop    DWORD PTR [rax+0x0]

00000000000048a0 <qemu_iovec_destroy>:
    48a0:	mov    rdi,QWORD PTR [rdi]
    48a3:	jmp    49c0 <qemu_free>
    48a8:	nop    DWORD PTR [rax+rax*1+0x0]

00000000000048b0 <qemu_iovec_reset>:
    48b0:	mov    DWORD PTR [rdi+0x8],0x0
    48b7:	mov    QWORD PTR [rdi+0x10],0x0
    48bf:	ret    

00000000000048c0 <qemu_iovec_to_buffer>:
    48c0:	mov    eax,DWORD PTR [rdi+0x8]
    48c3:	test   eax,eax
    48c5:	jle    4920 <qemu_iovec_to_buffer+0x60>
    48c7:	push   r12
    48c9:	push   rbp
    48ca:	mov    r12,rdi
    48cd:	push   rbx
    48ce:	mov    rax,QWORD PTR [rdi]
    48d1:	mov    rcx,rsi
    48d4:	xor    ebx,ebx
    48d6:	nop    WORD PTR cs:[rax+rax*1+0x0]
    48e0:	mov    rbp,rbx
    48e3:	mov    rdi,rcx
    48e6:	shl    rbp,0x4
    48ea:	add    rax,rbp
    48ed:	mov    rdx,QWORD PTR [rax+0x8]
    48f1:	mov    rsi,QWORD PTR [rax]
    48f4:	call   3190 <memcpy@plt>
    48f9:	mov    rcx,rax
    48fc:	mov    rax,QWORD PTR [r12]
    4900:	lea    edx,[rbx+0x1]
    4903:	add    rbx,0x1
    4907:	add    rcx,QWORD PTR [rax+rbp*1+0x8]
    490c:	cmp    DWORD PTR [r12+0x8],edx
    4911:	jg     48e0 <qemu_iovec_to_buffer+0x20>
    4913:	pop    rbx
    4914:	pop    rbp
    4915:	pop    r12
    4917:	ret    
    4918:	nop    DWORD PTR [rax+rax*1+0x0]
    4920:	repz ret 
    4922:	nop    DWORD PTR [rax+0x0]
    4926:	nop    WORD PTR cs:[rax+rax*1+0x0]

0000000000004930 <qemu_iovec_from_buffer>:
    4930:	mov    eax,DWORD PTR [rdi+0x8]
    4933:	test   eax,eax
    4935:	jle    49a0 <qemu_iovec_from_buffer+0x70>
    4937:	test   rdx,rdx
    493a:	push   r14
    493c:	push   r13
    493e:	push   r12
    4940:	push   rbp
    4941:	push   rbx
    4942:	mov    rbx,rdx
    4945:	je     4991 <qemu_iovec_from_buffer+0x61>
    4947:	mov    r14,rdi
    494a:	mov    r13,rsi
    494d:	xor    r12d,r12d
    4950:	mov    rax,r12
    4953:	mov    rbp,rbx
    4956:	mov    rsi,r13
    4959:	shl    rax,0x4
    495d:	add    rax,QWORD PTR [r14]
    4960:	cmp    QWORD PTR [rax+0x8],rbx
    4964:	mov    rdi,QWORD PTR [rax]
    4967:	cmovbe rbp,QWORD PTR [rax+0x8]
    496c:	mov    rdx,rbp
    496f:	add    r13,rbp
    4972:	call   3190 <memcpy@plt>
    4977:	lea    eax,[r12+0x1]
    497c:	cmp    DWORD PTR [r14+0x8],eax
    4980:	setg   dl
    4983:	sub    rbx,rbp
    4986:	setne  al
    4989:	add    r12,0x1
    498d:	test   dl,al
    498f:	jne    4950 <qemu_iovec_from_buffer+0x20>
    4991:	pop    rbx
    4992:	pop    rbp
    4993:	pop    r12
    4995:	pop    r13
    4997:	pop    r14
    4999:	ret    
    499a:	nop    WORD PTR [rax+rax*1+0x0]
    49a0:	repz ret 
    49a2:	nop    WORD PTR cs:[rax+rax*1+0x0]
    49ac:	nop    DWORD PTR [rax+0x0]

00000000000049b0 <get_mmap_addr>:
    49b0:	xor    eax,eax
    49b2:	ret    
    49b3:	nop    DWORD PTR [rax]
    49b6:	nop    WORD PTR cs:[rax+rax*1+0x0]

00000000000049c0 <qemu_free>:
    49c0:	jmp    2e40 <free@plt>
    49c5:	nop
    49c6:	nop    WORD PTR cs:[rax+rax*1+0x0]

00000000000049d0 <qemu_malloc>:
    49d0:	sub    rsp,0x8
    49d4:	call   3230 <malloc@plt>
    49d9:	test   rax,rax
    49dc:	je     49e3 <qemu_malloc+0x13>
    49de:	add    rsp,0x8
    49e2:	ret    
    49e3:	call   2e70 <abort@plt>
    49e8:	nop    DWORD PTR [rax+rax*1+0x0]

00000000000049f0 <qemu_realloc>:
    49f0:	test   rsi,rsi
    49f3:	je     4a10 <qemu_realloc+0x20>
    49f5:	sub    rsp,0x8
    49f9:	call   3280 <realloc@plt>
    49fe:	test   rax,rax
    4a01:	je     4a17 <qemu_realloc+0x27>
    4a03:	add    rsp,0x8
    4a07:	ret    
    4a08:	nop    DWORD PTR [rax+rax*1+0x0]
    4a10:	xor    esi,esi
    4a12:	jmp    3280 <realloc@plt>
    4a17:	call   2e70 <abort@plt>
    4a1c:	nop    DWORD PTR [rax+0x0]

0000000000004a20 <qemu_mallocz>:
    4a20:	sub    rsp,0x8
    4a24:	mov    esi,0x1
    4a29:	call   30f0 <calloc@plt>
    4a2e:	test   rax,rax
    4a31:	je     4a38 <qemu_mallocz+0x18>
    4a33:	add    rsp,0x8
    4a37:	ret    
    4a38:	call   2e70 <abort@plt>
    4a3d:	nop    DWORD PTR [rax]

0000000000004a40 <qemu_strdup>:
    4a40:	push   rbp
    4a41:	push   rbx
    4a42:	mov    rbp,rdi
    4a45:	sub    rsp,0x8
    4a49:	call   2f60 <strlen@plt>
    4a4e:	lea    rbx,[rax+0x1]
    4a52:	mov    rdi,rbx
    4a55:	call   3230 <malloc@plt>
    4a5a:	test   rax,rax
    4a5d:	je     4a74 <qemu_strdup+0x34>
    4a5f:	mov    rdx,rbx
    4a62:	mov    rsi,rbp
    4a65:	mov    rdi,rax
    4a68:	call   3190 <memcpy@plt>
    4a6d:	add    rsp,0x8
    4a71:	pop    rbx
    4a72:	pop    rbp
    4a73:	ret    
    4a74:	call   2e70 <abort@plt>
    4a79:	nop    DWORD PTR [rax+0x0]

0000000000004a80 <qemu_strndup>:
    4a80:	push   rbp
    4a81:	push   rbx
    4a82:	mov    rdx,rsi
    4a85:	mov    rbx,rsi
    4a88:	xor    esi,esi
    4a8a:	mov    rbp,rdi
    4a8d:	sub    rsp,0x8
    4a91:	call   3090 <memchr@plt>
    4a96:	mov    rdx,rax
    4a99:	sub    rdx,rbp
    4a9c:	test   rax,rax
    4a9f:	cmovne rbx,rdx
    4aa3:	lea    rdi,[rbx+0x1]
    4aa7:	call   3230 <malloc@plt>
    4aac:	test   rax,rax
    4aaf:	je     4ac9 <qemu_strndup+0x49>
    4ab1:	mov    BYTE PTR [rax+rbx*1],0x0
    4ab5:	add    rsp,0x8
    4ab9:	mov    rdx,rbx
    4abc:	mov    rsi,rbp
    4abf:	mov    rdi,rax
    4ac2:	pop    rbx
    4ac3:	pop    rbp
    4ac4:	jmp    3190 <memcpy@plt>
    4ac9:	call   2e70 <abort@plt>
    4ace:	xchg   ax,ax

0000000000004ad0 <cow_is_allocated>:
    4ad0:	mov    rax,QWORD PTR [rdi+0x40]
    4ad4:	mov    r10,rcx
    4ad7:	mov    r9,QWORD PTR [rax+0x8]
    4adb:	test   r9,r9
    4ade:	je     4bc0 <cow_is_allocated+0xf0>
    4ae4:	test   edx,edx
    4ae6:	je     4bc0 <cow_is_allocated+0xf0>
    4aec:	lea    rax,[rsi+0x7]
    4af0:	test   rsi,rsi
    4af3:	mov    rdi,rsi
    4af6:	cmovns rax,rsi
    4afa:	sar    rdi,0x3f
    4afe:	shr    rdi,0x3d
    4b02:	sar    rax,0x3
    4b06:	movzx  eax,BYTE PTR [r9+rax*1]
    4b0b:	lea    rcx,[rsi+rdi*1]
    4b0f:	mov    DWORD PTR [r10],0x1
    4b16:	and    ecx,0x7
    4b19:	sub    rcx,rdi
    4b1c:	sar    eax,cl
    4b1e:	and    eax,0x1
    4b21:	cmp    edx,0x1
    4b24:	jle    4bb4 <cow_is_allocated+0xe4>
    4b2a:	lea    rdi,[rsi+0x8]
    4b2e:	mov    rcx,rsi
    4b31:	add    rcx,0x1
    4b35:	cmovns rdi,rcx
    4b39:	mov    r8,rcx
    4b3c:	sar    rdi,0x3
    4b40:	sar    r8,0x3f
    4b44:	shr    r8,0x3d
    4b48:	movzx  edi,BYTE PTR [r9+rdi*1]
    4b4d:	add    rcx,r8
    4b50:	and    ecx,0x7
    4b53:	sub    rcx,r8
    4b56:	sar    edi,cl
    4b58:	and    edi,0x1
    4b5b:	cmp    eax,edi
    4b5d:	jne    4bb4 <cow_is_allocated+0xe4>
    4b5f:	add    rsi,0x2
    4b63:	mov    r8d,0x2
    4b69:	jmp    4bac <cow_is_allocated+0xdc>
    4b6b:	nop    DWORD PTR [rax+rax*1+0x0]
    4b70:	mov    rcx,rsi
    4b73:	add    r8d,0x1
    4b77:	add    rsi,0x1
    4b7b:	lea    rdi,[rcx+0x7]
    4b7f:	test   rcx,rcx
    4b82:	mov    r11,rcx
    4b85:	cmovns rdi,rcx
    4b89:	sar    r11,0x3f
    4b8d:	sar    rdi,0x3
    4b91:	shr    r11,0x3d
    4b95:	movzx  edi,BYTE PTR [r9+rdi*1]
    4b9a:	add    rcx,r11
    4b9d:	and    ecx,0x7
    4ba0:	sub    rcx,r11
    4ba3:	sar    edi,cl
    4ba5:	and    edi,0x1
    4ba8:	cmp    edi,eax
    4baa:	jne    4bb4 <cow_is_allocated+0xe4>
    4bac:	cmp    r8d,edx
    4baf:	mov    DWORD PTR [r10],r8d
    4bb2:	jne    4b70 <cow_is_allocated+0xa0>
    4bb4:	repz ret 
    4bb6:	nop    WORD PTR cs:[rax+rax*1+0x0]
    4bc0:	mov    DWORD PTR [r10],edx
    4bc3:	xor    eax,eax
    4bc5:	ret    
    4bc6:	nop    WORD PTR cs:[rax+rax*1+0x0]

0000000000004bd0 <cow_close>:
    4bd0:	push   rbx
    4bd1:	mov    rbx,QWORD PTR [rdi+0x40]
    4bd5:	movsxd rsi,DWORD PTR [rbx+0x18]
    4bd9:	mov    rdi,QWORD PTR [rbx+0x10]
    4bdd:	call   3290 <munmap@plt>
    4be2:	mov    edi,DWORD PTR [rbx]
    4be4:	pop    rbx
    4be5:	jmp    3040 <close@plt>
    4bea:	nop    WORD PTR [rax+rax*1+0x0]

0000000000004bf0 <cow_write>:
    4bf0:	push   r14
    4bf2:	push   r13
    4bf4:	mov    r14,rsi
    4bf7:	push   r12
    4bf9:	push   rbp
    4bfa:	shl    rsi,0x9
    4bfe:	push   rbx
    4bff:	mov    rbx,QWORD PTR [rdi+0x40]
    4c03:	mov    ebp,ecx
    4c05:	mov    r13,rdx
    4c08:	xor    edx,edx
    4c0a:	mov    r12d,ebp
    4c0d:	shl    r12d,0x9
    4c11:	add    rsi,QWORD PTR [rbx+0x20]
    4c15:	mov    edi,DWORD PTR [rbx]
    4c17:	call   33f0 <lseek64@plt>
    4c1c:	mov    edi,DWORD PTR [rbx]
    4c1e:	movsxd rdx,r12d
    4c21:	mov    rsi,r13
    4c24:	call   2f10 <write@plt>
    4c29:	cmp    r12d,eax
    4c2c:	jne    4c8a <cow_write+0x9a>
    4c2e:	test   ebp,ebp
    4c30:	jle    4c7f <cow_write+0x8f>
    4c32:	lea    eax,[rbp-0x1]
    4c35:	mov    rsi,r14
    4c38:	mov    edi,0x1
    4c3d:	lea    r8,[r14+rax*1+0x1]
    4c42:	nop    WORD PTR [rax+rax*1+0x0]
    4c48:	lea    rax,[rsi+0x7]
    4c4c:	test   rsi,rsi
    4c4f:	mov    rdx,rsi
    4c52:	cmovns rax,rsi
    4c56:	sar    rdx,0x3f
    4c5a:	shr    rdx,0x3d
    4c5e:	sar    rax,0x3
    4c62:	add    rax,QWORD PTR [rbx+0x8]
    4c66:	lea    rcx,[rsi+rdx*1]
    4c6a:	add    rsi,0x1
    4c6e:	and    ecx,0x7
    4c71:	sub    rcx,rdx
    4c74:	mov    edx,edi
    4c76:	shl    edx,cl
    4c78:	or     BYTE PTR [rax],dl
    4c7a:	cmp    r8,rsi
    4c7d:	jne    4c48 <cow_write+0x58>
    4c7f:	xor    eax,eax
    4c81:	pop    rbx
    4c82:	pop    rbp
    4c83:	pop    r12
    4c85:	pop    r13
    4c87:	pop    r14
    4c89:	ret    
    4c8a:	mov    eax,0xffffffff
    4c8f:	jmp    4c81 <cow_write+0x91>
    4c91:	nop    DWORD PTR [rax+rax*1+0x0]
    4c96:	nop    WORD PTR cs:[rax+rax*1+0x0]

0000000000004ca0 <cow_read>:
    4ca0:	push   r15
    4ca2:	push   r14
    4ca4:	push   r13
    4ca6:	push   r12
    4ca8:	push   rbp
    4ca9:	push   rbx
    4caa:	sub    rsp,0x18
    4cae:	test   ecx,ecx
    4cb0:	mov    rbp,QWORD PTR [rdi+0x40]
    4cb4:	jle    4e68 <cow_read+0x1c8>
    4cba:	mov    r12,rdi
    4cbd:	mov    r14,rsi
    4cc0:	mov    r15,rdx
    4cc3:	mov    r13d,ecx
    4cc6:	jmp    4d13 <cow_read+0x73>
    4cc8:	nop    DWORD PTR [rax+rax*1+0x0]
    4cd0:	mov    rdi,QWORD PTR [r12+0x850]
    4cd8:	mov    ecx,ebx
    4cda:	test   rdi,rdi
    4cdd:	je     4e40 <cow_read+0x1a0>
    4ce3:	mov    rdx,r15
    4ce6:	mov    rsi,r14
    4ce9:	call   171e0 <bdrv_read>
    4cee:	test   eax,eax
    4cf0:	js     4e25 <cow_read+0x185>
    4cf6:	mov    ecx,ebx
    4cf8:	shl    ecx,0x9
    4cfb:	movsxd rcx,ecx
    4cfe:	sub    r13d,ebx
    4d01:	movsxd rbx,ebx
    4d04:	add    r15,rcx
    4d07:	add    r14,rbx
    4d0a:	test   r13d,r13d
    4d0d:	jle    4e68 <cow_read+0x1c8>
    4d13:	mov    rsi,QWORD PTR [rbp+0x8]
    4d17:	mov    ebx,r13d
    4d1a:	test   rsi,rsi
    4d1d:	je     4cd0 <cow_read+0x30>
    4d1f:	lea    rax,[r14+0x7]
    4d23:	test   r14,r14
    4d26:	cmovns rax,r14
    4d2a:	sar    rax,0x3
    4d2e:	movzx  r8d,BYTE PTR [rsi+rax*1]
    4d33:	mov    rax,r14
    4d36:	sar    rax,0x3f
    4d3a:	shr    rax,0x3d
    4d3e:	lea    rcx,[r14+rax*1]
    4d42:	and    ecx,0x7
    4d45:	sub    rcx,rax
    4d48:	sar    r8d,cl
    4d4b:	and    r8d,0x1
    4d4f:	cmp    r13d,0x1
    4d53:	je     4e80 <cow_read+0x1e0>
    4d59:	lea    rdx,[r14+0x8]
    4d5d:	mov    rax,r14
    4d60:	add    rax,0x1
    4d64:	cmovns rdx,rax
    4d68:	sar    rdx,0x3
    4d6c:	movzx  edi,BYTE PTR [rsi+rdx*1]
    4d70:	cqo    
    4d72:	shr    rdx,0x3d
    4d76:	lea    rcx,[rax+rdx*1]
    4d7a:	and    ecx,0x7
    4d7d:	sub    rcx,rdx
    4d80:	sar    edi,cl
    4d82:	and    edi,0x1
    4d85:	cmp    edi,r8d
    4d88:	jne    4e80 <cow_read+0x1e0>
    4d8e:	lea    rdx,[r14+0x2]
    4d92:	mov    ebx,0x1
    4d97:	jmp    4dd7 <cow_read+0x137>
    4d99:	nop    DWORD PTR [rax+0x0]
    4da0:	mov    rcx,rdx
    4da3:	add    rdx,0x1
    4da7:	lea    rax,[rcx+0x7]
    4dab:	test   rcx,rcx
    4dae:	mov    r9,rcx
    4db1:	cmovns rax,rcx
    4db5:	sar    r9,0x3f
    4db9:	sar    rax,0x3
    4dbd:	shr    r9,0x3d
    4dc1:	movzx  eax,BYTE PTR [rsi+rax*1]
    4dc5:	add    rcx,r9
    4dc8:	and    ecx,0x7
    4dcb:	sub    rcx,r9
    4dce:	sar    eax,cl
    4dd0:	and    eax,0x1
    4dd3:	cmp    edi,eax
    4dd5:	jne    4ddf <cow_read+0x13f>
    4dd7:	add    ebx,0x1
    4dda:	cmp    ebx,r13d
    4ddd:	jne    4da0 <cow_read+0x100>
    4ddf:	test   r8d,r8d
    4de2:	je     4cd0 <cow_read+0x30>
    4de8:	mov    rsi,r14
    4deb:	mov    edi,DWORD PTR [rbp+0x0]
    4dee:	xor    edx,edx
    4df0:	shl    rsi,0x9
    4df4:	add    rsi,QWORD PTR [rbp+0x20]
    4df8:	call   33f0 <lseek64@plt>
    4dfd:	mov    ecx,ebx
    4dff:	mov    edi,DWORD PTR [rbp+0x0]
    4e02:	mov    rsi,r15
    4e05:	shl    ecx,0x9
    4e08:	movsxd rcx,ecx
    4e0b:	mov    rdx,rcx
    4e0e:	mov    QWORD PTR [rsp+0x8],rcx
    4e13:	call   4300 <qemu_read_ok>
    4e18:	test   eax,eax
    4e1a:	mov    rcx,QWORD PTR [rsp+0x8]
    4e1f:	jns    4cfe <cow_read+0x5e>
    4e25:	add    rsp,0x18
    4e29:	mov    eax,0xffffffff
    4e2e:	pop    rbx
    4e2f:	pop    rbp
    4e30:	pop    r12
    4e32:	pop    r13
    4e34:	pop    r14
    4e36:	pop    r15
    4e38:	ret    
    4e39:	nop    DWORD PTR [rax+0x0]
    4e40:	shl    ecx,0x9
    4e43:	xor    esi,esi
    4e45:	mov    rdi,r15
    4e48:	movsxd rcx,ecx
    4e4b:	mov    rdx,rcx
    4e4e:	mov    QWORD PTR [rsp+0x8],rcx
    4e53:	call   3020 <memset@plt>
    4e58:	mov    rcx,QWORD PTR [rsp+0x8]
    4e5d:	jmp    4cfe <cow_read+0x5e>
    4e62:	nop    WORD PTR [rax+rax*1+0x0]
    4e68:	add    rsp,0x18
    4e6c:	xor    eax,eax
    4e6e:	pop    rbx
    4e6f:	pop    rbp
    4e70:	pop    r12
    4e72:	pop    r13
    4e74:	pop    r14
    4e76:	pop    r15
    4e78:	ret    
    4e79:	nop    DWORD PTR [rax+0x0]
    4e80:	test   r8d,r8d
    4e83:	mov    ebx,0x1
    4e88:	je     4cd0 <cow_read+0x30>
    4e8e:	jmp    4de8 <cow_read+0x148>
    4e93:	nop    DWORD PTR [rax]
    4e96:	nop    WORD PTR cs:[rax+rax*1+0x0]

0000000000004ea0 <cow_open>:
    4ea0:	push   r13
    4ea2:	push   r12
    4ea4:	mov    r13,rsi
    4ea7:	push   rbp
    4ea8:	push   rbx
    4ea9:	mov    esi,0x2
    4eae:	mov    rbx,rdi
    4eb1:	sub    rsp,0x438
    4eb8:	mov    rbp,QWORD PTR [rdi+0x40]
    4ebc:	mov    rdi,r13
    4ebf:	mov    rax,QWORD PTR fs:0x28
    4ec8:	mov    QWORD PTR [rsp+0x428],rax
    4ed0:	xor    eax,eax
    4ed2:	call   32e0 <open64@plt>
    4ed7:	test   eax,eax
    4ed9:	mov    r12d,eax
    4edc:	js     4fe0 <cow_open+0x140>
    4ee2:	mov    r13,rsp
    4ee5:	mov    DWORD PTR [rbp+0x0],r12d
    4ee9:	mov    edx,0x420
    4eee:	mov    rsi,r13
    4ef1:	mov    edi,r12d
    4ef4:	call   4300 <qemu_read_ok>
    4ef9:	test   eax,eax
    4efb:	js     5000 <cow_open+0x160>
    4f01:	cmp    DWORD PTR [rsp],0x4d4f4f4f
    4f08:	jne    5000 <cow_open+0x160>
    4f0e:	cmp    DWORD PTR [rsp+0x4],0x2000000
    4f16:	jne    5000 <cow_open+0x160>
    4f1c:	mov    rax,QWORD PTR [rsp+0x410]
    4f24:	lea    rdx,[r13+0x8]
    4f28:	lea    rdi,[rbx+0x448]
    4f2f:	mov    esi,0x400
    4f34:	bswap  rax
    4f37:	mov    rcx,rax
    4f3a:	lea    rax,[rax+0x1ff]
    4f41:	test   rcx,rcx
    4f44:	cmovns rax,rcx
    4f48:	sar    rax,0x9
    4f4c:	mov    QWORD PTR [rbx],rax
    4f4f:	call   45a0 <pstrcpy>
    4f54:	mov    rbx,QWORD PTR [rbx]
    4f57:	mov    r13d,DWORD PTR [rbp+0x0]
    4f5b:	add    rbx,0x7
    4f5f:	sar    rbx,0x3
    4f63:	add    ebx,0x420
    4f69:	mov    DWORD PTR [rbp+0x18],ebx
    4f6c:	movsxd rbx,ebx
    4f6f:	mov    rdi,rbx
    4f72:	call   49b0 <get_mmap_addr>
    4f77:	xor    r9d,r9d
    4f7a:	mov    r8d,r13d
    4f7d:	mov    ecx,0x1
    4f82:	mov    edx,0x3
    4f87:	mov    rsi,rbx
    4f8a:	mov    rdi,rax
    4f8d:	call   3200 <mmap64@plt>
    4f92:	cmp    rax,0xffffffffffffffff
    4f96:	mov    QWORD PTR [rbp+0x10],rax
    4f9a:	je     5000 <cow_open+0x160>
    4f9c:	add    rax,0x420
    4fa2:	mov    QWORD PTR [rbp+0x8],rax
    4fa6:	mov    eax,DWORD PTR [rbp+0x18]
    4fa9:	add    eax,0x1ff
    4fae:	and    eax,0xfffffe00
    4fb3:	cdqe   
    4fb5:	mov    QWORD PTR [rbp+0x20],rax
    4fb9:	xor    eax,eax
    4fbb:	mov    rcx,QWORD PTR [rsp+0x428]
    4fc3:	xor    rcx,QWORD PTR fs:0x28
    4fcc:	jne    500f <cow_open+0x16f>
    4fce:	add    rsp,0x438
    4fd5:	pop    rbx
    4fd6:	pop    rbp
    4fd7:	pop    r12
    4fd9:	pop    r13
    4fdb:	ret    
    4fdc:	nop    DWORD PTR [rax+0x0]
    4fe0:	xor    esi,esi
    4fe2:	xor    eax,eax
    4fe4:	mov    rdi,r13
    4fe7:	call   32e0 <open64@plt>
    4fec:	test   eax,eax
    4fee:	mov    r12d,eax
    4ff1:	jns    4ee2 <cow_open+0x42>
    4ff7:	mov    eax,0xffffffff
    4ffc:	jmp    4fbb <cow_open+0x11b>
    4ffe:	xchg   ax,ax
    5000:	mov    edi,r12d
    5003:	call   3040 <close@plt>
    5008:	mov    eax,0xffffffff
    500d:	jmp    4fbb <cow_open+0x11b>
    500f:	call   2f70 <__stack_chk_fail@plt>
    5014:	xchg   ax,ax
    5016:	nop    WORD PTR cs:[rax+rax*1+0x0]

0000000000005020 <cow_flush>:
    5020:	sub    rsp,0x8
    5024:	mov    rax,QWORD PTR [rdi+0x40]
    5028:	mov    edi,DWORD PTR [rax]
    502a:	call   3330 <fsync@plt>
    502f:	test   eax,eax
    5031:	je     503a <cow_flush+0x1a>
    5033:	call   2e80 <__errno_location@plt>
    5038:	mov    eax,DWORD PTR [rax]
    503a:	add    rsp,0x8
    503e:	ret    
    503f:	nop

0000000000005040 <cow_probe>:
    5040:	xor    eax,eax
    5042:	cmp    esi,0x41f
    5048:	ja     5050 <cow_probe+0x10>
    504a:	repz ret 
    504c:	nop    DWORD PTR [rax+0x0]
    5050:	cmp    DWORD PTR [rdi],0x4d4f4f4f
    5056:	jne    504a <cow_probe+0xa>
    5058:	cmp    DWORD PTR [rdi+0x4],0x2000000
    505f:	mov    edx,0x64
    5064:	cmove  eax,edx
    5067:	ret    
    5068:	nop    DWORD PTR [rax+rax*1+0x0]

0000000000005070 <cow_create>:
    5070:	push   r14
    5072:	push   r13
    5074:	push   r12
    5076:	push   rbp
    5077:	push   rbx
    5078:	sub    rsp,0x4c0
    507f:	mov    rax,QWORD PTR fs:0x28
    5088:	mov    QWORD PTR [rsp+0x4b8],rax
    5090:	xor    eax,eax
    5092:	test   ecx,ecx
    5094:	jne    51c0 <cow_create+0x150>
    509a:	mov    rbx,rsi
    509d:	mov    r13,rdx
    50a0:	mov    esi,0x241
    50a5:	mov    edx,0x1a4
    50aa:	call   32e0 <open64@plt>
    50af:	test   eax,eax
    50b1:	mov    ebp,eax
    50b3:	js     51d0 <cow_create+0x160>
    50b9:	lea    r12,[rsp+0x90]
    50c1:	xor    eax,eax
    50c3:	mov    ecx,0x84
    50c8:	test   r13,r13
    50cb:	mov    rdi,r12
    50ce:	rep stos QWORD PTR es:[rdi],rax
    50d1:	movabs rax,0x20000004d4f4f4f
    50db:	mov    QWORD PTR [rsp+0x90],rax
    50e3:	je     510e <cow_create+0x9e>
    50e5:	xor    esi,esi
    50e7:	xor    eax,eax
    50e9:	mov    rdi,r13
    50ec:	call   32e0 <open64@plt>
    50f1:	test   eax,eax
    50f3:	mov    r14d,eax
    50f6:	jns    5180 <cow_create+0x110>
    50fc:	lea    rdi,[r12+0x8]
    5101:	mov    rdx,r13
    5104:	mov    esi,0x400
    5109:	call   45a0 <pstrcpy>
    510e:	mov    rax,rbx
    5111:	mov    edx,0x420
    5116:	mov    rsi,r12
    5119:	shl    rax,0x9
    511d:	mov    edi,ebp
    511f:	mov    DWORD PTR [rsp+0x4a8],0x20000
    512a:	bswap  rax
    512d:	mov    QWORD PTR [rsp+0x4a0],rax
    5135:	call   2f10 <write@plt>
    513a:	lea    rsi,[rbx+0x7]
    513e:	mov    edi,ebp
    5140:	mov    rbx,rsi
    5143:	sar    rbx,0x3
    5147:	lea    rsi,[rbx+0x420]
    514e:	call   32a0 <ftruncate64@plt>
    5153:	mov    edi,ebp
    5155:	call   3040 <close@plt>
    515a:	xor    eax,eax
    515c:	mov    rdx,QWORD PTR [rsp+0x4b8]
    5164:	xor    rdx,QWORD PTR fs:0x28
    516d:	jne    51d7 <cow_create+0x167>
    516f:	add    rsp,0x4c0
    5176:	pop    rbx
    5177:	pop    rbp
    5178:	pop    r12
    517a:	pop    r13
    517c:	pop    r14
    517e:	ret    
    517f:	nop
    5180:	mov    edi,0x1
    5185:	mov    rdx,rsp
    5188:	mov    esi,eax
    518a:	call   3100 <__fxstat64@plt>
    518f:	test   eax,eax
    5191:	mov    edi,r14d
    5194:	je     51a0 <cow_create+0x130>
    5196:	call   3040 <close@plt>
    519b:	jmp    50fc <cow_create+0x8c>
    51a0:	call   3040 <close@plt>
    51a5:	mov    rax,QWORD PTR [rsp+0x58]
    51aa:	bswap  eax
    51ac:	mov    DWORD PTR [rsp+0x498],eax
    51b3:	jmp    50fc <cow_create+0x8c>
    51b8:	nop    DWORD PTR [rax+rax*1+0x0]
    51c0:	mov    eax,0xffffffa1
    51c5:	jmp    515c <cow_create+0xec>
    51c7:	nop    WORD PTR [rax+rax*1+0x0]
    51d0:	mov    eax,0xffffffff
    51d5:	jmp    515c <cow_create+0xec>
    51d7:	call   2f70 <__stack_chk_fail@plt>
    51dc:	nop    DWORD PTR [rax+0x0]

00000000000051e0 <qcow_get_info>:
    51e0:	mov    rax,QWORD PTR [rdi+0x40]
    51e4:	mov    eax,DWORD PTR [rax+0xc]
    51e7:	mov    DWORD PTR [rsi],eax
    51e9:	xor    eax,eax
    51eb:	ret    
    51ec:	nop    DWORD PTR [rax+0x0]

00000000000051f0 <qcow_make_empty>:
    51f0:	push   r12
    51f2:	push   rbp
    51f3:	xor    esi,esi
    51f5:	push   rbx
    51f6:	mov    rbx,QWORD PTR [rdi+0x40]
    51fa:	mov    eax,DWORD PTR [rbx+0x1c]
    51fd:	mov    rdi,QWORD PTR [rbx+0x30]
    5201:	lea    r12d,[rax*8+0x0]
    5209:	mov    rdx,r12
    520c:	call   3020 <memset@plt>
    5211:	mov    rdx,QWORD PTR [rbx+0x30]
    5215:	mov    rsi,QWORD PTR [rbx+0x28]
    5219:	mov    ecx,r12d
    521c:	mov    rdi,QWORD PTR [rbx]
    521f:	call   180f0 <bdrv_pwrite>
    5224:	test   eax,eax
    5226:	js     52b0 <qcow_make_empty+0xc0>
    522c:	mov    rsi,QWORD PTR [rbx+0x28]
    5230:	mov    rdi,QWORD PTR [rbx]
    5233:	add    rsi,r12
    5236:	call   18170 <bdrv_truncate>
    523b:	test   eax,eax
    523d:	js     52a4 <qcow_make_empty+0xb4>
    523f:	mov    edx,DWORD PTR [rbx+0x18]
    5242:	mov    rdi,QWORD PTR [rbx+0x38]
    5246:	xor    esi,esi
    5248:	shl    edx,0x4
    524b:	movsxd rdx,edx
    524e:	shl    rdx,0x3
    5252:	call   3020 <memset@plt>
    5257:	lea    rdi,[rbx+0x48]
    525b:	mov    eax,ebx
    525d:	mov    QWORD PTR [rbx+0x40],0x0
    5265:	pxor   xmm0,xmm0
    5269:	mov    QWORD PTR [rbx+0xb8],0x0
    5274:	and    rdi,0xfffffffffffffff8
    5278:	sub    eax,edi
    527a:	lea    ecx,[rax+0xc0]
    5280:	xor    eax,eax
    5282:	shr    ecx,0x3
    5285:	rep stos QWORD PTR es:[rdi],rax
    5288:	movups XMMWORD PTR [rbx+0xc0],xmm0
    528f:	movups XMMWORD PTR [rbx+0xd0],xmm0
    5296:	movups XMMWORD PTR [rbx+0xe0],xmm0
    529d:	movups XMMWORD PTR [rbx+0xf0],xmm0
    52a4:	pop    rbx
    52a5:	pop    rbp
    52a6:	pop    r12
    52a8:	ret    
    52a9:	nop    DWORD PTR [rax+0x0]
    52b0:	mov    eax,0xffffffff
    52b5:	jmp    52a4 <qcow_make_empty+0xb4>
    52b7:	nop    WORD PTR [rax+rax*1+0x0]

00000000000052c0 <qcow_aio_flush>:
    52c0:	mov    rax,QWORD PTR [rdi+0x40]
    52c4:	mov    rdi,QWORD PTR [rax]
    52c7:	jmp    19530 <bdrv_aio_flush>
    52cc:	nop    DWORD PTR [rax+0x0]

00000000000052d0 <qcow_aio_cancel>:
    52d0:	push   rbx
    52d1:	mov    rbx,rdi
    52d4:	mov    rdi,QWORD PTR [rdi+0x50]
    52d8:	test   rdi,rdi
    52db:	je     52e2 <qcow_aio_cancel+0x12>
    52dd:	call   19520 <bdrv_aio_cancel>
    52e2:	mov    rdi,rbx
    52e5:	pop    rbx
    52e6:	jmp    19850 <qemu_aio_release>
    52eb:	nop    DWORD PTR [rax+rax*1+0x0]

00000000000052f0 <qcow_flush>:
    52f0:	mov    rax,QWORD PTR [rdi+0x40]
    52f4:	mov    rdi,QWORD PTR [rax]
    52f7:	jmp    18700 <bdrv_flush>
    52fc:	nop    DWORD PTR [rax+0x0]

0000000000005300 <qcow_close>:
    5300:	push   rbx
    5301:	mov    rbx,QWORD PTR [rdi+0x40]
    5305:	mov    rdi,QWORD PTR [rbx+0x30]
    5309:	call   49c0 <qemu_free>
    530e:	mov    rdi,QWORD PTR [rbx+0x38]
    5312:	call   49c0 <qemu_free>
    5317:	mov    rdi,QWORD PTR [rbx+0x100]
    531e:	call   49c0 <qemu_free>
    5323:	mov    rdi,QWORD PTR [rbx+0x108]
    532a:	call   49c0 <qemu_free>
    532f:	mov    rdi,QWORD PTR [rbx]
    5332:	pop    rbx
    5333:	jmp    170f0 <bdrv_delete>
    5338:	nop    DWORD PTR [rax+rax*1+0x0]

0000000000005340 <qcow_open>:
    5340:	push   r14
    5342:	push   r13
    5344:	push   r12
    5346:	push   rbp
    5347:	mov    rbp,rdi
    534a:	push   rbx
    534b:	sub    rsp,0x50
    534f:	mov    rbx,QWORD PTR [rdi+0x40]
    5353:	mov    rax,QWORD PTR fs:0x28
    535c:	mov    QWORD PTR [rsp+0x48],rax
    5361:	xor    eax,eax
    5363:	mov    rdi,rbx
    5366:	call   18060 <bdrv_file_open>
    536b:	test   eax,eax
    536d:	mov    r12d,eax
    5370:	js     55cf <qcow_open+0x28f>
    5376:	mov    rdi,QWORD PTR [rbx]
    5379:	lea    rdx,[rsp+0x10]
    537e:	xor    esi,esi
    5380:	mov    ecx,0x30
    5385:	call   17b00 <bdrv_pread>
    538a:	cmp    eax,0x30
    538d:	jne    56e8 <qcow_open+0x3a8>
    5393:	mov    eax,DWORD PTR [rsp+0x10]
    5397:	mov    rcx,QWORD PTR [rsp+0x38]
    539c:	mov    rdx,QWORD PTR [rsp+0x28]
    53a1:	bswap  eax
    53a3:	bswap  rcx
    53a6:	mov    DWORD PTR [rsp+0x10],eax
    53aa:	mov    eax,DWORD PTR [rsp+0x14]
    53ae:	bswap  rdx
    53b1:	mov    QWORD PTR [rsp+0x38],rcx
    53b6:	movabs rcx,0x1514649fb
    53c0:	mov    QWORD PTR [rsp+0x28],rdx
    53c5:	bswap  eax
    53c7:	mov    DWORD PTR [rsp+0x14],eax
    53cb:	mov    rax,QWORD PTR [rsp+0x18]
    53d0:	cmp    QWORD PTR [rsp+0x10],rcx
    53d5:	bswap  rax
    53d8:	mov    QWORD PTR [rsp+0x18],rax
    53dd:	mov    eax,DWORD PTR [rsp+0x20]
    53e1:	bswap  eax
    53e3:	mov    DWORD PTR [rsp+0x20],eax
    53e7:	mov    eax,DWORD PTR [rsp+0x24]
    53eb:	bswap  eax
    53ed:	mov    DWORD PTR [rsp+0x24],eax
    53f1:	mov    eax,DWORD PTR [rsp+0x34]
    53f5:	bswap  eax
    53f7:	mov    DWORD PTR [rsp+0x34],eax
    53fb:	jne    56e8 <qcow_open+0x3a8>
    5401:	cmp    rdx,0x1
    5405:	jbe    56e8 <qcow_open+0x3a8>
    540b:	movzx  ecx,BYTE PTR [rsp+0x30]
    5410:	cmp    cl,0x8
    5413:	jbe    56e8 <qcow_open+0x3a8>
    5419:	cmp    eax,0x1
    541c:	ja     56e8 <qcow_open+0x3a8>
    5422:	test   eax,eax
    5424:	mov    DWORD PTR [rbx+0x11c],eax
    542a:	je     5433 <qcow_open+0xf3>
    542c:	mov    DWORD PTR [rbp+0x14],0x1
    5433:	mov    eax,0x1
    5438:	movzx  edx,cl
    543b:	mov    edi,eax
    543d:	mov    DWORD PTR [rbx+0x8],edx
    5440:	shl    edi,cl
    5442:	lea    ecx,[rdx-0x9]
    5445:	mov    edx,eax
    5447:	mov    DWORD PTR [rbx+0xc],edi
    544a:	shl    edx,cl
    544c:	mov    DWORD PTR [rbx+0x10],edx
    544f:	movzx  ecx,BYTE PTR [rsp+0x31]
    5454:	mov    edx,0x1
    5459:	mov    rdi,rdx
    545c:	shl    eax,cl
    545e:	mov    DWORD PTR [rbx+0x14],ecx
    5461:	mov    ecx,0x3f
    5466:	mov    DWORD PTR [rbx+0x18],eax
    5469:	mov    rsi,QWORD PTR [rsp+0x28]
    546e:	mov    rax,rsi
    5471:	shr    rax,0x9
    5475:	mov    QWORD PTR [rbp+0x0],rax
    5479:	mov    eax,DWORD PTR [rbx+0x8]
    547c:	sub    ecx,eax
    547e:	add    eax,DWORD PTR [rbx+0x14]
    5481:	shl    rdi,cl
    5484:	mov    rcx,rdi
    5487:	sub    rcx,0x1
    548b:	mov    QWORD PTR [rbx+0x20],rcx
    548f:	mov    ecx,eax
    5491:	shl    rdx,cl
    5494:	lea    rdi,[rsi+rdx*1-0x1]
    5499:	shr    rdi,cl
    549c:	mov    DWORD PTR [rbx+0x1c],edi
    549f:	mov    rax,QWORD PTR [rsp+0x38]
    54a4:	movsxd rdi,edi
    54a7:	shl    rdi,0x3
    54ab:	mov    QWORD PTR [rbx+0x28],rax
    54af:	call   49d0 <qemu_malloc>
    54b4:	test   rax,rax
    54b7:	mov    QWORD PTR [rbx+0x30],rax
    54bb:	je     56ec <qcow_open+0x3ac>
    54c1:	mov    edi,DWORD PTR [rbx+0x1c]
    54c4:	mov    rsi,QWORD PTR [rbx+0x28]
    54c8:	mov    rdx,rax
    54cb:	lea    ecx,[rdi*8+0x0]
    54d2:	mov    rdi,QWORD PTR [rbx]
    54d5:	call   17b00 <bdrv_pread>
    54da:	movsxd r12,eax
    54dd:	movsxd rax,DWORD PTR [rbx+0x1c]
    54e1:	mov    r13,r12
    54e4:	mov    rsi,rax
    54e7:	shl    rax,0x3
    54eb:	cmp    r12,rax
    54ee:	jne    56e8 <qcow_open+0x3a8>
    54f4:	cmp    QWORD PTR [rsp+0x18],0x0
    54fa:	jne    5508 <qcow_open+0x1c8>
    54fc:	test   WORD PTR [rbx+0x28],0xfff
    5502:	je     55f8 <qcow_open+0x2b8>
    5508:	xor    ecx,ecx
    550a:	xor    edx,edx
    550c:	test   esi,esi
    550e:	jle    552c <qcow_open+0x1ec>
    5510:	mov    rsi,QWORD PTR [rbx+0x30]
    5514:	add    edx,0x1
    5517:	add    rsi,rcx
    551a:	add    rcx,0x8
    551e:	mov    rax,QWORD PTR [rsi]
    5521:	bswap  rax
    5524:	mov    QWORD PTR [rsi],rax
    5527:	cmp    DWORD PTR [rbx+0x1c],edx
    552a:	jg     5510 <qcow_open+0x1d0>
    552c:	mov    edi,DWORD PTR [rbx+0x18]
    552f:	shl    edi,0x4
    5532:	movsxd rdi,edi
    5535:	shl    rdi,0x3
    5539:	call   49d0 <qemu_malloc>
    553e:	test   rax,rax
    5541:	mov    QWORD PTR [rbx+0x38],rax
    5545:	je     56e8 <qcow_open+0x3a8>
    554b:	movsxd rdi,DWORD PTR [rbx+0xc]
    554f:	call   49d0 <qemu_malloc>
    5554:	test   rax,rax
    5557:	mov    QWORD PTR [rbx+0x100],rax
    555e:	je     56e8 <qcow_open+0x3a8>
    5564:	movsxd rdi,DWORD PTR [rbx+0xc]
    5568:	call   49d0 <qemu_malloc>
    556d:	test   rax,rax
    5570:	mov    QWORD PTR [rbx+0x108],rax
    5577:	je     56e8 <qcow_open+0x3a8>
    557d:	mov    rsi,QWORD PTR [rsp+0x18]
    5582:	xor    r12d,r12d
    5585:	mov    QWORD PTR [rbx+0x110],0xffffffffffffffff
    5590:	test   rsi,rsi
    5593:	je     55cf <qcow_open+0x28f>
    5595:	mov    r13d,DWORD PTR [rsp+0x20]
    559a:	mov    eax,0x3ff
    559f:	mov    rdi,QWORD PTR [rbx]
    55a2:	lea    rdx,[rbp+0x448]
    55a9:	cmp    r13d,0x3ff
    55b0:	cmovg  r13d,eax
    55b4:	mov    ecx,r13d
    55b7:	call   17b00 <bdrv_pread>
    55bc:	cmp    eax,r13d
    55bf:	jne    56e8 <qcow_open+0x3a8>
    55c5:	cdqe   
    55c7:	mov    BYTE PTR [rbp+rax*1+0x448],0x0
    55cf:	mov    rdi,QWORD PTR [rsp+0x48]
    55d4:	xor    rdi,QWORD PTR fs:0x28
    55dd:	mov    eax,r12d
    55e0:	jne    5728 <qcow_open+0x3e8>
    55e6:	add    rsp,0x50
    55ea:	pop    rbx
    55eb:	pop    rbp
    55ec:	pop    r12
    55ee:	pop    r13
    55f0:	pop    r14
    55f2:	ret    
    55f3:	nop    DWORD PTR [rax+rax*1+0x0]
    55f8:	mov    rdi,QWORD PTR [rbx]
    55fb:	mov    r14,rsp
    55fe:	mov    ecx,0x10
    5603:	mov    rdx,r14
    5606:	mov    esi,0x30
    560b:	call   17b00 <bdrv_pread>
    5610:	cmp    eax,0x10
    5613:	je     561d <qcow_open+0x2dd>
    5615:	mov    esi,DWORD PTR [rbx+0x1c]
    5618:	jmp    5508 <qcow_open+0x1c8>
    561d:	mov    eax,DWORD PTR [rsp]
    5620:	bswap  eax
    5622:	cmp    eax,0x58454efb
    5627:	mov    DWORD PTR [rsp],eax
    562a:	jne    5615 <qcow_open+0x2d5>
    562c:	mov    eax,DWORD PTR [rsp+0xc]
    5630:	bswap  eax
    5632:	test   al,0x2
    5634:	mov    DWORD PTR [rsp+0xc],eax
    5638:	jne    5615 <qcow_open+0x2d5>
    563a:	mov    rcx,QWORD PTR [rip+0x221ebf]        # 227500 <stderr@@GLIBC_2.2.5>
    5641:	lea    rdi,[rip+0x16b18]        # 1c160 <__PRETTY_FUNCTION__.13304+0x10>
    5648:	mov    edx,0x2e
    564d:	mov    esi,0x1
    5652:	call   33e0 <fwrite@plt>
    5657:	mov    eax,DWORD PTR [rbx+0x1c]
    565a:	test   eax,eax
    565c:	jle    567e <qcow_open+0x33e>
    565e:	xor    ecx,ecx
    5660:	xor    edx,edx
    5662:	mov    rsi,QWORD PTR [rbx+0x30]
    5666:	add    edx,0x1
    5669:	add    rsi,rcx
    566c:	add    rcx,0x8
    5670:	mov    rax,QWORD PTR [rsi]
    5673:	bswap  rax
    5676:	mov    QWORD PTR [rsi],rax
    5679:	cmp    DWORD PTR [rbx+0x1c],edx
    567c:	jg     5662 <qcow_open+0x322>
    567e:	mov    rdx,QWORD PTR [rbx+0x30]
    5682:	mov    rsi,QWORD PTR [rbx+0x28]
    5686:	mov    ecx,r13d
    5689:	mov    rdi,QWORD PTR [rbx]
    568c:	call   180f0 <bdrv_pwrite>
    5691:	cdqe   
    5693:	cmp    r12,rax
    5696:	jne    572d <qcow_open+0x3ed>
    569c:	mov    eax,DWORD PTR [rsp+0xc]
    56a0:	mov    ecx,0x10
    56a5:	mov    rdx,r14
    56a8:	mov    esi,0x30
    56ad:	or     eax,0x2
    56b0:	bswap  eax
    56b2:	mov    DWORD PTR [rsp+0xc],eax
    56b6:	mov    rdi,QWORD PTR [rbx]
    56b9:	call   180f0 <bdrv_pwrite>
    56be:	cmp    eax,0x10
    56c1:	je     5615 <qcow_open+0x2d5>
    56c7:	mov    rcx,QWORD PTR [rip+0x221e32]        # 227500 <stderr@@GLIBC_2.2.5>
    56ce:	lea    rdi,[rip+0x16ae3]        # 1c1b8 <__PRETTY_FUNCTION__.13304+0x68>
    56d5:	mov    edx,0x26
    56da:	mov    esi,0x1
    56df:	call   33e0 <fwrite@plt>
    56e4:	nop    DWORD PTR [rax+0x0]
    56e8:	mov    rax,QWORD PTR [rbx+0x30]
    56ec:	mov    rdi,rax
    56ef:	mov    r12d,0xffffffff
    56f5:	call   49c0 <qemu_free>
    56fa:	mov    rdi,QWORD PTR [rbx+0x38]
    56fe:	call   49c0 <qemu_free>
    5703:	mov    rdi,QWORD PTR [rbx+0x100]
    570a:	call   49c0 <qemu_free>
    570f:	mov    rdi,QWORD PTR [rbx+0x108]
    5716:	call   49c0 <qemu_free>
    571b:	mov    rdi,QWORD PTR [rbx]
    571e:	call   170f0 <bdrv_delete>
    5723:	jmp    55cf <qcow_open+0x28f>
    5728:	call   2f70 <__stack_chk_fail@plt>
    572d:	mov    rcx,QWORD PTR [rip+0x221dcc]        # 227500 <stderr@@GLIBC_2.2.5>
    5734:	lea    rdi,[rip+0x16a55]        # 1c190 <__PRETTY_FUNCTION__.13304+0x40>
    573b:	mov    edx,0x23
    5740:	mov    esi,0x1
    5745:	call   33e0 <fwrite@plt>
    574a:	jmp    56e8 <qcow_open+0x3a8>
    574c:	nop    DWORD PTR [rax+0x0]

0000000000005750 <encrypt_sectors.isra.1>:
    5750:	push   r15
    5752:	push   r14
    5754:	push   r13
    5756:	push   r12
    5758:	push   rbp
    5759:	push   rbx
    575a:	sub    rsp,0x38
    575e:	mov    rax,QWORD PTR fs:0x28
    5767:	mov    QWORD PTR [rsp+0x28],rax
    576c:	xor    eax,eax
    576e:	test   ecx,ecx
    5770:	jle    57db <encrypt_sectors.isra.1+0x8b>
    5772:	lea    r12d,[rcx-0x1]
    5776:	lea    rbx,[rdi+0x1]
    577a:	lea    rax,[rsp+0x10]
    577f:	mov    rbp,rsi
    5782:	mov    r15,rdx
    5785:	mov    r13d,r8d
    5788:	mov    r14,r9
    578b:	add    r12,rbx
    578e:	mov    QWORD PTR [rsp+0x8],rax
    5793:	jmp    579c <encrypt_sectors.isra.1+0x4c>
    5795:	nop    DWORD PTR [rax]
    5798:	add    rbx,0x1
    579c:	mov    r8,QWORD PTR [rsp+0x8]
    57a1:	mov    QWORD PTR [rsp+0x10],rdi
    57a6:	mov    rsi,rbp
    57a9:	mov    rdi,r15
    57ac:	mov    r9d,r13d
    57af:	mov    rcx,r14
    57b2:	mov    edx,0x200
    57b7:	mov    QWORD PTR [rsp+0x18],0x0
    57c0:	add    r15,0x200
    57c7:	call   77a0 <AES_cbc_encrypt>
    57cc:	add    rbp,0x200
    57d3:	cmp    rbx,r12
    57d6:	mov    rdi,rbx
    57d9:	jne    5798 <encrypt_sectors.isra.1+0x48>
    57db:	mov    rax,QWORD PTR [rsp+0x28]
    57e0:	xor    rax,QWORD PTR fs:0x28
    57e9:	jne    57fa <encrypt_sectors.isra.1+0xaa>
    57eb:	add    rsp,0x38
    57ef:	pop    rbx
    57f0:	pop    rbp
    57f1:	pop    r12
    57f3:	pop    r13
    57f5:	pop    r14
    57f7:	pop    r15
    57f9:	ret    
    57fa:	call   2f70 <__stack_chk_fail@plt>
    57ff:	nop

0000000000005800 <decompress_cluster>:
    5800:	push   r15
    5802:	push   r14
    5804:	push   r13
    5806:	push   r12
    5808:	xor    r12d,r12d
    580b:	push   rbp
    580c:	push   rbx
    580d:	sub    rsp,0x98
    5814:	mov    r13,QWORD PTR [rdi+0x20]
    5818:	mov    rax,QWORD PTR fs:0x28
    5821:	mov    QWORD PTR [rsp+0x88],rax
    5829:	xor    eax,eax
    582b:	and    r13,rsi
    582e:	cmp    QWORD PTR [rdi+0x110],r13
    5835:	je     591a <decompress_cluster+0x11a>
    583b:	mov    eax,DWORD PTR [rdi+0xc]
    583e:	mov    ecx,0x3f
    5843:	sub    ecx,DWORD PTR [rdi+0x8]
    5846:	mov    rdx,QWORD PTR [rdi+0x108]
    584d:	mov    rbx,rdi
    5850:	mov    rdi,QWORD PTR [rdi]
    5853:	mov    r12d,0xffffffff
    5859:	lea    ebp,[rax-0x1]
    585c:	shr    rsi,cl
    585f:	and    ebp,esi
    5861:	mov    rsi,r13
    5864:	mov    ecx,ebp
    5866:	call   17b00 <bdrv_pread>
    586b:	cmp    ebp,eax
    586d:	jne    591a <decompress_cluster+0x11a>
    5873:	mov    eax,DWORD PTR [rbx+0xc]
    5876:	lea    r14,[rsp+0x10]
    587b:	mov    ecx,0xc
    5880:	mov    rdx,QWORD PTR [rbx+0x108]
    5887:	mov    r15,QWORD PTR [rbx+0x100]
    588e:	lea    rdi,[r14+0x10]
    5892:	mov    QWORD PTR [rsp+0x1c],0x0
    589b:	mov    DWORD PTR [rsp+0xc],eax
    589f:	mov    esi,eax
    58a1:	xor    eax,eax
    58a3:	mov    QWORD PTR [r14+0x68],0x0
    58ab:	rep stos QWORD PTR es:[rdi],rax
    58ae:	mov    QWORD PTR [rsp+0x10],rdx
    58b3:	lea    rdx,[rip+0x16925]        # 1c1df <__PRETTY_FUNCTION__.13304+0x8f>
    58ba:	mov    DWORD PTR [rsp+0x30],esi
    58be:	mov    ecx,0x70
    58c3:	mov    esi,0xfffffff4
    58c8:	mov    rdi,r14
    58cb:	mov    DWORD PTR [rsp+0x18],ebp
    58cf:	mov    QWORD PTR [rsp+0x28],r15
    58d4:	call   3350 <inflateInit2_@plt>
    58d9:	test   eax,eax
    58db:	mov    r12d,eax
    58de:	jne    594d <decompress_cluster+0x14d>
    58e0:	mov    rdi,r14
    58e3:	mov    esi,0x4
    58e8:	call   2ec0 <inflate@plt>
    58ed:	mov    rdx,QWORD PTR [rsp+0x28]
    58f2:	mov    rdi,r14
    58f5:	sub    rdx,r15
    58f8:	cmp    DWORD PTR [rsp+0xc],edx
    58fc:	jne    5948 <decompress_cluster+0x148>
    58fe:	cmp    eax,0x1
    5901:	setne  dl
    5904:	cmp    eax,0xfffffffb
    5907:	setne  al
    590a:	test   dl,al
    590c:	jne    5948 <decompress_cluster+0x148>
    590e:	call   31a0 <inflateEnd@plt>
    5913:	mov    QWORD PTR [rbx+0x110],r13
    591a:	mov    rdi,QWORD PTR [rsp+0x88]
    5922:	xor    rdi,QWORD PTR fs:0x28
    592b:	mov    eax,r12d
    592e:	jne    5955 <decompress_cluster+0x155>
    5930:	add    rsp,0x98
    5937:	pop    rbx
    5938:	pop    rbp
    5939:	pop    r12
    593b:	pop    r13
    593d:	pop    r14
    593f:	pop    r15
    5941:	ret    
    5942:	nop    WORD PTR [rax+rax*1+0x0]
    5948:	call   31a0 <inflateEnd@plt>
    594d:	mov    r12d,0xffffffff
    5953:	jmp    591a <decompress_cluster+0x11a>
    5955:	call   2f70 <__stack_chk_fail@plt>
    595a:	nop    WORD PTR [rax+rax*1+0x0]

0000000000005960 <qcow_set_key>:
    5960:	push   r12
    5962:	pxor   xmm0,xmm0
    5966:	push   rbp
    5967:	push   rbx
    5968:	mov    rbp,rsi
    596b:	sub    rsp,0x20
    596f:	mov    r12,QWORD PTR [rdi+0x40]
    5973:	mov    rdi,rsi
    5976:	mov    rax,QWORD PTR fs:0x28
    597f:	mov    QWORD PTR [rsp+0x18],rax
    5984:	xor    eax,eax
    5986:	movaps XMMWORD PTR [rsp],xmm0
    598a:	call   2f60 <strlen@plt>
    598f:	mov    edi,0x10
    5994:	cmp    eax,0x10
    5997:	mov    rbx,rsp
    599a:	cmovle edi,eax
    599d:	test   eax,eax
    599f:	jle    59c0 <qcow_set_key+0x60>
    59a1:	xor    eax,eax
    59a3:	mov    rbx,rsp
    59a6:	nop    WORD PTR cs:[rax+rax*1+0x0]
    59b0:	movzx  ecx,BYTE PTR [rbp+rax*1+0x0]
    59b5:	mov    BYTE PTR [rbx+rax*1],cl
    59b8:	add    rax,0x1
    59bc:	cmp    edi,eax
    59be:	jg     59b0 <qcow_set_key+0x50>
    59c0:	mov    eax,DWORD PTR [r12+0x11c]
    59c8:	lea    rdx,[r12+0x120]
    59d0:	mov    esi,0x80
    59d5:	mov    rdi,rbx
    59d8:	mov    DWORD PTR [r12+0x118],eax
    59e0:	call   6940 <AES_set_encrypt_key>
    59e5:	test   eax,eax
    59e7:	jne    5a21 <qcow_set_key+0xc1>
    59e9:	lea    rdx,[r12+0x214]
    59f1:	mov    esi,0x80
    59f6:	mov    rdi,rbx
    59f9:	call   6d70 <AES_set_decrypt_key>
    59fe:	test   eax,eax
    5a00:	setne  al
    5a03:	movzx  eax,al
    5a06:	neg    eax
    5a08:	mov    rsi,QWORD PTR [rsp+0x18]
    5a0d:	xor    rsi,QWORD PTR fs:0x28
    5a16:	jne    5a28 <qcow_set_key+0xc8>
    5a18:	add    rsp,0x20
    5a1c:	pop    rbx
    5a1d:	pop    rbp
    5a1e:	pop    r12
    5a20:	ret    
    5a21:	mov    eax,0xffffffff
    5a26:	jmp    5a08 <qcow_set_key+0xa8>
    5a28:	call   2f70 <__stack_chk_fail@plt>
    5a2d:	nop    DWORD PTR [rax]

0000000000005a30 <get_cluster_offset.isra.2>:
    5a30:	push   r15
    5a32:	push   r14
    5a34:	mov    r10d,edx
    5a37:	push   r13
    5a39:	push   r12
    5a3b:	mov    r12,rsi
    5a3e:	push   rbp
    5a3f:	push   rbx
    5a40:	mov    rbx,rdi
    5a43:	mov    r13,rsi
    5a46:	mov    r15d,r8d
    5a49:	sub    rsp,0x48
    5a4d:	mov    edi,DWORD PTR [rdi+0x14]
    5a50:	mov    DWORD PTR [rsp+0x10],ecx
    5a54:	mov    ecx,DWORD PTR [rbx+0x8]
    5a57:	mov    rax,QWORD PTR fs:0x28
    5a60:	mov    QWORD PTR [rsp+0x38],rax
    5a65:	xor    eax,eax
    5a67:	mov    rax,QWORD PTR [rbx+0x30]
    5a6b:	mov    DWORD PTR [rsp+0x8],r9d
    5a70:	add    ecx,edi
    5a72:	shr    r12,cl
    5a75:	movsxd r12,r12d
    5a78:	mov    rbp,QWORD PTR [rax+r12*8]
    5a7c:	test   rbp,rbp
    5a7f:	jne    5ab8 <get_cluster_offset.isra.2+0x88>
    5a81:	test   edx,edx
    5a83:	jne    5dd0 <get_cluster_offset.isra.2+0x3a0>
    5a89:	xor    r12d,r12d
    5a8c:	mov    rdi,QWORD PTR [rsp+0x38]
    5a91:	xor    rdi,QWORD PTR fs:0x28
    5a9a:	mov    rax,r12
    5a9d:	jne    5f04 <get_cluster_offset.isra.2+0x4d4>
    5aa3:	add    rsp,0x48
    5aa7:	pop    rbx
    5aa8:	pop    rbp
    5aa9:	pop    r12
    5aab:	pop    r13
    5aad:	pop    r14
    5aaf:	pop    r15
    5ab1:	ret    
    5ab2:	nop    WORD PTR [rax+rax*1+0x0]
    5ab8:	xor    esi,esi
    5aba:	xor    eax,eax
    5abc:	jmp    5ace <get_cluster_offset.isra.2+0x9e>
    5abe:	xchg   ax,ax
    5ac0:	add    rax,0x1
    5ac4:	cmp    rax,0x10
    5ac8:	je     5cb0 <get_cluster_offset.isra.2+0x280>
    5ace:	cmp    QWORD PTR [rbx+rax*8+0x40],rbp
    5ad3:	mov    edx,eax
    5ad5:	jne    5ac0 <get_cluster_offset.isra.2+0x90>
    5ad7:	cdqe   
    5ad9:	lea    rcx,[rbx+rax*4]
    5add:	mov    eax,DWORD PTR [rcx+0xc0]
    5ae3:	add    eax,0x1
    5ae6:	cmp    eax,0xffffffff
    5ae9:	mov    DWORD PTR [rcx+0xc0],eax
    5aef:	je     5e70 <get_cluster_offset.isra.2+0x440>
    5af5:	mov    ecx,edi
    5af7:	mov    rax,QWORD PTR [rbx+0x38]
    5afb:	shl    edx,cl
    5afd:	movsxd rdx,edx
    5b00:	lea    r14,[rax+rdx*8]
    5b04:	mov    edx,DWORD PTR [rbx+0x18]
    5b07:	mov    ecx,DWORD PTR [rbx+0x8]
    5b0a:	mov    rsi,r13
    5b0d:	sub    edx,0x1
    5b10:	shr    rsi,cl
    5b13:	and    edx,esi
    5b15:	movsxd rsi,edx
    5b18:	lea    r11,[rsi*8+0x0]
    5b20:	add    r14,r11
    5b23:	mov    r12,QWORD PTR [r14]
    5b26:	bswap  r12
    5b29:	test   r12,r12
    5b2c:	je     5d48 <get_cluster_offset.isra.2+0x318>
    5b32:	test   r12,r12
    5b35:	jns    5a8c <get_cluster_offset.isra.2+0x5c>
    5b3b:	cmp    r10d,0x1
    5b3f:	jne    5a8c <get_cluster_offset.isra.2+0x5c>
    5b45:	mov    eax,DWORD PTR [rsp+0x8]
    5b49:	sub    eax,r15d
    5b4c:	cmp    eax,DWORD PTR [rbx+0x10]
    5b4f:	jl     5e90 <get_cluster_offset.isra.2+0x460>
    5b55:	mov    rdi,QWORD PTR [rbx]
    5b58:	mov    QWORD PTR [rsp+0x10],r11
    5b5d:	call   181a0 <bdrv_getlength>
    5b62:	mov    r11,QWORD PTR [rsp+0x10]
    5b67:	movsxd rcx,DWORD PTR [rbx+0xc]
    5b6b:	mov    rdi,QWORD PTR [rbx]
    5b6e:	mov    QWORD PTR [rsp+0x10],r11
    5b73:	mov    rdx,rcx
    5b76:	lea    rax,[rax+rcx*1-0x1]
    5b7b:	neg    edx
    5b7d:	movsxd r12,edx
    5b80:	and    r12,rax
    5b83:	lea    rsi,[rcx+r12*1]
    5b87:	call   18170 <bdrv_truncate>
    5b8c:	mov    edx,DWORD PTR [rbx+0x118]
    5b92:	mov    r11,QWORD PTR [rsp+0x10]
    5b97:	test   edx,edx
    5b99:	je     5d9d <get_cluster_offset.isra.2+0x36d>
    5b9f:	mov    eax,DWORD PTR [rsp+0x8]
    5ba3:	sub    eax,r15d
    5ba6:	cmp    eax,DWORD PTR [rbx+0x10]
    5ba9:	jge    5d9d <get_cluster_offset.isra.2+0x36d>
    5baf:	mov    rax,QWORD PTR [rbx+0x108]
    5bb6:	mov    r10d,DWORD PTR [rbx+0xc]
    5bba:	lea    rdi,[rax+0x208]
    5bc1:	mov    QWORD PTR [rax+0x200],0x0
    5bcc:	mov    QWORD PTR [rax+0x3f8],0x0
    5bd7:	neg    r10d
    5bda:	and    rdi,0xfffffffffffffff8
    5bde:	movsxd r10,r10d
    5be1:	sub    eax,edi
    5be3:	and    r10,r13
    5be6:	lea    ecx,[rax+0x400]
    5bec:	xor    eax,eax
    5bee:	shr    r10,0x9
    5bf2:	shr    ecx,0x3
    5bf5:	rep stos QWORD PTR es:[rdi],rax
    5bf8:	mov    eax,DWORD PTR [rbx+0x10]
    5bfb:	test   eax,eax
    5bfd:	jle    5d9d <get_cluster_offset.isra.2+0x36d>
    5c03:	lea    rax,[rbx+0x120]
    5c0a:	mov    QWORD PTR [rsp+0x18],rbp
    5c0f:	mov    QWORD PTR [rsp+0x28],r14
    5c14:	mov    rbp,rbx
    5c17:	mov    r14d,r15d
    5c1a:	xor    r13d,r13d
    5c1d:	mov    QWORD PTR [rsp+0x10],rax
    5c22:	mov    QWORD PTR [rsp+0x20],r11
    5c27:	mov    rbx,r10
    5c2a:	mov    r15d,DWORD PTR [rsp+0x8]
    5c2f:	jmp    5c48 <get_cluster_offset.isra.2+0x218>
    5c31:	cmp    r13d,r15d
    5c34:	jge    5c4d <get_cluster_offset.isra.2+0x21d>
    5c36:	add    r13d,0x1
    5c3a:	add    rbx,0x1
    5c3e:	cmp    r13d,DWORD PTR [rbp+0x10]
    5c42:	jge    5eed <get_cluster_offset.isra.2+0x4bd>
    5c48:	cmp    r13d,r14d
    5c4b:	jge    5c31 <get_cluster_offset.isra.2+0x201>
    5c4d:	mov    rsi,QWORD PTR [rbp+0x108]
    5c54:	mov    r9,QWORD PTR [rsp+0x10]
    5c59:	mov    r8d,0x1
    5c5f:	mov    ecx,0x1
    5c64:	mov    rdi,rbx
    5c67:	lea    rdx,[rsi+0x200]
    5c6e:	call   5750 <encrypt_sectors.isra.1>
    5c73:	mov    esi,r13d
    5c76:	mov    rdx,QWORD PTR [rbp+0x108]
    5c7d:	mov    rdi,QWORD PTR [rbp+0x0]
    5c81:	shl    esi,0x9
    5c84:	mov    ecx,0x200
    5c89:	movsxd rsi,esi
    5c8c:	add    rsi,r12
    5c8f:	call   180f0 <bdrv_pwrite>
    5c94:	cmp    eax,0x200
    5c99:	je     5c36 <get_cluster_offset.isra.2+0x206>
    5c9b:	mov    r12,0xffffffffffffffff
    5ca2:	jmp    5a8c <get_cluster_offset.isra.2+0x5c>
    5ca7:	nop    WORD PTR [rax+rax*1+0x0]
    5cb0:	xor    eax,eax
    5cb2:	xor    r12d,r12d
    5cb5:	mov    ecx,0xffffffff
    5cba:	nop    WORD PTR [rax+rax*1+0x0]
    5cc0:	mov    edx,DWORD PTR [rbx+rax*4+0xc0]
    5cc7:	cmp    edx,ecx
    5cc9:	jae    5cd0 <get_cluster_offset.isra.2+0x2a0>
    5ccb:	mov    ecx,edx
    5ccd:	movsxd r12,eax
    5cd0:	add    rax,0x1
    5cd4:	cmp    rax,0x10
    5cd8:	jne    5cc0 <get_cluster_offset.isra.2+0x290>
    5cda:	mov    ecx,edi
    5cdc:	mov    rdx,QWORD PTR [rbx+0x38]
    5ce0:	mov    eax,r12d
    5ce3:	shl    eax,cl
    5ce5:	test   esi,esi
    5ce7:	mov    DWORD PTR [rsp+0x18],r10d
    5cec:	cdqe   
    5cee:	lea    r14,[rdx+rax*8]
    5cf2:	movsxd rdx,DWORD PTR [rbx+0x18]
    5cf6:	mov    rcx,rdx
    5cf9:	jne    5e40 <get_cluster_offset.isra.2+0x410>
    5cff:	mov    rdi,QWORD PTR [rbx]
    5d02:	shl    ecx,0x3
    5d05:	mov    rdx,r14
    5d08:	mov    rsi,rbp
    5d0b:	call   17b00 <bdrv_pread>
    5d10:	movsxd rcx,DWORD PTR [rbx+0x18]
    5d14:	cdqe   
    5d16:	mov    r10d,DWORD PTR [rsp+0x18]
    5d1b:	mov    rdx,rcx
    5d1e:	shl    rcx,0x3
    5d22:	cmp    rax,rcx
    5d25:	jne    5a89 <get_cluster_offset.isra.2+0x59>
    5d2b:	mov    QWORD PTR [rbx+r12*8+0x40],rbp
    5d30:	mov    DWORD PTR [rbx+r12*4+0xc0],0x1
    5d3c:	jmp    5b07 <get_cluster_offset.isra.2+0xd7>
    5d41:	nop    DWORD PTR [rax+0x0]
    5d48:	test   r10d,r10d
    5d4b:	je     5a89 <get_cluster_offset.isra.2+0x59>
    5d51:	mov    rdi,QWORD PTR [rbx]
    5d54:	mov    DWORD PTR [rsp+0x20],r10d
    5d59:	mov    QWORD PTR [rsp+0x18],r11
    5d5e:	call   181a0 <bdrv_getlength>
    5d63:	mov    r10d,DWORD PTR [rsp+0x20]
    5d68:	mov    r12,rax
    5d6b:	mov    r11,QWORD PTR [rsp+0x18]
    5d70:	cmp    r10d,0x1
    5d74:	je     5b67 <get_cluster_offset.isra.2+0x137>
    5d7a:	movsxd rax,DWORD PTR [rsp+0x10]
    5d7f:	mov    ecx,0x3f
    5d84:	sub    ecx,DWORD PTR [rbx+0x8]
    5d87:	shl    rax,cl
    5d8a:	mov    rdx,rax
    5d8d:	movabs rax,0x8000000000000000
    5d97:	or     rax,rdx
    5d9a:	or     r12,rax
    5d9d:	mov    rax,r12
    5da0:	lea    rdx,[rsp+0x30]
    5da5:	lea    rsi,[rbp+r11*1+0x0]
    5daa:	bswap  rax
    5dad:	mov    ecx,0x8
    5db2:	mov    QWORD PTR [rsp+0x30],rax
    5db7:	mov    QWORD PTR [r14],rax
    5dba:	mov    rdi,QWORD PTR [rbx]
    5dbd:	call   180f0 <bdrv_pwrite>
    5dc2:	cmp    eax,0x8
    5dc5:	jne    5a89 <get_cluster_offset.isra.2+0x59>
    5dcb:	jmp    5a8c <get_cluster_offset.isra.2+0x5c>
    5dd0:	mov    rdi,QWORD PTR [rbx]
    5dd3:	mov    DWORD PTR [rsp+0x18],edx
    5dd7:	lea    r14,[r12*8+0x0]
    5ddf:	call   181a0 <bdrv_getlength>
    5de4:	movsxd rcx,DWORD PTR [rbx+0xc]
    5de8:	mov    rdx,rcx
    5deb:	lea    rsi,[rax+rcx*1-0x1]
    5df0:	mov    rax,QWORD PTR [rbx+0x30]
    5df4:	neg    edx
    5df6:	mov    ecx,0x8
    5dfb:	movsxd rbp,edx
    5dfe:	lea    rdx,[rsp+0x30]
    5e03:	and    rbp,rsi
    5e06:	mov    QWORD PTR [rax+r12*8],rbp
    5e0a:	mov    rsi,QWORD PTR [rbx+0x28]
    5e0e:	mov    rax,rbp
    5e11:	mov    rdi,QWORD PTR [rbx]
    5e14:	bswap  rax
    5e17:	mov    QWORD PTR [rsp+0x30],rax
    5e1c:	add    rsi,r14
    5e1f:	call   180f0 <bdrv_pwrite>
    5e24:	cmp    eax,0x8
    5e27:	mov    r10d,DWORD PTR [rsp+0x18]
    5e2c:	jne    5a89 <get_cluster_offset.isra.2+0x59>
    5e32:	mov    edi,DWORD PTR [rbx+0x14]
    5e35:	mov    esi,0x1
    5e3a:	jmp    5aba <get_cluster_offset.isra.2+0x8a>
    5e3f:	nop
    5e40:	shl    rdx,0x3
    5e44:	xor    esi,esi
    5e46:	mov    rdi,r14
    5e49:	call   3020 <memset@plt>
    5e4e:	mov    eax,DWORD PTR [rbx+0x18]
    5e51:	mov    rdi,QWORD PTR [rbx]
    5e54:	mov    rdx,r14
    5e57:	mov    rsi,rbp
    5e5a:	lea    ecx,[rax*8+0x0]
    5e61:	call   180f0 <bdrv_pwrite>
    5e66:	jmp    5d10 <get_cluster_offset.isra.2+0x2e0>
    5e6b:	nop    DWORD PTR [rax+rax*1+0x0]
    5e70:	lea    rax,[rbx+0xc0]
    5e77:	lea    rcx,[rbx+0x100]
    5e7e:	xchg   ax,ax
    5e80:	shr    DWORD PTR [rax],1
    5e82:	add    rax,0x4
    5e86:	cmp    rcx,rax
    5e89:	jne    5e80 <get_cluster_offset.isra.2+0x450>
    5e8b:	jmp    5af5 <get_cluster_offset.isra.2+0xc5>
    5e90:	mov    rsi,r12
    5e93:	mov    rdi,rbx
    5e96:	mov    QWORD PTR [rsp+0x8],r11
    5e9b:	call   5800 <decompress_cluster>
    5ea0:	test   eax,eax
    5ea2:	js     5a89 <get_cluster_offset.isra.2+0x59>
    5ea8:	mov    rdi,QWORD PTR [rbx]
    5eab:	call   181a0 <bdrv_getlength>
    5eb0:	movsxd rdx,DWORD PTR [rbx+0xc]
    5eb4:	mov    rdi,QWORD PTR [rbx]
    5eb7:	mov    r12d,edx
    5eba:	lea    rax,[rax+rdx*1-0x1]
    5ebf:	mov    rcx,rdx
    5ec2:	neg    r12d
    5ec5:	mov    rdx,QWORD PTR [rbx+0x100]
    5ecc:	movsxd r12,r12d
    5ecf:	and    r12,rax
    5ed2:	mov    rsi,r12
    5ed5:	call   180f0 <bdrv_pwrite>
    5eda:	cmp    eax,DWORD PTR [rbx+0xc]
    5edd:	mov    r11,QWORD PTR [rsp+0x8]
    5ee2:	je     5d9d <get_cluster_offset.isra.2+0x36d>
    5ee8:	jmp    5c9b <get_cluster_offset.isra.2+0x26b>
    5eed:	mov    rbx,rbp
    5ef0:	mov    r11,QWORD PTR [rsp+0x20]
    5ef5:	mov    r14,QWORD PTR [rsp+0x28]
    5efa:	mov    rbp,QWORD PTR [rsp+0x18]
    5eff:	jmp    5d9d <get_cluster_offset.isra.2+0x36d>
    5f04:	call   2f70 <__stack_chk_fail@plt>
    5f09:	nop    DWORD PTR [rax+0x0]

0000000000005f10 <qcow_write_compressed>:
    5f10:	push   r15
    5f12:	push   r14
    5f14:	push   r13
    5f16:	push   r12
    5f18:	mov    r13,rdx
    5f1b:	push   rbp
    5f1c:	push   rbx
    5f1d:	sub    rsp,0xb8
    5f24:	mov    rbp,QWORD PTR [rdi+0x40]
    5f28:	mov    rdx,QWORD PTR fs:0x28
    5f31:	mov    QWORD PTR [rsp+0xa8],rdx
    5f39:	xor    edx,edx
    5f3b:	mov    QWORD PTR [rsp+0x10],rdi
    5f40:	mov    DWORD PTR [rsp+0x24],0xffffffea
    5f48:	cmp    DWORD PTR [rbp+0x10],ecx
    5f4b:	jne    6142 <qcow_write_compressed+0x232>
    5f51:	mov    ecx,DWORD PTR [rbp+0xc]
    5f54:	mov    edx,0x10624dd3
    5f59:	mov    r12,rsi
    5f5c:	mov    eax,ecx
    5f5e:	imul   edx
    5f60:	mov    eax,ecx
    5f62:	sar    eax,0x1f
    5f65:	sar    edx,0x6
    5f68:	sub    edx,eax
    5f6a:	lea    edi,[rcx+rdx*1+0x80]
    5f71:	movsxd rdi,edi
    5f74:	call   49d0 <qemu_malloc>
    5f79:	test   rax,rax
    5f7c:	mov    QWORD PTR [rsp+0x18],rax
    5f81:	je     6214 <qcow_write_compressed+0x304>
    5f87:	lea    rbx,[rsp+0x30]
    5f8c:	xor    eax,eax
    5f8e:	mov    ecx,0xe
    5f93:	xor    r9d,r9d
    5f96:	mov    esi,0xffffffff
    5f9b:	mov    r8d,0x9
    5fa1:	mov    rdi,rbx
    5fa4:	mov    edx,0x8
    5fa9:	rep stos QWORD PTR es:[rdi],rax
    5fac:	lea    rax,[rip+0x1622c]        # 1c1df <__PRETTY_FUNCTION__.13304+0x8f>
    5fb3:	push   0x70
    5fb5:	mov    ecx,0xfffffff4
    5fba:	mov    rdi,rbx
    5fbd:	push   rax
    5fbe:	call   3080 <deflateInit2_@plt>
    5fc3:	test   eax,eax
    5fc5:	mov    DWORD PTR [rsp+0x34],eax
    5fc9:	pop    rcx
    5fca:	pop    rsi
    5fcb:	jne    61de <qcow_write_compressed+0x2ce>
    5fd1:	mov    eax,DWORD PTR [rbp+0xc]
    5fd4:	mov    esi,0x4
    5fd9:	mov    rdi,rbx
    5fdc:	mov    QWORD PTR [rsp+0x30],r13
    5fe1:	mov    DWORD PTR [rsp+0x38],eax
    5fe5:	mov    DWORD PTR [rsp+0x50],eax
    5fe9:	mov    rax,QWORD PTR [rsp+0x18]
    5fee:	mov    QWORD PTR [rsp+0x48],rax
    5ff3:	call   3010 <deflate@plt>
    5ff8:	cmp    eax,0x1
    5ffb:	mov    r15d,eax
    5ffe:	ja     61f5 <qcow_write_compressed+0x2e5>
    6004:	mov    rdi,rbx
    6007:	mov    r14,QWORD PTR [rsp+0x48]
    600c:	call   3270 <deflateEnd@plt>
    6011:	cmp    r15d,0x1
    6015:	jne    6170 <qcow_write_compressed+0x260>
    601b:	sub    r14,QWORD PTR [rsp+0x18]
    6020:	mov    rax,QWORD PTR [rsp+0x10]
    6025:	cmp    DWORD PTR [rbp+0xc],r14d
    6029:	mov    r15,QWORD PTR [rax+0x40]
    602d:	jg     61a0 <qcow_write_compressed+0x290>
    6033:	mov    r14d,DWORD PTR [rbp+0x10]
    6037:	test   r14d,r14d
    603a:	jle    6180 <qcow_write_compressed+0x270>
    6040:	lea    rax,[r15+0x120]
    6047:	mov    rdi,r15
    604a:	mov    QWORD PTR [rsp+0x28],rax
    604f:	jmp    60bd <qcow_write_compressed+0x1ad>
    6051:	nop    DWORD PTR [rax+0x0]
    6058:	mov    rsi,QWORD PTR [r15+0x108]
    605f:	mov    r9,QWORD PTR [rsp+0x28]
    6064:	mov    r8d,0x1
    606a:	mov    ecx,ebx
    606c:	mov    rdx,r13
    606f:	mov    rdi,r12
    6072:	mov    QWORD PTR [rsp+0x8],rax
    6077:	call   5750 <encrypt_sectors.isra.1>
    607c:	mov    rax,QWORD PTR [rsp+0x8]
    6081:	mov    rdx,QWORD PTR [r15+0x108]
    6088:	mov    ecx,ebp
    608a:	mov    rdi,QWORD PTR [r15]
    608d:	mov    rsi,rax
    6090:	call   180f0 <bdrv_pwrite>
    6095:	cmp    eax,ebp
    6097:	jne    6138 <qcow_write_compressed+0x228>
    609d:	sub    r14d,ebx
    60a0:	cdqe   
    60a2:	movsxd rbx,ebx
    60a5:	add    r12,rbx
    60a8:	add    r13,rax
    60ab:	test   r14d,r14d
    60ae:	jle    6180 <qcow_write_compressed+0x270>
    60b4:	mov    rax,QWORD PTR [rsp+0x10]
    60b9:	mov    rdi,QWORD PTR [rax+0x40]
    60bd:	mov    ebx,DWORD PTR [r15+0x10]
    60c1:	mov    rsi,r12
    60c4:	mov    edx,0x1
    60c9:	lea    r10d,[rbx-0x1]
    60cd:	and    r10d,r12d
    60d0:	sub    ebx,r10d
    60d3:	mov    r8d,r10d
    60d6:	mov    DWORD PTR [rsp+0x8],r10d
    60db:	cmp    ebx,r14d
    60de:	cmovg  ebx,r14d
    60e2:	shl    rsi,0x9
    60e6:	xor    ecx,ecx
    60e8:	lea    r9d,[r10+rbx*1]
    60ec:	call   5a30 <get_cluster_offset.isra.2>
    60f1:	test   rax,rax
    60f4:	je     6138 <qcow_write_compressed+0x228>
    60f6:	mov    r10d,DWORD PTR [rsp+0x8]
    60fb:	mov    edx,DWORD PTR [r15+0x118]
    6102:	mov    ebp,ebx
    6104:	shl    ebp,0x9
    6107:	shl    r10d,0x9
    610b:	movsxd r10,r10d
    610e:	add    rax,r10
    6111:	test   edx,edx
    6113:	jne    6058 <qcow_write_compressed+0x148>
    6119:	mov    rdi,QWORD PTR [r15]
    611c:	mov    ecx,ebp
    611e:	mov    rdx,r13
    6121:	mov    rsi,rax
    6124:	call   180f0 <bdrv_pwrite>
    6129:	cmp    eax,ebp
    612b:	je     609d <qcow_write_compressed+0x18d>
    6131:	nop    DWORD PTR [rax+0x0]
    6138:	mov    rdi,QWORD PTR [rsp+0x18]
    613d:	call   49c0 <qemu_free>
    6142:	mov    rcx,QWORD PTR [rsp+0xa8]
    614a:	xor    rcx,QWORD PTR fs:0x28
    6153:	mov    eax,DWORD PTR [rsp+0x24]
    6157:	jne    6221 <qcow_write_compressed+0x311>
    615d:	add    rsp,0xb8
    6164:	pop    rbx
    6165:	pop    rbp
    6166:	pop    r12
    6168:	pop    r13
    616a:	pop    r14
    616c:	pop    r15
    616e:	ret    
    616f:	nop
    6170:	mov    rax,QWORD PTR [rsp+0x10]
    6175:	mov    r15,QWORD PTR [rax+0x40]
    6179:	jmp    6033 <qcow_write_compressed+0x123>
    617e:	xchg   ax,ax
    6180:	mov    rdi,QWORD PTR [rsp+0x18]
    6185:	mov    QWORD PTR [r15+0x110],0xffffffffffffffff
    6190:	call   49c0 <qemu_free>
    6195:	jmp    6142 <qcow_write_compressed+0x232>
    6197:	nop    WORD PTR [rax+rax*1+0x0]
    61a0:	mov    rsi,r12
    61a3:	xor    r9d,r9d
    61a6:	xor    r8d,r8d
    61a9:	shl    rsi,0x9
    61ad:	mov    ecx,r14d
    61b0:	mov    edx,0x2
    61b5:	mov    rdi,r15
    61b8:	call   5a30 <get_cluster_offset.isra.2>
    61bd:	and    rax,QWORD PTR [rbp+0x20]
    61c1:	mov    rdx,QWORD PTR [rsp+0x18]
    61c6:	mov    ecx,r14d
    61c9:	mov    rdi,QWORD PTR [rbp+0x0]
    61cd:	mov    rsi,rax
    61d0:	call   180f0 <bdrv_pwrite>
    61d5:	cmp    eax,r14d
    61d8:	je     6138 <qcow_write_compressed+0x228>
    61de:	mov    rdi,QWORD PTR [rsp+0x18]
    61e3:	call   49c0 <qemu_free>
    61e8:	mov    DWORD PTR [rsp+0x24],0xffffffff
    61f0:	jmp    6142 <qcow_write_compressed+0x232>
    61f5:	mov    rdi,QWORD PTR [rsp+0x18]
    61fa:	call   49c0 <qemu_free>
    61ff:	mov    rdi,rbx
    6202:	call   3270 <deflateEnd@plt>
    6207:	mov    DWORD PTR [rsp+0x24],0xffffffff
    620f:	jmp    6142 <qcow_write_compressed+0x232>
    6214:	mov    DWORD PTR [rsp+0x24],0xffffffff
    621c:	jmp    6142 <qcow_write_compressed+0x232>
    6221:	call   2f70 <__stack_chk_fail@plt>
    6226:	nop    WORD PTR cs:[rax+rax*1+0x0]

0000000000006230 <qcow_is_allocated>:
    6230:	push   r13
    6232:	push   r12
    6234:	xor    r9d,r9d
    6237:	push   rbp
    6238:	push   rbx
    6239:	mov    rbp,rsi
    623c:	mov    ebx,edx
    623e:	mov    r12,rcx
    6241:	shl    rsi,0x9
    6245:	sub    rsp,0x8
    6249:	mov    r13,QWORD PTR [rdi+0x40]
    624d:	xor    edx,edx
    624f:	xor    r8d,r8d
    6252:	xor    ecx,ecx
    6254:	mov    rdi,r13
    6257:	call   5a30 <get_cluster_offset.isra.2>
    625c:	mov    edx,DWORD PTR [r13+0x10]
    6260:	lea    esi,[rdx-0x1]
    6263:	and    esi,ebp
    6265:	sub    edx,esi
    6267:	cmp    edx,ebx
    6269:	cmovg  edx,ebx
    626c:	test   rax,rax
    626f:	mov    DWORD PTR [r12],edx
    6273:	setne  al
    6276:	add    rsp,0x8
    627a:	pop    rbx
    627b:	movzx  eax,al
    627e:	pop    rbp
    627f:	pop    r12
    6281:	pop    r13
    6283:	ret    
    6284:	xchg   ax,ax
    6286:	nop    WORD PTR cs:[rax+rax*1+0x0]

0000000000006290 <qcow_aio_write_cb>:
    6290:	push   r14
    6292:	push   r13
    6294:	test   esi,esi
    6296:	push   r12
    6298:	push   rbp
    6299:	mov    ebp,esi
    629b:	push   rbx
    629c:	mov    rax,QWORD PTR [rdi+0x8]
    62a0:	mov    rbx,rdi
    62a3:	mov    r12,QWORD PTR [rax+0x40]
    62a7:	mov    QWORD PTR [rdi+0x50],0x0
    62af:	jns    62d0 <qcow_aio_write_cb+0x40>
    62b1:	mov    rdi,QWORD PTR [rbx+0x18]
    62b5:	mov    esi,ebp
    62b7:	call   QWORD PTR [rbx+0x10]
    62ba:	mov    rdi,rbx
    62bd:	pop    rbx
    62be:	pop    rbp
    62bf:	pop    r12
    62c1:	pop    r13
    62c3:	pop    r14
    62c5:	jmp    19850 <qemu_aio_release>
    62ca:	nop    WORD PTR [rax+rax*1+0x0]
    62d0:	movsxd rsi,DWORD PTR [rdi+0x3c]
    62d4:	mov    ecx,DWORD PTR [rdi+0x38]
    62d7:	mov    rdx,rsi
    62da:	sub    ecx,esi
    62dc:	add    rsi,QWORD PTR [rdi+0x28]
    62e0:	shl    edx,0x9
    62e3:	mov    DWORD PTR [rdi+0x38],ecx
    62e6:	movsxd rdx,edx
    62e9:	add    QWORD PTR [rdi+0x30],rdx
    62ed:	test   ecx,ecx
    62ef:	mov    QWORD PTR [rdi+0x28],rsi
    62f3:	jne    6300 <qcow_aio_write_cb+0x70>
    62f5:	mov    rdi,QWORD PTR [rdi+0x18]
    62f9:	xor    esi,esi
    62fb:	jmp    62b7 <qcow_aio_write_cb+0x27>
    62fd:	nop    DWORD PTR [rax]
    6300:	mov    edx,DWORD PTR [r12+0x10]
    6305:	lea    r13d,[rdx-0x1]
    6309:	and    r13d,esi
    630c:	sub    edx,r13d
    630f:	cmp    ecx,edx
    6311:	jl     63d0 <qcow_aio_write_cb+0x140>
    6317:	mov    DWORD PTR [rdi+0x3c],edx
    631a:	mov    rdi,QWORD PTR [rax+0x40]
    631e:	lea    r9d,[r13+rdx*1+0x0]
    6323:	shl    rsi,0x9
    6327:	xor    ecx,ecx
    6329:	mov    r8d,r13d
    632c:	mov    edx,0x1
    6331:	call   5a30 <get_cluster_offset.isra.2>
    6336:	test   rax,rax
    6339:	mov    r14,rax
    633c:	je     63c0 <qcow_aio_write_cb+0x130>
    6342:	test   eax,0x1ff
    6347:	jne    63c0 <qcow_aio_write_cb+0x130>
    6349:	mov    eax,DWORD PTR [r12+0x118]
    6351:	test   eax,eax
    6353:	je     63da <qcow_aio_write_cb+0x14a>
    6359:	mov    rsi,QWORD PTR [rbx+0x48]
    635d:	test   rsi,rsi
    6360:	je     63e0 <qcow_aio_write_cb+0x150>
    6362:	mov    rdx,QWORD PTR [rbx+0x30]
    6366:	mov    ecx,DWORD PTR [rbx+0x3c]
    6369:	lea    r9,[r12+0x120]
    6371:	mov    rdi,QWORD PTR [rbx+0x28]
    6375:	mov    r8d,0x1
    637b:	call   5750 <encrypt_sectors.isra.1>
    6380:	mov    rdx,QWORD PTR [rbx+0x48]
    6384:	shr    r14,0x9
    6388:	mov    ecx,DWORD PTR [rbx+0x3c]
    638b:	movsxd r13,r13d
    638e:	mov    rdi,QWORD PTR [r12]
    6392:	lea    rsi,[r14+r13*1]
    6396:	lea    r8,[rip+0xfffffffffffffef3]        # 6290 <qcow_aio_write_cb>
    639d:	mov    r9,rbx
    63a0:	call   19180 <bdrv_aio_write>
    63a5:	test   rax,rax
    63a8:	mov    QWORD PTR [rbx+0x50],rax
    63ac:	je     62b1 <qcow_aio_write_cb+0x21>
    63b2:	pop    rbx
    63b3:	pop    rbp
    63b4:	pop    r12
    63b6:	pop    r13
    63b8:	pop    r14
    63ba:	ret    
    63bb:	nop    DWORD PTR [rax+rax*1+0x0]
    63c0:	mov    ebp,0xfffffffb
    63c5:	jmp    62b1 <qcow_aio_write_cb+0x21>
    63ca:	nop    WORD PTR [rax+rax*1+0x0]
    63d0:	mov    DWORD PTR [rdi+0x3c],ecx
    63d3:	mov    edx,ecx
    63d5:	jmp    631a <qcow_aio_write_cb+0x8a>
    63da:	mov    rdx,QWORD PTR [rbx+0x30]
    63de:	jmp    6384 <qcow_aio_write_cb+0xf4>
    63e0:	movsxd rdi,DWORD PTR [r12+0xc]
    63e5:	call   4a20 <qemu_mallocz>
    63ea:	test   rax,rax
    63ed:	mov    rsi,rax
    63f0:	mov    QWORD PTR [rbx+0x48],rax
    63f4:	jne    6362 <qcow_aio_write_cb+0xd2>
    63fa:	mov    ebp,0xfffffff4
    63ff:	jmp    62b1 <qcow_aio_write_cb+0x21>
    6404:	xchg   ax,ax
    6406:	nop    WORD PTR cs:[rax+rax*1+0x0]

0000000000006410 <qcow_aio_write>:
    6410:	push   r13
    6412:	push   r12
    6414:	mov    r12,rsi
    6417:	push   rbp
    6418:	push   rbx
    6419:	mov    rbp,rdx
    641c:	mov    rsi,r8
    641f:	mov    rdx,r9
    6422:	mov    r13d,ecx
    6425:	sub    rsp,0x8
    6429:	mov    rax,QWORD PTR [rdi+0x40]
    642d:	mov    QWORD PTR [rax+0x110],0xffffffffffffffff
    6438:	call   19670 <qemu_aio_get>
    643d:	test   rax,rax
    6440:	mov    rbx,rax
    6443:	je     646a <qcow_aio_write+0x5a>
    6445:	mov    QWORD PTR [rax+0x50],0x0
    644d:	mov    QWORD PTR [rax+0x28],r12
    6451:	xor    esi,esi
    6453:	mov    QWORD PTR [rax+0x30],rbp
    6457:	mov    DWORD PTR [rax+0x38],r13d
    645b:	mov    rdi,rax
    645e:	mov    DWORD PTR [rax+0x3c],0x0
    6465:	call   6290 <qcow_aio_write_cb>
    646a:	add    rsp,0x8
    646e:	mov    rax,rbx
    6471:	pop    rbx
    6472:	pop    rbp
    6473:	pop    r12
    6475:	pop    r13
    6477:	ret    
    6478:	nop    DWORD PTR [rax+rax*1+0x0]

0000000000006480 <qcow_aio_read_cb>:
    6480:	push   r15
    6482:	push   r14
    6484:	push   r13
    6486:	push   r12
    6488:	mov    r13d,esi
    648b:	push   rbp
    648c:	push   rbx
    648d:	mov    rbx,rdi
    6490:	sub    rsp,0x8
    6494:	mov    r12,QWORD PTR [rdi+0x8]
    6498:	test   esi,esi
    649a:	mov    rbp,QWORD PTR [r12+0x40]
    649f:	mov    QWORD PTR [rdi+0x50],0x0
    64a7:	lea    r14,[rbp+0x214]
    64ae:	jns    6505 <qcow_aio_read_cb+0x85>
    64b0:	mov    rdi,QWORD PTR [rbx+0x18]
    64b4:	mov    esi,r13d
    64b7:	call   QWORD PTR [rbx+0x10]
    64ba:	add    rsp,0x8
    64be:	mov    rdi,rbx
    64c1:	pop    rbx
    64c2:	pop    rbp
    64c3:	pop    r12
    64c5:	pop    r13
    64c7:	pop    r14
    64c9:	pop    r15
    64cb:	jmp    19850 <qemu_aio_release>
    64d0:	jns    6628 <qcow_aio_read_cb+0x1a8>
    64d6:	mov    rsi,rax
    64d9:	mov    rdi,rbp
    64dc:	call   5800 <decompress_cluster>
    64e1:	test   eax,eax
    64e3:	js     64b0 <qcow_aio_read_cb+0x30>
    64e5:	mov    edx,DWORD PTR [rbx+0x3c]
    64e8:	shl    r15d,0x9
    64ec:	mov    rdi,QWORD PTR [rbx+0x30]
    64f0:	movsxd rsi,r15d
    64f3:	add    rsi,QWORD PTR [rbp+0x100]
    64fa:	shl    edx,0x9
    64fd:	movsxd rdx,edx
    6500:	call   3190 <memcpy@plt>
    6505:	cmp    QWORD PTR [rbx+0x40],0x0
    650a:	mov    ecx,DWORD PTR [rbx+0x3c]
    650d:	mov    rax,QWORD PTR [rbx+0x30]
    6511:	mov    rdi,QWORD PTR [rbx+0x28]
    6515:	jle    6525 <qcow_aio_read_cb+0xa5>
    6517:	mov    edx,DWORD PTR [rbp+0x118]
    651d:	test   edx,edx
    651f:	jne    65b8 <qcow_aio_read_cb+0x138>
    6525:	mov    edx,DWORD PTR [rbx+0x38]
    6528:	movsxd rsi,ecx
    652b:	add    rsi,rdi
    652e:	mov    QWORD PTR [rbx+0x28],rsi
    6532:	sub    edx,ecx
    6534:	shl    ecx,0x9
    6537:	movsxd rcx,ecx
    653a:	mov    DWORD PTR [rbx+0x38],edx
    653d:	add    rcx,rax
    6540:	test   edx,edx
    6542:	mov    QWORD PTR [rbx+0x30],rcx
    6546:	je     65e0 <qcow_aio_read_cb+0x160>
    654c:	mov    rdi,QWORD PTR [r12+0x40]
    6551:	shl    rsi,0x9
    6555:	xor    ecx,ecx
    6557:	xor    edx,edx
    6559:	xor    r9d,r9d
    655c:	xor    r8d,r8d
    655f:	call   5a30 <get_cluster_offset.isra.2>
    6564:	mov    QWORD PTR [rbx+0x40],rax
    6568:	mov    edx,DWORD PTR [rbp+0x10]
    656b:	mov    rsi,QWORD PTR [rbx+0x28]
    656f:	mov    ecx,DWORD PTR [rbx+0x38]
    6572:	lea    r15d,[rdx-0x1]
    6576:	and    r15d,esi
    6579:	sub    edx,r15d
    657c:	cmp    edx,ecx
    657e:	mov    DWORD PTR [rbx+0x3c],edx
    6581:	jle    6586 <qcow_aio_read_cb+0x106>
    6583:	mov    DWORD PTR [rbx+0x3c],ecx
    6586:	test   rax,rax
    6589:	jne    64d0 <qcow_aio_read_cb+0x50>
    658f:	mov    rax,QWORD PTR [r12+0x850]
    6597:	mov    edx,DWORD PTR [rbx+0x3c]
    659a:	mov    rdi,QWORD PTR [rbx+0x30]
    659e:	test   rax,rax
    65a1:	jne    65f0 <qcow_aio_read_cb+0x170>
    65a3:	shl    edx,0x9
    65a6:	xor    esi,esi
    65a8:	movsxd rdx,edx
    65ab:	call   3020 <memset@plt>
    65b0:	jmp    6505 <qcow_aio_read_cb+0x85>
    65b5:	nop    DWORD PTR [rax]
    65b8:	mov    rdx,rax
    65bb:	mov    rsi,rax
    65be:	mov    r9,r14
    65c1:	xor    r8d,r8d
    65c4:	call   5750 <encrypt_sectors.isra.1>
    65c9:	mov    ecx,DWORD PTR [rbx+0x3c]
    65cc:	mov    rdi,QWORD PTR [rbx+0x28]
    65d0:	mov    rax,QWORD PTR [rbx+0x30]
    65d4:	jmp    6525 <qcow_aio_read_cb+0xa5>
    65d9:	nop    DWORD PTR [rax+0x0]
    65e0:	mov    rdi,QWORD PTR [rbx+0x18]
    65e4:	xor    esi,esi
    65e6:	jmp    64b7 <qcow_aio_read_cb+0x37>
    65eb:	nop    DWORD PTR [rax+rax*1+0x0]
    65f0:	lea    r8,[rip+0xfffffffffffffe89]        # 6480 <qcow_aio_read_cb>
    65f7:	mov    ecx,edx
    65f9:	mov    r9,rbx
    65fc:	mov    rdx,rdi
    65ff:	mov    rdi,rax
    6602:	call   19060 <bdrv_aio_read>
    6607:	test   rax,rax
    660a:	mov    QWORD PTR [rbx+0x50],rax
    660e:	je     64b0 <qcow_aio_read_cb+0x30>
    6614:	add    rsp,0x8
    6618:	pop    rbx
    6619:	pop    rbp
    661a:	pop    r12
    661c:	pop    r13
    661e:	pop    r14
    6620:	pop    r15
    6622:	ret    
    6623:	nop    DWORD PTR [rax+rax*1+0x0]
    6628:	test   eax,0x1ff
    662d:	je     663a <qcow_aio_read_cb+0x1ba>
    662f:	mov    r13d,0xfffffffb
    6635:	jmp    64b0 <qcow_aio_read_cb+0x30>
    663a:	mov    ecx,DWORD PTR [rbx+0x3c]
    663d:	mov    rdx,QWORD PTR [rbx+0x30]
    6641:	shr    rax,0x9
    6645:	mov    rdi,QWORD PTR [rbp+0x0]
    6649:	movsxd rsi,r15d
    664c:	lea    r8,[rip+0xfffffffffffffe2d]        # 6480 <qcow_aio_read_cb>
    6653:	add    rsi,rax
    6656:	mov    r9,rbx
    6659:	call   19060 <bdrv_aio_read>
    665e:	test   rax,rax
    6661:	mov    QWORD PTR [rbx+0x50],rax
    6665:	jne    6614 <qcow_aio_read_cb+0x194>
    6667:	jmp    64b0 <qcow_aio_read_cb+0x30>
    666c:	nop    DWORD PTR [rax+0x0]

0000000000006670 <qcow_aio_read>:
    6670:	push   r13
    6672:	push   r12
    6674:	mov    r12,rsi
    6677:	push   rbp
    6678:	push   rbx
    6679:	mov    rbp,rdx
    667c:	mov    rsi,r8
    667f:	mov    rdx,r9
    6682:	mov    r13d,ecx
    6685:	sub    rsp,0x8
    6689:	call   19670 <qemu_aio_get>
    668e:	test   rax,rax
    6691:	mov    rbx,rax
    6694:	je     66c3 <qcow_aio_read+0x53>
    6696:	mov    QWORD PTR [rax+0x50],0x0
    669e:	mov    QWORD PTR [rax+0x28],r12
    66a2:	xor    esi,esi
    66a4:	mov    QWORD PTR [rax+0x30],rbp
    66a8:	mov    DWORD PTR [rax+0x38],r13d
    66ac:	mov    rdi,rax
    66af:	mov    DWORD PTR [rax+0x3c],0x0
    66b6:	mov    QWORD PTR [rax+0x40],0x0
    66be:	call   6480 <qcow_aio_read_cb>
    66c3:	add    rsp,0x8
    66c7:	mov    rax,rbx
    66ca:	pop    rbx
    66cb:	pop    rbp
    66cc:	pop    r12
    66ce:	pop    r13
    66d0:	ret    
    66d1:	nop    DWORD PTR [rax+rax*1+0x0]
    66d6:	nop    WORD PTR cs:[rax+rax*1+0x0]

00000000000066e0 <qcow_probe>:
    66e0:	xor    eax,eax
    66e2:	cmp    esi,0x2f
    66e5:	ja     66f0 <qcow_probe+0x10>
    66e7:	repz ret 
    66e9:	nop    DWORD PTR [rax+0x0]
    66f0:	cmp    DWORD PTR [rdi],0xfb494651
    66f6:	jne    66e7 <qcow_probe+0x7>
    66f8:	cmp    DWORD PTR [rdi+0x4],0x1000000
    66ff:	mov    edx,0x64
    6704:	cmove  eax,edx
    6707:	ret    
    6708:	nop    DWORD PTR [rax+rax*1+0x0]

0000000000006710 <qcow_create>:
    6710:	push   r15
    6712:	push   r14
    6714:	mov    r15,rdx
    6717:	push   r13
    6719:	push   r12
    671b:	mov    edx,0x1a4
    6720:	push   rbp
    6721:	push   rbx
    6722:	mov    rbx,rsi
    6725:	mov    esi,0x241
    672a:	sub    rsp,0x68
    672e:	mov    rax,QWORD PTR fs:0x28
    6737:	mov    QWORD PTR [rsp+0x58],rax
    673c:	xor    eax,eax
    673e:	mov    DWORD PTR [rsp+0x4],ecx
    6742:	call   32e0 <open64@plt>
    6747:	test   eax,eax
    6749:	js     6922 <qcow_create+0x212>
    674f:	pxor   xmm0,xmm0
    6753:	shl    rbx,0x9
    6757:	mov    ebp,eax
    6759:	movabs rax,0x1000000fb494651
    6763:	lea    r9,[rsp+0x20]
    6768:	test   r15,r15
    676b:	mov    QWORD PTR [rsp+0x20],rax
    6770:	mov    rax,rbx
    6773:	bswap  rax
    6776:	movups XMMWORD PTR [rsp+0x28],xmm0
    677b:	mov    QWORD PTR [r9+0x28],0x0
    6783:	movups XMMWORD PTR [r9+0x18],xmm0
    6788:	mov    QWORD PTR [rsp+0x38],rax
    678d:	je     6900 <qcow_create+0x1f0>
    6793:	lea    rdi,[rip+0x15a4c]        # 1c1e6 <__PRETTY_FUNCTION__.13304+0x96>
    679a:	mov    ecx,0x5
    679f:	mov    rsi,r15
    67a2:	repz cmps BYTE PTR ds:[rsi],BYTE PTR es:[rdi]
    67a4:	seta   dl
    67a7:	sbb    dl,0x0
    67aa:	movsx  r10d,dl
    67ae:	test   r10d,r10d
    67b1:	jne    68b0 <qcow_create+0x1a0>
    67b7:	movabs rax,0x3000000000000000
    67c1:	mov    r12d,0x30
    67c7:	xor    r15d,r15d
    67ca:	mov    edx,0xc09
    67cf:	mov    WORD PTR [rsp+0x40],dx
    67d4:	mov    ecx,DWORD PTR [rsp+0x4]
    67d8:	lea    r13,[rbx+0x1fffff]
    67df:	mov    edx,0x30
    67e4:	mov    rsi,r9
    67e7:	mov    edi,ebp
    67e9:	mov    DWORD PTR [rsp+0x8],r10d
    67ee:	sar    r13,0x15
    67f2:	mov    QWORD PTR [rsp+0x48],rax
    67f7:	and    ecx,0x1
    67fa:	mov    r14d,r13d
    67fd:	shl    ecx,0x18
    6800:	mov    DWORD PTR [rsp+0x44],ecx
    6804:	call   43d0 <qemu_write_ok>
    6809:	test   eax,eax
    680b:	js     686f <qcow_create+0x15f>
    680d:	test   r15,r15
    6810:	mov    r10d,DWORD PTR [rsp+0x8]
    6815:	je     6828 <qcow_create+0x118>
    6817:	movsxd rdx,r10d
    681a:	mov    rsi,r15
    681d:	mov    edi,ebp
    681f:	call   43d0 <qemu_write_ok>
    6824:	test   eax,eax
    6826:	js     686f <qcow_create+0x15f>
    6828:	movsxd rsi,r12d
    682b:	xor    edx,edx
    682d:	mov    edi,ebp
    682f:	call   33f0 <lseek64@plt>
    6834:	xor    ebx,ebx
    6836:	test   r13d,r13d
    6839:	mov    QWORD PTR [rsp+0x18],0x0
    6842:	lea    r12,[rsp+0x18]
    6847:	jg     685c <qcow_create+0x14c>
    6849:	jmp    68f0 <qcow_create+0x1e0>
    684e:	xchg   ax,ax
    6850:	add    ebx,0x1
    6853:	cmp    r14d,ebx
    6856:	je     68f0 <qcow_create+0x1e0>
    685c:	mov    edx,0x8
    6861:	mov    rsi,r12
    6864:	mov    edi,ebp
    6866:	call   43d0 <qemu_write_ok>
    686b:	test   eax,eax
    686d:	jns    6850 <qcow_create+0x140>
    686f:	call   2e80 <__errno_location@plt>
    6874:	mov    r12d,DWORD PTR [rax]
    6877:	mov    rbx,rax
    687a:	mov    edi,ebp
    687c:	call   3040 <close@plt>
    6881:	mov    eax,0xffffffff
    6886:	mov    DWORD PTR [rbx],r12d
    6889:	mov    rcx,QWORD PTR [rsp+0x58]
    688e:	xor    rcx,QWORD PTR fs:0x28
    6897:	jne    692c <qcow_create+0x21c>
    689d:	add    rsp,0x68
    68a1:	pop    rbx
    68a2:	pop    rbp
    68a3:	pop    r12
    68a5:	pop    r13
    68a7:	pop    r14
    68a9:	pop    r15
    68ab:	ret    
    68ac:	nop    DWORD PTR [rax+0x0]
    68b0:	movabs rax,0x3000000000000000
    68ba:	mov    rdi,r15
    68bd:	mov    QWORD PTR [rsp+0x8],r9
    68c2:	mov    QWORD PTR [rsp+0x28],rax
    68c7:	call   2f60 <strlen@plt>
    68cc:	lea    r12d,[rax+0x37]
    68d0:	mov    edx,eax
    68d2:	mov    r10d,eax
    68d5:	bswap  edx
    68d7:	mov    r9,QWORD PTR [rsp+0x8]
    68dc:	and    r12d,0xfffffff8
    68e0:	mov    DWORD PTR [rsp+0x30],edx
    68e4:	movsxd rax,r12d
    68e7:	bswap  rax
    68ea:	jmp    67ca <qcow_create+0xba>
    68ef:	nop
    68f0:	mov    edi,ebp
    68f2:	call   3040 <close@plt>
    68f7:	xor    eax,eax
    68f9:	jmp    6889 <qcow_create+0x179>
    68fb:	nop    DWORD PTR [rax+rax*1+0x0]
    6900:	mov    eax,0x90c
    6905:	mov    r12d,0x30
    690b:	xor    r10d,r10d
    690e:	mov    WORD PTR [rsp+0x40],ax
    6913:	movabs rax,0x3000000000000000
    691d:	jmp    67d4 <qcow_create+0xc4>
    6922:	mov    eax,0xffffffff
    6927:	jmp    6889 <qcow_create+0x179>
    692c:	call   2f70 <__stack_chk_fail@plt>
    6931:	nop    WORD PTR cs:[rax+rax*1+0x0]
    693b:	nop    DWORD PTR [rax+rax*1+0x0]

0000000000006940 <AES_set_encrypt_key>:
    6940:	test   rdi,rdi
    6943:	je     6d59 <AES_set_encrypt_key+0x419>
    6949:	test   rdx,rdx
    694c:	je     6d59 <AES_set_encrypt_key+0x419>
    6952:	mov    eax,esi
    6954:	and    eax,0xffffffbf
    6957:	add    eax,0xffffff80
    695a:	jne    6af0 <AES_set_encrypt_key+0x1b0>
    6960:	cmp    esi,0x80
    6966:	je     6b10 <AES_set_encrypt_key+0x1d0>
    696c:	cmp    esi,0xc0
    6972:	jne    6afc <AES_set_encrypt_key+0x1bc>
    6978:	mov    DWORD PTR [rdx+0xf0],0xc
    6982:	push   r14
    6984:	push   r12
    6986:	push   rbp
    6987:	push   rbx
    6988:	movzx  eax,BYTE PTR [rdi]
    698b:	movzx  r8d,BYTE PTR [rdi+0x1]
    6990:	shl    eax,0x18
    6993:	shl    r8d,0x10
    6997:	xor    eax,r8d
    699a:	movzx  r8d,BYTE PTR [rdi+0x3]
    699f:	xor    eax,r8d
    69a2:	movzx  r8d,BYTE PTR [rdi+0x2]
    69a7:	shl    r8d,0x8
    69ab:	xor    r8d,eax
    69ae:	mov    DWORD PTR [rdx],r8d
    69b1:	movzx  r9d,BYTE PTR [rdi+0x4]
    69b6:	movzx  eax,BYTE PTR [rdi+0x5]
    69ba:	shl    r9d,0x18
    69be:	shl    eax,0x10
    69c1:	xor    r9d,eax
    69c4:	movzx  eax,BYTE PTR [rdi+0x7]
    69c8:	xor    r9d,eax
    69cb:	movzx  eax,BYTE PTR [rdi+0x6]
    69cf:	shl    eax,0x8
    69d2:	xor    r9d,eax
    69d5:	mov    DWORD PTR [rdx+0x4],r9d
    69d9:	movzx  r10d,BYTE PTR [rdi+0x8]
    69de:	movzx  eax,BYTE PTR [rdi+0x9]
    69e2:	shl    r10d,0x18
    69e6:	shl    eax,0x10
    69e9:	xor    r10d,eax
    69ec:	movzx  eax,BYTE PTR [rdi+0xb]
    69f0:	xor    r10d,eax
    69f3:	movzx  eax,BYTE PTR [rdi+0xa]
    69f7:	shl    eax,0x8
    69fa:	xor    r10d,eax
    69fd:	mov    DWORD PTR [rdx+0x8],r10d
    6a01:	movzx  ecx,BYTE PTR [rdi+0xc]
    6a05:	movzx  eax,BYTE PTR [rdi+0xd]
    6a09:	shl    ecx,0x18
    6a0c:	shl    eax,0x10
    6a0f:	xor    ecx,eax
    6a11:	movzx  eax,BYTE PTR [rdi+0xf]
    6a15:	xor    ecx,eax
    6a17:	movzx  eax,BYTE PTR [rdi+0xe]
    6a1b:	shl    eax,0x8
    6a1e:	xor    ecx,eax
    6a20:	cmp    esi,0x80
    6a26:	mov    DWORD PTR [rdx+0xc],ecx
    6a29:	je     6b20 <AES_set_encrypt_key+0x1e0>
    6a2f:	movzx  eax,BYTE PTR [rdi+0x10]
    6a33:	movzx  r11d,BYTE PTR [rdi+0x11]
    6a38:	shl    eax,0x18
    6a3b:	shl    r11d,0x10
    6a3f:	xor    eax,r11d
    6a42:	movzx  r11d,BYTE PTR [rdi+0x13]
    6a47:	xor    eax,r11d
    6a4a:	movzx  r11d,BYTE PTR [rdi+0x12]
    6a4f:	shl    r11d,0x8
    6a53:	xor    eax,r11d
    6a56:	mov    DWORD PTR [rdx+0x10],eax
    6a59:	movzx  ebx,BYTE PTR [rdi+0x14]
    6a5d:	movzx  eax,BYTE PTR [rdi+0x15]
    6a61:	shl    ebx,0x18
    6a64:	shl    eax,0x10
    6a67:	xor    ebx,eax
    6a69:	movzx  eax,BYTE PTR [rdi+0x17]
    6a6d:	xor    ebx,eax
    6a6f:	movzx  eax,BYTE PTR [rdi+0x16]
    6a73:	shl    eax,0x8
    6a76:	xor    ebx,eax
    6a78:	cmp    esi,0xc0
    6a7e:	mov    DWORD PTR [rdx+0x14],ebx
    6a81:	je     6bb0 <AES_set_encrypt_key+0x270>
    6a87:	movzx  eax,BYTE PTR [rdi+0x18]
    6a8b:	movzx  r11d,BYTE PTR [rdi+0x19]
    6a90:	shl    eax,0x18
    6a93:	shl    r11d,0x10
    6a97:	xor    eax,r11d
    6a9a:	movzx  r11d,BYTE PTR [rdi+0x1b]
    6a9f:	xor    eax,r11d
    6aa2:	movzx  r11d,BYTE PTR [rdi+0x1a]
    6aa7:	shl    r11d,0x8
    6aab:	xor    eax,r11d
    6aae:	mov    DWORD PTR [rdx+0x18],eax
    6ab1:	movzx  ebx,BYTE PTR [rdi+0x1c]
    6ab5:	movzx  eax,BYTE PTR [rdi+0x1d]
    6ab9:	shl    ebx,0x18
    6abc:	shl    eax,0x10
    6abf:	xor    ebx,eax
    6ac1:	movzx  eax,BYTE PTR [rdi+0x1f]
    6ac5:	xor    ebx,eax
    6ac7:	movzx  eax,BYTE PTR [rdi+0x1e]
    6acb:	shl    eax,0x8
    6ace:	xor    ebx,eax
    6ad0:	cmp    esi,0x100
    6ad6:	mov    DWORD PTR [rdx+0x1c],ebx
    6ad9:	je     6c60 <AES_set_encrypt_key+0x320>
    6adf:	pop    rbx
    6ae0:	xor    eax,eax
    6ae2:	pop    rbp
    6ae3:	pop    r12
    6ae5:	pop    r14
    6ae7:	ret    
    6ae8:	nop    DWORD PTR [rax+rax*1+0x0]
    6af0:	cmp    esi,0x100
    6af6:	jne    6d5f <AES_set_encrypt_key+0x41f>
    6afc:	mov    DWORD PTR [rdx+0xf0],0xe
    6b06:	jmp    6982 <AES_set_encrypt_key+0x42>
    6b0b:	nop    DWORD PTR [rax+rax*1+0x0]
    6b10:	mov    DWORD PTR [rdx+0xf0],0xa
    6b1a:	jmp    6982 <AES_set_encrypt_key+0x42>
    6b1f:	nop
    6b20:	lea    rdi,[rip+0x156dd]        # 1c204 <rcon+0x4>
    6b27:	add    rdx,0x10
    6b2b:	mov    r11d,0x1000000
    6b31:	lea    rsi,[rip+0x16b08]        # 1d640 <Te4>
    6b38:	lea    rbx,[rdi+0x24]
    6b3c:	jmp    6b4b <AES_set_encrypt_key+0x20b>
    6b3e:	xchg   ax,ax
    6b40:	mov    r11d,DWORD PTR [rdi]
    6b43:	add    rdx,0x10
    6b47:	add    rdi,0x4
    6b4b:	mov    ebp,ecx
    6b4d:	movzx  eax,cl
    6b50:	shr    ebp,0x18
    6b53:	mov    eax,DWORD PTR [rsi+rax*4]
    6b56:	movzx  ebp,BYTE PTR [rsi+rbp*4]
    6b5a:	and    eax,0xff00
    6b5f:	or     eax,ebp
    6b61:	mov    ebp,ecx
    6b63:	shr    ebp,0x10
    6b66:	movzx  ebp,bpl
    6b6a:	mov    ebp,DWORD PTR [rsi+rbp*4]
    6b6d:	and    ebp,0xff000000
    6b73:	xor    eax,ebp
    6b75:	movzx  ebp,ch
    6b78:	mov    ebp,DWORD PTR [rsi+rbp*4]
    6b7b:	and    ebp,0xff0000
    6b81:	xor    eax,ebp
    6b83:	xor    eax,r8d
    6b86:	xor    eax,r11d
    6b89:	xor    r9d,eax
    6b8c:	mov    r8d,eax
    6b8f:	mov    DWORD PTR [rdx],eax
    6b91:	xor    r10d,r9d
    6b94:	mov    DWORD PTR [rdx+0x4],r9d
    6b98:	xor    ecx,r10d
    6b9b:	cmp    rbx,rdi
    6b9e:	mov    DWORD PTR [rdx+0x8],r10d
    6ba2:	mov    DWORD PTR [rdx+0xc],ecx
    6ba5:	jne    6b40 <AES_set_encrypt_key+0x200>
    6ba7:	pop    rbx
    6ba8:	xor    eax,eax
    6baa:	pop    rbp
    6bab:	pop    r12
    6bad:	pop    r14
    6baf:	ret    
    6bb0:	lea    rdi,[rip+0x15649]        # 1c200 <rcon>
    6bb7:	add    rdx,0x18
    6bbb:	mov    r11d,0x1000000
    6bc1:	lea    rsi,[rip+0x16a78]        # 1d640 <Te4>
    6bc8:	lea    r14,[rdi+0x20]
    6bcc:	jmp    6be4 <AES_set_encrypt_key+0x2a4>
    6bce:	xchg   ax,ax
    6bd0:	mov    eax,DWORD PTR [rdx-0x8]
    6bd3:	add    rdx,0x18
    6bd7:	xor    eax,ecx
    6bd9:	xor    ebx,eax
    6bdb:	mov    DWORD PTR [rdx-0x8],eax
    6bde:	mov    DWORD PTR [rdx-0x4],ebx
    6be1:	mov    r11d,DWORD PTR [rdi]
    6be4:	mov    r12d,ebx
    6be7:	movzx  eax,bl
    6bea:	movzx  ebp,bh
    6bed:	shr    r12d,0x18
    6bf1:	mov    eax,DWORD PTR [rsi+rax*4]
    6bf4:	add    rdi,0x4
    6bf8:	movzx  r12d,BYTE PTR [rsi+r12*4]
    6bfd:	and    eax,0xff00
    6c02:	or     eax,r12d
    6c05:	mov    r12d,ebx
    6c08:	shr    r12d,0x10
    6c0c:	movzx  r12d,r12b
    6c10:	mov    r12d,DWORD PTR [rsi+r12*4]
    6c14:	and    r12d,0xff000000
    6c1b:	xor    eax,r12d
    6c1e:	mov    r12d,DWORD PTR [rsi+rbp*4]
    6c22:	and    r12d,0xff0000
    6c29:	xor    eax,r12d
    6c2c:	xor    eax,r8d
    6c2f:	xor    eax,r11d
    6c32:	xor    r9d,eax
    6c35:	mov    r8d,eax
    6c38:	mov    DWORD PTR [rdx],eax
    6c3a:	xor    r10d,r9d
    6c3d:	mov    DWORD PTR [rdx+0x4],r9d
    6c41:	xor    ecx,r10d
    6c44:	cmp    r14,rdi
    6c47:	mov    DWORD PTR [rdx+0x8],r10d
    6c4b:	mov    DWORD PTR [rdx+0xc],ecx
    6c4e:	jne    6bd0 <AES_set_encrypt_key+0x290>
    6c50:	pop    rbx
    6c51:	xor    eax,eax
    6c53:	pop    rbp
    6c54:	pop    r12
    6c56:	pop    r14
    6c58:	ret    
    6c59:	nop    DWORD PTR [rax+0x0]
    6c60:	lea    rdi,[rip+0x15599]        # 1c200 <rcon>
    6c67:	add    rdx,0x20
    6c6b:	mov    r11d,0x1000000
    6c71:	lea    rsi,[rip+0x169c8]        # 1d640 <Te4>
    6c78:	lea    r14,[rdi+0x1c]
    6c7c:	jmp    6ce0 <AES_set_encrypt_key+0x3a0>
    6c7e:	xchg   ax,ax
    6c80:	mov    eax,ecx
    6c82:	movzx  ebp,ch
    6c85:	movzx  r12d,cl
    6c89:	shr    eax,0x10
    6c8c:	mov    r11d,DWORD PTR [rsi+rbp*4]
    6c90:	movzx  r12d,BYTE PTR [rsi+r12*4]
    6c95:	movzx  eax,al
    6c98:	add    rdx,0x20
    6c9c:	mov    eax,DWORD PTR [rsi+rax*4]
    6c9f:	and    r11d,0xff00
    6ca6:	and    eax,0xff0000
    6cab:	or     eax,r11d
    6cae:	mov    r11d,ecx
    6cb1:	xor    eax,DWORD PTR [rdx-0x30]
    6cb4:	shr    r11d,0x18
    6cb8:	mov    r11d,DWORD PTR [rsi+r11*4]
    6cbc:	and    r11d,0xff000000
    6cc3:	or     r11d,r12d
    6cc6:	xor    eax,r11d
    6cc9:	mov    DWORD PTR [rdx-0x10],eax
    6ccc:	xor    eax,DWORD PTR [rdx-0x2c]
    6ccf:	mov    DWORD PTR [rdx-0xc],eax
    6cd2:	xor    eax,DWORD PTR [rdx-0x28]
    6cd5:	xor    ebx,eax
    6cd7:	mov    DWORD PTR [rdx-0x8],eax
    6cda:	mov    DWORD PTR [rdx-0x4],ebx
    6cdd:	mov    r11d,DWORD PTR [rdi]
    6ce0:	mov    r12d,ebx
    6ce3:	movzx  eax,bl
    6ce6:	movzx  ebp,bh
    6ce9:	shr    r12d,0x18
    6ced:	mov    eax,DWORD PTR [rsi+rax*4]
    6cf0:	add    rdi,0x4
    6cf4:	movzx  r12d,BYTE PTR [rsi+r12*4]
    6cf9:	and    eax,0xff00
    6cfe:	or     eax,r12d
    6d01:	mov    r12d,ebx
    6d04:	shr    r12d,0x10
    6d08:	movzx  r12d,r12b
    6d0c:	mov    r12d,DWORD PTR [rsi+r12*4]
    6d10:	and    r12d,0xff000000
    6d17:	xor    eax,r12d
    6d1a:	mov    r12d,DWORD PTR [rsi+rbp*4]
    6d1e:	and    r12d,0xff0000
    6d25:	xor    eax,r12d
    6d28:	xor    eax,r8d
    6d2b:	xor    eax,r11d
    6d2e:	xor    r9d,eax
    6d31:	mov    r8d,eax
    6d34:	mov    DWORD PTR [rdx],eax
    6d36:	xor    r10d,r9d
    6d39:	mov    DWORD PTR [rdx+0x4],r9d
    6d3d:	xor    ecx,r10d
    6d40:	cmp    r14,rdi
    6d43:	mov    DWORD PTR [rdx+0x8],r10d
    6d47:	mov    DWORD PTR [rdx+0xc],ecx
    6d4a:	jne    6c80 <AES_set_encrypt_key+0x340>
    6d50:	pop    rbx
    6d51:	xor    eax,eax
    6d53:	pop    rbp
    6d54:	pop    r12
    6d56:	pop    r14
    6d58:	ret    
    6d59:	mov    eax,0xffffffff
    6d5e:	ret    
    6d5f:	mov    eax,0xfffffffe
    6d64:	ret    
    6d65:	nop
    6d66:	nop    WORD PTR cs:[rax+rax*1+0x0]

0000000000006d70 <AES_set_decrypt_key>:
    6d70:	push   r14
    6d72:	push   rbp
    6d73:	mov    r14,rdx
    6d76:	push   rbx
    6d77:	call   6940 <AES_set_encrypt_key>
    6d7c:	test   eax,eax
    6d7e:	js     6f51 <AES_set_decrypt_key+0x1e1>
    6d84:	mov    eax,DWORD PTR [r14+0xf0]
    6d8b:	mov    rdx,r14
    6d8e:	lea    r9d,[rax*4+0x0]
    6d96:	test   r9d,r9d
    6d99:	jle    6e01 <AES_set_decrypt_key+0x91>
    6d9b:	movsxd rax,r9d
    6d9e:	mov    rcx,r14
    6da1:	xor    esi,esi
    6da3:	lea    rax,[r14+rax*4]
    6da7:	nop    WORD PTR [rax+rax*1+0x0]
    6db0:	mov    edi,DWORD PTR [rcx]
    6db2:	mov    r8d,DWORD PTR [rax]
    6db5:	add    esi,0x4
    6db8:	add    rcx,0x10
    6dbc:	sub    rax,0x10
    6dc0:	mov    DWORD PTR [rcx-0x10],r8d
    6dc4:	mov    DWORD PTR [rax+0x10],edi
    6dc7:	mov    r8d,DWORD PTR [rax+0x14]
    6dcb:	mov    edi,DWORD PTR [rcx-0xc]
    6dce:	mov    DWORD PTR [rcx-0xc],r8d
    6dd2:	mov    DWORD PTR [rax+0x14],edi
    6dd5:	mov    r8d,DWORD PTR [rax+0x18]
    6dd9:	mov    edi,DWORD PTR [rcx-0x8]
    6ddc:	mov    DWORD PTR [rcx-0x8],r8d
    6de0:	mov    DWORD PTR [rax+0x18],edi
    6de3:	mov    r8d,DWORD PTR [rax+0x1c]
    6de7:	mov    edi,DWORD PTR [rcx-0x4]
    6dea:	mov    DWORD PTR [rcx-0x4],r8d
    6dee:	mov    DWORD PTR [rax+0x1c],edi
    6df1:	mov    edi,r9d
    6df4:	sub    edi,esi
    6df6:	cmp    esi,edi
    6df8:	jl     6db0 <AES_set_decrypt_key+0x40>
    6dfa:	mov    eax,DWORD PTR [r14+0xf0]
    6e01:	cmp    eax,0x1
    6e04:	jle    6f4f <AES_set_decrypt_key+0x1df>
    6e0a:	lea    r9,[rip+0x1642f]        # 1d240 <Td0>
    6e11:	lea    rax,[rip+0x16828]        # 1d640 <Te4>
    6e18:	lea    r8,[rip+0x15821]        # 1c640 <Td3>
    6e1f:	lea    rdi,[rip+0x1601a]        # 1ce40 <Td1>
    6e26:	lea    rsi,[rip+0x15c13]        # 1ca40 <Td2>
    6e2d:	mov    r10d,0x1
    6e33:	nop    DWORD PTR [rax+rax*1+0x0]
    6e38:	add    rdx,0x10
    6e3c:	mov    r11d,DWORD PTR [rdx]
    6e3f:	add    r10d,0x1
    6e43:	mov    ecx,r11d
    6e46:	movzx  ebp,r11b
    6e4a:	mov    ebx,r11d
    6e4d:	shr    ecx,0x18
    6e50:	movzx  ebp,BYTE PTR [rax+rbp*4]
    6e54:	movzx  ebx,bh
    6e57:	movzx  ecx,BYTE PTR [rax+rcx*4]
    6e5b:	mov    ecx,DWORD PTR [r9+rcx*4]
    6e5f:	xor    ecx,DWORD PTR [r8+rbp*4]
    6e63:	mov    ebp,r11d
    6e66:	shr    ebp,0x10
    6e69:	movzx  r11d,BYTE PTR [rax+rbx*4]
    6e6e:	movzx  ebp,bpl
    6e72:	movzx  ebp,BYTE PTR [rax+rbp*4]
    6e76:	xor    ecx,DWORD PTR [rdi+rbp*4]
    6e79:	xor    ecx,DWORD PTR [rsi+r11*4]
    6e7d:	mov    r11d,DWORD PTR [rdx+0x4]
    6e81:	movzx  ebp,r11b
    6e85:	mov    ebx,r11d
    6e88:	mov    DWORD PTR [rdx],ecx
    6e8a:	mov    ecx,r11d
    6e8d:	movzx  ebp,BYTE PTR [rax+rbp*4]
    6e91:	shr    ecx,0x18
    6e94:	movzx  ebx,bh
    6e97:	movzx  ecx,BYTE PTR [rax+rcx*4]
    6e9b:	mov    ecx,DWORD PTR [r9+rcx*4]
    6e9f:	xor    ecx,DWORD PTR [r8+rbp*4]
    6ea3:	mov    ebp,r11d
    6ea6:	shr    ebp,0x10
    6ea9:	movzx  r11d,BYTE PTR [rax+rbx*4]
    6eae:	movzx  ebp,bpl
    6eb2:	movzx  ebp,BYTE PTR [rax+rbp*4]
    6eb6:	xor    ecx,DWORD PTR [rdi+rbp*4]
    6eb9:	xor    ecx,DWORD PTR [rsi+r11*4]
    6ebd:	mov    r11d,DWORD PTR [rdx+0x8]
    6ec1:	movzx  ebp,r11b
    6ec5:	mov    ebx,r11d
    6ec8:	mov    DWORD PTR [rdx+0x4],ecx
    6ecb:	mov    ecx,r11d
    6ece:	movzx  ebp,BYTE PTR [rax+rbp*4]
    6ed2:	shr    ecx,0x18
    6ed5:	movzx  ebx,bh
    6ed8:	movzx  ecx,BYTE PTR [rax+rcx*4]
    6edc:	mov    ecx,DWORD PTR [r9+rcx*4]
    6ee0:	xor    ecx,DWORD PTR [r8+rbp*4]
    6ee4:	mov    ebp,r11d
    6ee7:	shr    ebp,0x10
    6eea:	movzx  r11d,BYTE PTR [rax+rbx*4]
    6eef:	movzx  ebp,bpl
    6ef3:	movzx  ebp,BYTE PTR [rax+rbp*4]
    6ef7:	xor    ecx,DWORD PTR [rdi+rbp*4]
    6efa:	xor    ecx,DWORD PTR [rsi+r11*4]
    6efe:	mov    r11d,DWORD PTR [rdx+0xc]
    6f02:	movzx  ebp,r11b
    6f06:	mov    ebx,r11d
    6f09:	mov    DWORD PTR [rdx+0x8],ecx
    6f0c:	mov    ecx,r11d
    6f0f:	movzx  ebx,bh
    6f12:	shr    ecx,0x18
    6f15:	movzx  ecx,BYTE PTR [rax+rcx*4]
    6f19:	movzx  ebp,BYTE PTR [rax+rbp*4]
    6f1d:	mov    ecx,DWORD PTR [r9+rcx*4]
    6f21:	xor    ecx,DWORD PTR [r8+rbp*4]
    6f25:	mov    ebp,r11d
    6f28:	shr    ebp,0x10
    6f2b:	movzx  r11d,BYTE PTR [rax+rbx*4]
    6f30:	movzx  ebp,bpl
    6f34:	movzx  ebp,BYTE PTR [rax+rbp*4]
    6f38:	xor    ecx,DWORD PTR [rdi+rbp*4]
    6f3b:	xor    ecx,DWORD PTR [rsi+r11*4]
    6f3f:	mov    DWORD PTR [rdx+0xc],ecx
    6f42:	cmp    DWORD PTR [r14+0xf0],r10d
    6f49:	jg     6e38 <AES_set_decrypt_key+0xc8>
    6f4f:	xor    eax,eax
    6f51:	pop    rbx
    6f52:	pop    rbp
    6f53:	pop    r14
    6f55:	ret    
    6f56:	nop    WORD PTR cs:[rax+rax*1+0x0]

0000000000006f60 <AES_encrypt>:
    6f60:	push   r15
    6f62:	push   r14
    6f64:	lea    r11,[rip+0x176d5]        # 1e640 <Te0>
    6f6b:	push   r13
    6f6d:	push   r12
    6f6f:	lea    r10,[rip+0x16aca]        # 1da40 <Te3>
    6f76:	push   rbp
    6f77:	push   rbx
    6f78:	mov    rbx,rdx
    6f7b:	movzx  eax,BYTE PTR [rdi]
    6f7e:	movzx  ebp,BYTE PTR [rdi+0x4]
    6f82:	lea    r9,[rip+0x172b7]        # 1e240 <Te1>
    6f89:	mov    QWORD PTR [rsp-0x18],rdx
    6f8e:	movzx  edx,BYTE PTR [rdi+0x1]
    6f92:	lea    r8,[rip+0x16ea7]        # 1de40 <Te2>
    6f99:	movzx  r12d,BYTE PTR [rdi+0x8]
    6f9e:	mov    QWORD PTR [rsp-0x10],rsi
    6fa3:	movzx  esi,BYTE PTR [rdi+0xc]
    6fa7:	movzx  ecx,BYTE PTR [rdi+0x2]
    6fab:	shl    eax,0x18
    6fae:	shl    ebp,0x18
    6fb1:	shl    edx,0x10
    6fb4:	xor    eax,edx
    6fb6:	movzx  edx,BYTE PTR [rdi+0x3]
    6fba:	shl    r12d,0x18
    6fbe:	shl    esi,0x18
    6fc1:	shl    ecx,0x8
    6fc4:	xor    eax,edx
    6fc6:	movzx  edx,BYTE PTR [rdi+0x5]
    6fca:	xor    eax,ecx
    6fcc:	xor    eax,DWORD PTR [rbx]
    6fce:	shl    edx,0x10
    6fd1:	xor    ebp,edx
    6fd3:	movzx  edx,BYTE PTR [rdi+0x7]
    6fd7:	xor    ebp,edx
    6fd9:	movzx  edx,BYTE PTR [rdi+0x6]
    6fdd:	shl    edx,0x8
    6fe0:	xor    ebp,edx
    6fe2:	movzx  edx,BYTE PTR [rdi+0x9]
    6fe6:	xor    ebp,DWORD PTR [rbx+0x4]
    6fe9:	shl    edx,0x10
    6fec:	xor    r12d,edx
    6fef:	movzx  edx,BYTE PTR [rdi+0xb]
    6ff3:	xor    r12d,edx
    6ff6:	movzx  edx,BYTE PTR [rdi+0xa]
    6ffa:	shl    edx,0x8
    6ffd:	xor    r12d,edx
    7000:	movzx  edx,BYTE PTR [rdi+0xd]
    7004:	xor    r12d,DWORD PTR [rbx+0x8]
    7008:	shl    edx,0x10
    700b:	xor    esi,edx
    700d:	movzx  edx,BYTE PTR [rdi+0xf]
    7011:	xor    esi,edx
    7013:	movzx  edx,BYTE PTR [rdi+0xe]
    7017:	mov    rdi,rbx
    701a:	shl    edx,0x8
    701d:	xor    esi,edx
    701f:	xor    esi,DWORD PTR [rbx+0xc]
    7022:	mov    ebx,DWORD PTR [rbx+0xf0]
    7028:	mov    ecx,ebx
    702a:	mov    DWORD PTR [rsp-0x40],ebx
    702e:	sar    ecx,1
    7030:	lea    edx,[rcx-0x1]
    7033:	mov    DWORD PTR [rsp-0x4],edx
    7037:	add    rdx,0x1
    703b:	shl    rdx,0x5
    703f:	add    rdx,rdi
    7042:	mov    QWORD PTR [rsp-0x20],rdx
    7047:	jmp    70c6 <AES_encrypt+0x166>
    7049:	nop    DWORD PTR [rax+0x0]
    7050:	mov    eax,DWORD PTR [r11+r12*4]
    7054:	xor    eax,DWORD PTR [r10+r13*4]
    7058:	mov    esi,esi
    705a:	mov    ecx,DWORD PTR [rsp-0x3c]
    705e:	mov    ebx,ebx
    7060:	xor    eax,r14d
    7063:	xor    eax,DWORD PTR [r9+rbp*4]
    7067:	xor    eax,DWORD PTR [r8+rsi*4]
    706b:	mov    esi,DWORD PTR [rsp-0x30]
    706f:	mov    ebp,DWORD PTR [r11+rcx*4]
    7073:	mov    ecx,DWORD PTR [rsp-0x38]
    7077:	xor    ebp,DWORD PTR [r10+rsi*4]
    707b:	xor    ebp,DWORD PTR [rdi+0x4]
    707e:	xor    ebp,DWORD PTR [r9+rcx*4]
    7082:	mov    ecx,DWORD PTR [rsp-0x34]
    7086:	xor    ebp,DWORD PTR [r8+rcx*4]
    708a:	mov    ecx,DWORD PTR [rsp-0x2c]
    708e:	mov    r12d,DWORD PTR [r11+rcx*4]
    7092:	xor    r12d,DWORD PTR [r10+r15*4]
    7096:	mov    r15d,DWORD PTR [rsp-0x28]
    709b:	mov    ecx,DWORD PTR [rsp-0x24]
    709f:	xor    r12d,DWORD PTR [rdi+0x8]
    70a3:	xor    r12d,DWORD PTR [r9+r15*4]
    70a7:	xor    r12d,DWORD PTR [r8+rcx*4]
    70ab:	mov    ecx,DWORD PTR [rsp-0x8]
    70af:	mov    esi,DWORD PTR [r11+rcx*4]
    70b3:	mov    ecx,DWORD PTR [rsp-0x40]
    70b7:	xor    esi,DWORD PTR [r10+rdx*4]
    70bb:	xor    esi,DWORD PTR [rdi+0xc]
    70be:	xor    esi,DWORD PTR [r9+rcx*4]
    70c2:	xor    esi,DWORD PTR [r8+rbx*4]
    70c6:	mov    edx,eax
    70c8:	movzx  ebx,sil
    70cc:	movzx  r13d,al
    70d0:	shr    edx,0x18
    70d3:	add    rdi,0x20
    70d7:	mov    ecx,DWORD PTR [r11+rdx*4]
    70db:	mov    edx,ebp
    70dd:	xor    ecx,DWORD PTR [r10+rbx*4]
    70e1:	shr    edx,0x10
    70e4:	xor    ecx,DWORD PTR [rdi-0x10]
    70e7:	mov    ebx,r12d
    70ea:	movzx  edx,dl
    70ed:	xor    ecx,DWORD PTR [r9+rdx*4]
    70f1:	movzx  edx,bh
    70f4:	xor    ecx,DWORD PTR [r8+rdx*4]
    70f8:	mov    edx,ebp
    70fa:	shr    edx,0x18
    70fd:	mov    ebx,DWORD PTR [r11+rdx*4]
    7101:	mov    edx,r12d
    7104:	xor    ebx,DWORD PTR [r10+r13*4]
    7108:	shr    edx,0x10
    710b:	xor    ebx,DWORD PTR [rdi-0xc]
    710e:	movzx  r13d,bpl
    7112:	movzx  edx,dl
    7115:	mov    r14d,ecx
    7118:	movzx  ecx,ah
    711b:	xor    ebx,DWORD PTR [r9+rdx*4]
    711f:	mov    edx,esi
    7121:	shr    eax,0x10
    7124:	movzx  edx,dh
    7127:	movzx  eax,al
    712a:	mov    DWORD PTR [rsp-0x40],r14d
    712f:	xor    ebx,DWORD PTR [r8+rdx*4]
    7133:	mov    edx,r12d
    7136:	movzx  r12d,r12b
    713a:	shr    edx,0x18
    713d:	mov    edx,DWORD PTR [r11+rdx*4]
    7141:	xor    edx,DWORD PTR [r10+r13*4]
    7145:	mov    r13d,esi
    7148:	shr    r13d,0x10
    714c:	xor    edx,DWORD PTR [rdi-0x8]
    714f:	shr    esi,0x18
    7152:	movzx  r13d,r13b
    7156:	mov    esi,DWORD PTR [r11+rsi*4]
    715a:	xor    esi,DWORD PTR [r10+r12*4]
    715e:	xor    edx,DWORD PTR [r9+r13*4]
    7162:	xor    esi,DWORD PTR [rdi-0x4]
    7165:	mov    r12d,r14d
    7168:	xor    edx,DWORD PTR [r8+rcx*4]
    716c:	xor    esi,DWORD PTR [r9+rax*4]
    7170:	mov    ecx,ebp
    7172:	mov    r14d,DWORD PTR [rdi]
    7175:	mov    ebp,ebx
    7177:	shr    r12d,0x18
    717b:	shr    ebp,0x10
    717e:	movzx  ebp,bpl
    7182:	mov    r15d,edx
    7185:	mov    eax,esi
    7187:	movzx  esi,ch
    718a:	shr    r15d,0x10
    718e:	xor    eax,DWORD PTR [r8+rsi*4]
    7192:	mov    ecx,ebx
    7194:	movzx  r15d,r15b
    7198:	shr    ecx,0x18
    719b:	movzx  esi,dh
    719e:	mov    DWORD PTR [rsp-0x38],r15d
    71a3:	movzx  r15d,BYTE PTR [rsp-0x40]
    71a9:	mov    DWORD PTR [rsp-0x3c],ecx
    71ad:	movzx  ecx,ah
    71b0:	movzx  r13d,al
    71b4:	mov    DWORD PTR [rsp-0x34],ecx
    71b8:	mov    DWORD PTR [rsp-0x30],r15d
    71bd:	mov    r15d,edx
    71c0:	movzx  edx,dl
    71c3:	shr    r15d,0x18
    71c7:	mov    DWORD PTR [rsp-0x2c],r15d
    71cc:	mov    r15d,eax
    71cf:	shr    eax,0x18
    71d2:	shr    r15d,0x10
    71d6:	mov    DWORD PTR [rsp-0x8],eax
    71da:	movzx  ecx,r15b
    71de:	movzx  r15d,bl
    71e2:	movzx  ebx,bh
    71e5:	mov    DWORD PTR [rsp-0x28],ecx
    71e9:	mov    ecx,DWORD PTR [rsp-0x40]
    71ed:	movzx  ecx,ch
    71f0:	mov    DWORD PTR [rsp-0x24],ecx
    71f4:	mov    ecx,DWORD PTR [rsp-0x40]
    71f8:	shr    ecx,0x10
    71fb:	cmp    rdi,QWORD PTR [rsp-0x20]
    7200:	movzx  eax,cl
    7203:	mov    DWORD PTR [rsp-0x40],eax
    7207:	jne    7050 <AES_encrypt+0xf0>
    720d:	mov    ecx,DWORD PTR [rsp-0x4]
    7211:	mov    r8,QWORD PTR [rsp-0x18]
    7216:	lea    rdi,[rip+0x16423]        # 1d640 <Te4>
    721d:	mov    eax,r14d
    7220:	mov    r14d,esi
    7223:	mov    r9,QWORD PTR [rsp-0x10]
    7228:	movzx  esi,BYTE PTR [rdi+r13*4]
    722d:	mov    ebx,ebx
    722f:	add    rcx,0x1
    7233:	shl    rcx,0x5
    7237:	add    r8,rcx
    723a:	mov    ecx,DWORD PTR [rdi+r14*4]
    723e:	and    ecx,0xff00
    7244:	or     ecx,esi
    7246:	mov    esi,DWORD PTR [rdi+rbp*4]
    7249:	xor    eax,ecx
    724b:	mov    ecx,DWORD PTR [rdi+r12*4]
    724f:	and    esi,0xff0000
    7255:	and    ecx,0xff000000
    725b:	or     ecx,esi
    725d:	xor    eax,ecx
    725f:	mov    ecx,eax
    7261:	mov    BYTE PTR [r9+0x3],al
    7265:	shr    ecx,0x18
    7268:	mov    BYTE PTR [r9],cl
    726b:	mov    ecx,eax
    726d:	shr    ecx,0x10
    7270:	mov    BYTE PTR [r9+0x1],cl
    7274:	movzx  ecx,ah
    7277:	mov    eax,DWORD PTR [rsp-0x34]
    727b:	mov    BYTE PTR [r9+0x2],cl
    727f:	mov    ecx,DWORD PTR [rsp-0x3c]
    7283:	mov    esi,DWORD PTR [rdi+rax*4]
    7286:	mov    eax,DWORD PTR [rsp-0x30]
    728a:	and    esi,0xff00
    7290:	movzx  eax,BYTE PTR [rdi+rax*4]
    7294:	or     esi,eax
    7296:	mov    eax,DWORD PTR [rdi+rcx*4]
    7299:	xor    esi,DWORD PTR [r8+0x4]
    729d:	and    eax,0xff000000
    72a2:	mov    ecx,eax
    72a4:	mov    eax,DWORD PTR [rsp-0x38]
    72a8:	mov    eax,DWORD PTR [rdi+rax*4]
    72ab:	and    eax,0xff0000
    72b0:	or     eax,ecx
    72b2:	movzx  ecx,BYTE PTR [rdi+r15*4]
    72b7:	mov    r15d,DWORD PTR [rsp-0x28]
    72bc:	xor    esi,eax
    72be:	mov    eax,esi
    72c0:	mov    BYTE PTR [r9+0x7],sil
    72c4:	shr    eax,0x18
    72c7:	mov    BYTE PTR [r9+0x4],al
    72cb:	mov    eax,esi
    72cd:	shr    eax,0x10
    72d0:	mov    BYTE PTR [r9+0x5],al
    72d4:	mov    eax,esi
    72d6:	mov    esi,DWORD PTR [rdi+r15*4]
    72da:	movzx  eax,ah
    72dd:	mov    BYTE PTR [r9+0x6],al
    72e1:	mov    eax,DWORD PTR [rsp-0x24]
    72e5:	and    esi,0xff0000
    72eb:	mov    eax,DWORD PTR [rdi+rax*4]
    72ee:	and    eax,0xff00
    72f3:	or     eax,ecx
    72f5:	xor    eax,DWORD PTR [r8+0x8]
    72f9:	mov    ecx,eax
    72fb:	mov    eax,DWORD PTR [rsp-0x2c]
    72ff:	mov    eax,DWORD PTR [rdi+rax*4]
    7302:	and    eax,0xff000000
    7307:	or     eax,esi
    7309:	xor    eax,ecx
    730b:	mov    ecx,eax
    730d:	shr    ecx,0x18
    7310:	mov    BYTE PTR [r9+0x8],cl
    7314:	mov    ecx,eax
    7316:	mov    BYTE PTR [r9+0xb],al
    731a:	shr    ecx,0x10
    731d:	mov    esi,DWORD PTR [rsp-0x8]
    7321:	movzx  edx,BYTE PTR [rdi+rdx*4]
    7325:	mov    BYTE PTR [r9+0x9],cl
    7329:	movzx  ecx,ah
    732c:	mov    eax,DWORD PTR [rdi+rbx*4]
    732f:	mov    BYTE PTR [r9+0xa],cl
    7333:	mov    ecx,DWORD PTR [rsp-0x40]
    7337:	and    eax,0xff00
    733c:	or     eax,edx
    733e:	mov    edx,DWORD PTR [rdi+rsi*4]
    7341:	xor    eax,DWORD PTR [r8+0xc]
    7345:	mov    ecx,DWORD PTR [rdi+rcx*4]
    7348:	and    edx,0xff000000
    734e:	and    ecx,0xff0000
    7354:	or     edx,ecx
    7356:	xor    eax,edx
    7358:	mov    edx,eax
    735a:	movzx  ebx,ah
    735d:	mov    BYTE PTR [r9+0xf],al
    7361:	shr    edx,0x18
    7364:	mov    BYTE PTR [r9+0xe],bl
    7368:	mov    BYTE PTR [r9+0xc],dl
    736c:	mov    edx,eax
    736e:	shr    edx,0x10
    7371:	mov    BYTE PTR [r9+0xd],dl
    7375:	pop    rbx
    7376:	pop    rbp
    7377:	pop    r12
    7379:	pop    r13
    737b:	pop    r14
    737d:	pop    r15
    737f:	ret    

0000000000007380 <AES_decrypt>:
    7380:	push   r15
    7382:	push   r14
    7384:	lea    r11,[rip+0x15eb5]        # 1d240 <Td0>
    738b:	push   r13
    738d:	push   r12
    738f:	lea    r10,[rip+0x152aa]        # 1c640 <Td3>
    7396:	push   rbp
    7397:	push   rbx
    7398:	mov    rbx,rdx
    739b:	movzx  eax,BYTE PTR [rdi]
    739e:	movzx  ebp,BYTE PTR [rdi+0x4]
    73a2:	lea    r9,[rip+0x15a97]        # 1ce40 <Td1>
    73a9:	mov    QWORD PTR [rsp-0x18],rdx
    73ae:	movzx  edx,BYTE PTR [rdi+0x1]
    73b2:	lea    r8,[rip+0x15687]        # 1ca40 <Td2>
    73b9:	movzx  r12d,BYTE PTR [rdi+0x8]
    73be:	mov    QWORD PTR [rsp-0x10],rsi
    73c3:	movzx  esi,BYTE PTR [rdi+0xc]
    73c7:	movzx  ecx,BYTE PTR [rdi+0x2]
    73cb:	shl    eax,0x18
    73ce:	shl    ebp,0x18
    73d1:	shl    edx,0x10
    73d4:	xor    eax,edx
    73d6:	movzx  edx,BYTE PTR [rdi+0x3]
    73da:	shl    r12d,0x18
    73de:	shl    esi,0x18
    73e1:	shl    ecx,0x8
    73e4:	xor    eax,edx
    73e6:	movzx  edx,BYTE PTR [rdi+0x5]
    73ea:	xor    eax,ecx
    73ec:	xor    eax,DWORD PTR [rbx]
    73ee:	shl    edx,0x10
    73f1:	xor    ebp,edx
    73f3:	movzx  edx,BYTE PTR [rdi+0x7]
    73f7:	xor    ebp,edx
    73f9:	movzx  edx,BYTE PTR [rdi+0x6]
    73fd:	shl    edx,0x8
    7400:	xor    ebp,edx
    7402:	movzx  edx,BYTE PTR [rdi+0x9]
    7406:	xor    ebp,DWORD PTR [rbx+0x4]
    7409:	shl    edx,0x10
    740c:	xor    r12d,edx
    740f:	movzx  edx,BYTE PTR [rdi+0xb]
    7413:	xor    r12d,edx
    7416:	movzx  edx,BYTE PTR [rdi+0xa]
    741a:	shl    edx,0x8
    741d:	xor    r12d,edx
    7420:	movzx  edx,BYTE PTR [rdi+0xd]
    7424:	xor    r12d,DWORD PTR [rbx+0x8]
    7428:	shl    edx,0x10
    742b:	xor    esi,edx
    742d:	movzx  edx,BYTE PTR [rdi+0xf]
    7431:	xor    esi,edx
    7433:	movzx  edx,BYTE PTR [rdi+0xe]
    7437:	mov    rdi,rbx
    743a:	shl    edx,0x8
    743d:	xor    esi,edx
    743f:	xor    esi,DWORD PTR [rbx+0xc]
    7442:	mov    ebx,DWORD PTR [rbx+0xf0]
    7448:	mov    ecx,ebx
    744a:	mov    DWORD PTR [rsp-0x44],ebx
    744e:	sar    ecx,1
    7450:	lea    edx,[rcx-0x1]
    7453:	mov    DWORD PTR [rsp-0x4],edx
    7457:	add    rdx,0x1
    745b:	shl    rdx,0x5
    745f:	add    rdx,rdi
    7462:	mov    QWORD PTR [rsp-0x20],rdx
    7467:	jmp    74e6 <AES_decrypt+0x166>
    7469:	nop    DWORD PTR [rax+0x0]
    7470:	mov    eax,DWORD PTR [r11+r12*4]
    7474:	xor    eax,DWORD PTR [r10+r13*4]
    7478:	mov    esi,esi
    747a:	mov    ecx,DWORD PTR [rsp-0x40]
    747e:	mov    ebx,ebx
    7480:	xor    eax,r14d
    7483:	xor    eax,DWORD PTR [r9+rbp*4]
    7487:	xor    eax,DWORD PTR [r8+rsi*4]
    748b:	mov    esi,DWORD PTR [rsp-0x34]
    748f:	mov    ebp,DWORD PTR [r11+rcx*4]
    7493:	mov    ecx,DWORD PTR [rsp-0x3c]
    7497:	xor    ebp,DWORD PTR [r10+rsi*4]
    749b:	xor    ebp,DWORD PTR [rdi+0x4]
    749e:	xor    ebp,DWORD PTR [r9+rcx*4]
    74a2:	mov    ecx,DWORD PTR [rsp-0x38]
    74a6:	xor    ebp,DWORD PTR [r8+rcx*4]
    74aa:	mov    ecx,DWORD PTR [rsp-0x30]
    74ae:	mov    r12d,DWORD PTR [r11+rcx*4]
    74b2:	xor    r12d,DWORD PTR [r10+r15*4]
    74b6:	mov    r15d,DWORD PTR [rsp-0x2c]
    74bb:	mov    ecx,DWORD PTR [rsp-0x28]
    74bf:	xor    r12d,DWORD PTR [rdi+0x8]
    74c3:	xor    r12d,DWORD PTR [r9+r15*4]
    74c7:	xor    r12d,DWORD PTR [r8+rcx*4]
    74cb:	mov    ecx,DWORD PTR [rsp-0x24]
    74cf:	mov    esi,DWORD PTR [r11+rcx*4]
    74d3:	mov    ecx,DWORD PTR [rsp-0x8]
    74d7:	xor    esi,DWORD PTR [r10+rdx*4]
    74db:	xor    esi,DWORD PTR [rdi+0xc]
    74de:	xor    esi,DWORD PTR [r9+rcx*4]
    74e2:	xor    esi,DWORD PTR [r8+rbx*4]
    74e6:	mov    edx,eax
    74e8:	movzx  ecx,bpl
    74ec:	mov    ebx,r12d
    74ef:	shr    edx,0x18
    74f2:	movzx  r13d,r12b
    74f6:	movzx  r14d,al
    74fa:	mov    edx,DWORD PTR [r11+rdx*4]
    74fe:	xor    edx,DWORD PTR [r10+rcx*4]
    7502:	mov    ecx,esi
    7504:	shr    ecx,0x10
    7507:	xor    edx,DWORD PTR [rdi+0x10]
    750a:	add    rdi,0x20
    750e:	movzx  ecx,cl
    7511:	xor    edx,DWORD PTR [r9+rcx*4]
    7515:	movzx  ecx,bh
    7518:	xor    edx,DWORD PTR [r8+rcx*4]
    751c:	mov    ecx,ebp
    751e:	shr    ecx,0x18
    7521:	mov    ebx,DWORD PTR [r11+rcx*4]
    7525:	mov    ecx,eax
    7527:	xor    ebx,DWORD PTR [r10+r13*4]
    752b:	shr    ecx,0x10
    752e:	xor    ebx,DWORD PTR [rdi-0xc]
    7531:	movzx  r13d,sil
    7535:	movzx  ecx,cl
    7538:	mov    r15d,edx
    753b:	movzx  edx,ah
    753e:	xor    ebx,DWORD PTR [r9+rcx*4]
    7542:	mov    ecx,esi
    7544:	shr    esi,0x18
    7547:	movzx  ecx,ch
    754a:	mov    eax,DWORD PTR [r11+rsi*4]
    754e:	xor    eax,DWORD PTR [r10+r14*4]
    7552:	xor    ebx,DWORD PTR [r8+rcx*4]
    7556:	mov    ecx,r12d
    7559:	shr    r12d,0x10
    755d:	shr    ecx,0x18
    7560:	xor    eax,DWORD PTR [rdi-0x4]
    7563:	movzx  r12d,r12b
    7567:	mov    ecx,DWORD PTR [r11+rcx*4]
    756b:	xor    ecx,DWORD PTR [r10+r13*4]
    756f:	mov    r13d,ebp
    7572:	shr    r13d,0x10
    7576:	xor    ecx,DWORD PTR [rdi-0x8]
    7579:	xor    eax,DWORD PTR [r9+r12*4]
    757d:	movzx  r13d,r13b
    7581:	mov    DWORD PTR [rsp-0x44],r15d
    7586:	mov    r12d,r15d
    7589:	xor    ecx,DWORD PTR [r9+r13*4]
    758d:	shr    r15d,0x10
    7591:	shr    r12d,0x18
    7595:	xor    ecx,DWORD PTR [r8+rdx*4]
    7599:	mov    edx,ebp
    759b:	movzx  r15d,r15b
    759f:	movzx  esi,dh
    75a2:	mov    DWORD PTR [rsp-0x3c],r15d
    75a7:	mov    edx,ebx
    75a9:	xor    eax,DWORD PTR [r8+rsi*4]
    75ad:	shr    edx,0x18
    75b0:	mov    r14d,DWORD PTR [rdi]
    75b3:	mov    DWORD PTR [rsp-0x40],edx
    75b7:	movzx  r13d,bl
    75bb:	movzx  r15d,cl
    75bf:	movzx  esi,ch
    75c2:	mov    DWORD PTR [rsp-0x34],r15d
    75c7:	mov    r15d,ecx
    75ca:	shr    r15d,0x18
    75ce:	movzx  edx,ah
    75d1:	mov    ebp,eax
    75d3:	mov    DWORD PTR [rsp-0x30],r15d
    75d8:	mov    r15d,ebx
    75db:	mov    DWORD PTR [rsp-0x38],edx
    75df:	shr    r15d,0x10
    75e3:	shr    ebp,0x10
    75e6:	movzx  ebx,bh
    75e9:	movzx  edx,r15b
    75ed:	movzx  r15d,al
    75f1:	shr    eax,0x18
    75f4:	mov    DWORD PTR [rsp-0x2c],edx
    75f8:	mov    edx,DWORD PTR [rsp-0x44]
    75fc:	shr    ecx,0x10
    75ff:	mov    DWORD PTR [rsp-0x24],eax
    7603:	movzx  eax,cl
    7606:	movzx  ebp,bpl
    760a:	mov    DWORD PTR [rsp-0x8],eax
    760e:	movzx  edx,dh
    7611:	mov    DWORD PTR [rsp-0x28],edx
    7615:	movzx  edx,BYTE PTR [rsp-0x44]
    761a:	cmp    rdi,QWORD PTR [rsp-0x20]
    761f:	jne    7470 <AES_decrypt+0xf0>
    7625:	mov    ecx,DWORD PTR [rsp-0x4]
    7629:	mov    r8,QWORD PTR [rsp-0x18]
    762e:	lea    rdi,[rip+0x14c0b]        # 1c240 <Td4>
    7635:	mov    eax,r14d
    7638:	mov    r14d,esi
    763b:	mov    ebx,ebx
    763d:	movzx  esi,BYTE PTR [rdi+r13*4]
    7642:	add    rcx,0x1
    7646:	shl    rcx,0x5
    764a:	add    r8,rcx
    764d:	mov    ecx,DWORD PTR [rdi+r14*4]
    7651:	mov    r14,QWORD PTR [rsp-0x10]
    7656:	and    ecx,0xff00
    765c:	or     ecx,esi
    765e:	mov    esi,DWORD PTR [rdi+rbp*4]
    7661:	xor    eax,ecx
    7663:	mov    ecx,DWORD PTR [rdi+r12*4]
    7667:	and    esi,0xff0000
    766d:	and    ecx,0xff000000
    7673:	or     ecx,esi
    7675:	xor    eax,ecx
    7677:	mov    ecx,eax
    7679:	mov    BYTE PTR [r14+0x3],al
    767d:	shr    ecx,0x18
    7680:	mov    BYTE PTR [r14],cl
    7683:	mov    ecx,eax
    7685:	shr    ecx,0x10
    7688:	mov    BYTE PTR [r14+0x1],cl
    768c:	movzx  ecx,ah
    768f:	mov    eax,DWORD PTR [rsp-0x38]
    7693:	mov    BYTE PTR [r14+0x2],cl
    7697:	mov    ecx,DWORD PTR [rsp-0x40]
    769b:	mov    esi,DWORD PTR [rdi+rax*4]
    769e:	mov    eax,DWORD PTR [rsp-0x34]
    76a2:	and    esi,0xff00
    76a8:	movzx  eax,BYTE PTR [rdi+rax*4]
    76ac:	or     esi,eax
    76ae:	mov    eax,DWORD PTR [rdi+rcx*4]
    76b1:	xor    esi,DWORD PTR [r8+0x4]
    76b5:	and    eax,0xff000000
    76ba:	mov    ecx,eax
    76bc:	mov    eax,DWORD PTR [rsp-0x3c]
    76c0:	mov    eax,DWORD PTR [rdi+rax*4]
    76c3:	and    eax,0xff0000
    76c8:	or     eax,ecx
    76ca:	movzx  ecx,BYTE PTR [rdi+r15*4]
    76cf:	mov    r15d,DWORD PTR [rsp-0x2c]
    76d4:	xor    esi,eax
    76d6:	mov    eax,esi
    76d8:	mov    BYTE PTR [r14+0x7],sil
    76dc:	shr    eax,0x18
    76df:	mov    BYTE PTR [r14+0x4],al
    76e3:	mov    eax,esi
    76e5:	shr    eax,0x10
    76e8:	mov    BYTE PTR [r14+0x5],al
    76ec:	mov    eax,esi
    76ee:	mov    esi,DWORD PTR [rdi+r15*4]
    76f2:	movzx  eax,ah
    76f5:	mov    BYTE PTR [r14+0x6],al
    76f9:	mov    eax,DWORD PTR [rsp-0x28]
    76fd:	and    esi,0xff0000
    7703:	mov    eax,DWORD PTR [rdi+rax*4]
    7706:	and    eax,0xff00
    770b:	or     eax,ecx
    770d:	xor    eax,DWORD PTR [r8+0x8]
    7711:	mov    ecx,eax
    7713:	mov    eax,DWORD PTR [rsp-0x30]
    7717:	mov    eax,DWORD PTR [rdi+rax*4]
    771a:	and    eax,0xff000000
    771f:	or     eax,esi
    7721:	xor    eax,ecx
    7723:	mov    ecx,eax
    7725:	shr    ecx,0x18
    7728:	mov    BYTE PTR [r14+0x8],cl
    772c:	mov    ecx,eax
    772e:	mov    BYTE PTR [r14+0xb],al
    7732:	shr    ecx,0x10
    7735:	mov    esi,DWORD PTR [rsp-0x24]
    7739:	movzx  edx,BYTE PTR [rdi+rdx*4]
    773d:	mov    BYTE PTR [r14+0x9],cl
    7741:	movzx  ecx,ah
    7744:	mov    eax,DWORD PTR [rdi+rbx*4]
    7747:	mov    BYTE PTR [r14+0xa],cl
    774b:	mov    ecx,DWORD PTR [rsp-0x8]
    774f:	and    eax,0xff00
    7754:	or     eax,edx
    7756:	mov    edx,DWORD PTR [rdi+rsi*4]
    7759:	xor    eax,DWORD PTR [r8+0xc]
    775d:	mov    ecx,DWORD PTR [rdi+rcx*4]
    7760:	and    edx,0xff000000
    7766:	and    ecx,0xff0000
    776c:	or     edx,ecx
    776e:	xor    eax,edx
    7770:	mov    edx,eax
    7772:	movzx  ebx,ah
    7775:	mov    BYTE PTR [r14+0xf],al
    7779:	shr    edx,0x18
    777c:	mov    BYTE PTR [r14+0xe],bl
    7780:	mov    BYTE PTR [r14+0xc],dl
    7784:	mov    edx,eax
    7786:	shr    edx,0x10
    7789:	mov    BYTE PTR [r14+0xd],dl
    778d:	pop    rbx
    778e:	pop    rbp
    778f:	pop    r12
    7791:	pop    r13
    7793:	pop    r14
    7795:	pop    r15
    7797:	ret    
    7798:	nop    DWORD PTR [rax+rax*1+0x0]

00000000000077a0 <AES_cbc_encrypt>:
    77a0:	push   r15
    77a2:	push   r14
    77a4:	mov    r15,rsi
    77a7:	push   r13
    77a9:	push   r12
    77ab:	mov    r14,r8
    77ae:	push   rbp
    77af:	push   rbx
    77b0:	mov    r12,rdi
    77b3:	mov    rbx,rdx
    77b6:	sub    rsp,0x48
    77ba:	mov    rax,QWORD PTR fs:0x28
    77c3:	mov    QWORD PTR [rsp+0x38],rax
    77c8:	xor    eax,eax
    77ca:	test   r9d,r9d
    77cd:	mov    QWORD PTR [rsp+0x8],rcx
    77d2:	jne    7880 <AES_cbc_encrypt+0xe0>
    77d8:	cmp    rdx,0xf
    77dc:	jbe    7852 <AES_cbc_encrypt+0xb2>
    77de:	lea    rax,[rdx-0x10]
    77e2:	mov    r13,rdi
    77e5:	and    rax,0xfffffffffffffff0
    77e9:	lea    rbp,[rax+0x10]
    77ed:	lea    rax,[rsi+rbp*1]
    77f1:	mov    QWORD PTR [rsp+0x10],rax
    77f6:	nop    WORD PTR cs:[rax+rax*1+0x0]
    7800:	mov    rdx,QWORD PTR [rsp+0x8]
    7805:	mov    rsi,r15
    7808:	mov    rdi,r13
    780b:	movdqu xmm0,XMMWORD PTR [r13+0x0]
    7811:	movaps XMMWORD PTR [rsp+0x20],xmm0
    7816:	call   7380 <AES_decrypt>
    781b:	xor    eax,eax
    781d:	nop    DWORD PTR [rax]
    7820:	movzx  edx,BYTE PTR [r14+rax*1]
    7825:	xor    BYTE PTR [r15+rax*1],dl
    7829:	add    rax,0x1
    782d:	cmp    rax,0x10
    7831:	jne    7820 <AES_cbc_encrypt+0x80>
    7833:	add    r13,0x10
    7837:	add    r15,0x10
    783b:	cmp    r15,QWORD PTR [rsp+0x10]
    7840:	movdqa xmm0,XMMWORD PTR [rsp+0x20]
    7846:	movups XMMWORD PTR [r14],xmm0
    784a:	jne    7800 <AES_cbc_encrypt+0x60>
    784c:	and    ebx,0xf
    784f:	add    r12,rbp
    7852:	test   rbx,rbx
    7855:	jne    7967 <AES_cbc_encrypt+0x1c7>
    785b:	mov    rax,QWORD PTR [rsp+0x38]
    7860:	xor    rax,QWORD PTR fs:0x28
    7869:	jne    79b6 <AES_cbc_encrypt+0x216>
    786f:	add    rsp,0x48
    7873:	pop    rbx
    7874:	pop    rbp
    7875:	pop    r12
    7877:	pop    r13
    7879:	pop    r14
    787b:	pop    r15
    787d:	ret    
    787e:	xchg   ax,ax
    7880:	cmp    rdx,0xf
    7884:	jbe    7901 <AES_cbc_encrypt+0x161>
    7886:	lea    rax,[rdx-0x10]
    788a:	lea    r13,[rsp+0x20]
    788f:	mov    rbp,rdi
    7892:	and    rax,0xfffffffffffffff0
    7896:	add    rax,0x10
    789a:	mov    QWORD PTR [rsp+0x18],rax
    789f:	add    rax,rsi
    78a2:	mov    QWORD PTR [rsp+0x10],rax
    78a7:	nop    WORD PTR [rax+rax*1+0x0]
    78b0:	xor    eax,eax
    78b2:	nop    WORD PTR [rax+rax*1+0x0]
    78b8:	movzx  edx,BYTE PTR [rbp+rax*1+0x0]
    78bd:	xor    dl,BYTE PTR [r14+rax*1]
    78c1:	mov    BYTE PTR [r13+rax*1+0x0],dl
    78c6:	add    rax,0x1
    78ca:	cmp    rax,0x10
    78ce:	jne    78b8 <AES_cbc_encrypt+0x118>
    78d0:	mov    rdx,QWORD PTR [rsp+0x8]
    78d5:	mov    rsi,r15
    78d8:	mov    rdi,r13
    78db:	add    rbp,0x10
    78df:	add    r15,0x10
    78e3:	call   6f60 <AES_encrypt>
    78e8:	movdqu xmm0,XMMWORD PTR [r15-0x10]
    78ee:	cmp    r15,QWORD PTR [rsp+0x10]
    78f3:	movups XMMWORD PTR [r14],xmm0
    78f7:	jne    78b0 <AES_cbc_encrypt+0x110>
    78f9:	add    r12,QWORD PTR [rsp+0x18]
    78fe:	and    ebx,0xf
    7901:	test   rbx,rbx
    7904:	je     785b <AES_cbc_encrypt+0xbb>
    790a:	lea    r13,[rsp+0x20]
    790f:	xor    eax,eax
    7911:	nop    DWORD PTR [rax+0x0]
    7918:	movzx  edx,BYTE PTR [r12+rax*1]
    791d:	xor    dl,BYTE PTR [r14+rax*1]
    7921:	mov    BYTE PTR [r13+rax*1+0x0],dl
    7926:	add    rax,0x1
    792a:	cmp    rax,rbx
    792d:	jne    7918 <AES_cbc_encrypt+0x178>
    792f:	nop
    7930:	movzx  edx,BYTE PTR [r14+rax*1]
    7935:	mov    BYTE PTR [r13+rax*1+0x0],dl
    793a:	add    rax,0x1
    793e:	cmp    rax,0x10
    7942:	jne    7930 <AES_cbc_encrypt+0x190>
    7944:	mov    rdx,QWORD PTR [rsp+0x8]
    7949:	mov    rsi,r13
    794c:	mov    rdi,r13
    794f:	call   6f60 <AES_encrypt>
    7954:	movdqa xmm0,XMMWORD PTR [rsp+0x20]
    795a:	movups XMMWORD PTR [r15],xmm0
    795e:	movups XMMWORD PTR [r14],xmm0
    7962:	jmp    785b <AES_cbc_encrypt+0xbb>
    7967:	lea    r13,[rsp+0x20]
    796c:	mov    rdx,QWORD PTR [rsp+0x8]
    7971:	movdqu xmm0,XMMWORD PTR [r12]
    7977:	mov    rsi,r13
    797a:	mov    rdi,r13
    797d:	movaps XMMWORD PTR [rsp+0x20],xmm0
    7982:	call   7380 <AES_decrypt>
    7987:	xor    eax,eax
    7989:	nop    DWORD PTR [rax+0x0]
    7990:	movzx  edx,BYTE PTR [r13+rax*1+0x0]
    7996:	xor    dl,BYTE PTR [r14+rax*1]
    799a:	mov    BYTE PTR [r15+rax*1],dl
    799e:	add    rax,0x1
    79a2:	cmp    rax,rbx
    79a5:	jne    7990 <AES_cbc_encrypt+0x1f0>
    79a7:	movdqa xmm0,XMMWORD PTR [rsp+0x20]
    79ad:	movups XMMWORD PTR [r14],xmm0
    79b1:	jmp    785b <AES_cbc_encrypt+0xbb>
    79b6:	call   2f70 <__stack_chk_fail@plt>
    79bb:	nop    DWORD PTR [rax+rax*1+0x0]

00000000000079c0 <vmdk_flush>:
    79c0:	mov    rax,QWORD PTR [rdi+0x40]
    79c4:	mov    rdi,QWORD PTR [rax]
    79c7:	jmp    18700 <bdrv_flush>
    79cc:	nop    DWORD PTR [rax+0x0]

00000000000079d0 <vmdk_snapshot_create>:
    79d0:	push   r15
    79d2:	push   r14
    79d4:	mov    r15,rsi
    79d7:	push   r13
    79d9:	push   r12
    79db:	mov    edx,0x1a4
    79e0:	push   rbp
    79e1:	push   rbx
    79e2:	mov    esi,0x242
    79e7:	mov    rbp,rdi
    79ea:	sub    rsp,0x5248
    79f1:	mov    rax,QWORD PTR fs:0x28
    79fa:	mov    QWORD PTR [rsp+0x5238],rax
    7a02:	xor    eax,eax
    7a04:	call   32e0 <open64@plt>
    7a09:	test   eax,eax
    7a0b:	js     7d90 <vmdk_snapshot_create+0x3c0>
    7a11:	xor    esi,esi
    7a13:	mov    r12d,eax
    7a16:	mov    rdi,r15
    7a19:	xor    eax,eax
    7a1b:	call   32e0 <open64@plt>
    7a20:	test   eax,eax
    7a22:	mov    r13d,eax
    7a25:	js     7d78 <vmdk_snapshot_create+0x3a8>
    7a2b:	xor    edx,edx
    7a2d:	xor    esi,esi
    7a2f:	mov    edi,eax
    7a31:	call   33f0 <lseek64@plt>
    7a36:	cmp    rax,0xffffffffffffffff
    7a3a:	je     7d70 <vmdk_snapshot_create+0x3a0>
    7a40:	lea    rbx,[rsp+0x30]
    7a45:	mov    edx,0x200
    7a4a:	mov    edi,r13d
    7a4d:	mov    rsi,rbx
    7a50:	call   4300 <qemu_read_ok>
    7a55:	test   eax,eax
    7a57:	js     7d70 <vmdk_snapshot_create+0x3a0>
    7a5d:	xor    edx,edx
    7a5f:	xor    esi,esi
    7a61:	mov    edi,r12d
    7a64:	call   33f0 <lseek64@plt>
    7a69:	cmp    rax,0xffffffffffffffff
    7a6d:	je     7d70 <vmdk_snapshot_create+0x3a0>
    7a73:	mov    edx,0x200
    7a78:	mov    rsi,rbx
    7a7b:	mov    edi,r12d
    7a7e:	call   43d0 <qemu_write_ok>
    7a83:	cmp    eax,0xffffffff
    7a86:	je     7d70 <vmdk_snapshot_create+0x3a0>
    7a8c:	mov    rax,QWORD PTR [rsp+0x44]
    7a91:	mov    rsi,QWORD PTR [rsp+0x70]
    7a96:	mov    edi,r12d
    7a99:	mov    rbx,QWORD PTR [rsp+0x3c]
    7a9e:	mov    r14,QWORD PTR [rsp+0x68]
    7aa3:	mov    QWORD PTR [rsp+0x18],rax
    7aa8:	mov    eax,DWORD PTR [rsp+0x5c]
    7aac:	shl    rsi,0x9
    7ab0:	mov    DWORD PTR [rsp+0xc],eax
    7ab4:	mov    rax,QWORD PTR [rsp+0x60]
    7ab9:	mov    QWORD PTR [rsp+0x10],rax
    7abe:	call   32a0 <ftruncate64@plt>
    7ac3:	xor    edx,edx
    7ac5:	mov    esi,0x200
    7aca:	mov    edi,r13d
    7acd:	call   33f0 <lseek64@plt>
    7ad2:	cmp    rax,0xffffffffffffffff
    7ad6:	je     7d70 <vmdk_snapshot_create+0x3a0>
    7adc:	lea    rcx,[rsp+0x230]
    7ae4:	mov    edx,0x2800
    7ae9:	mov    edi,r13d
    7aec:	mov    rsi,rcx
    7aef:	mov    QWORD PTR [rsp],rcx
    7af3:	call   4300 <qemu_read_ok>
    7af8:	test   eax,eax
    7afa:	js     7d70 <vmdk_snapshot_create+0x3a0>
    7b00:	mov    rcx,QWORD PTR [rsp]
    7b04:	lea    rsi,[rip+0x16f3e]        # 1ea49 <Te0+0x409>
    7b0b:	mov    rdi,rcx
    7b0e:	call   3470 <strstr@plt>
    7b13:	test   rax,rax
    7b16:	je     7b2f <vmdk_snapshot_create+0x15f>
    7b18:	lea    rdi,[rax+0x4]
    7b1c:	lea    rdx,[rsp+0x2c]
    7b21:	lea    rsi,[rip+0x16f18]        # 1ea40 <Te0+0x400>
    7b28:	xor    eax,eax
    7b2a:	call   3250 <sscanf@plt>
    7b2f:	mov    rdi,rbp
    7b32:	mov    esi,0x5c
    7b37:	call   2fe0 <strrchr@plt>
    7b3c:	lea    rdx,[rax+0x1]
    7b40:	test   rax,rax
    7b43:	mov    esi,0x2f
    7b48:	cmovne rbp,rdx
    7b4c:	mov    rdi,rbp
    7b4f:	call   2fe0 <strrchr@plt>
    7b54:	lea    rdx,[rax+0x1]
    7b58:	test   rax,rax
    7b5b:	mov    esi,0x3a
    7b60:	cmovne rbp,rdx
    7b64:	mov    rdi,rbp
    7b67:	call   2fe0 <strrchr@plt>
    7b6c:	mov    r9d,DWORD PTR [rsp+0x2c]
    7b71:	lea    rdx,[rax+0x1]
    7b75:	test   rax,rax
    7b78:	lea    r10,[rsp+0x2a30]
    7b80:	lea    r8,[rip+0x16f39]        # 1eac0 <desc_template.13676>
    7b87:	mov    ecx,0x2800
    7b8c:	cmovne rbp,rdx
    7b90:	mov    esi,0x2800
    7b95:	mov    edx,0x1
    7b9a:	push   rbp
    7b9b:	push   rbx
    7b9c:	mov    rdi,r10
    7b9f:	push   r15
    7ba1:	push   r9
    7ba3:	xor    eax,eax
    7ba5:	mov    QWORD PTR [rsp+0x20],r10
    7baa:	call   2e30 <__snprintf_chk@plt>
    7baf:	add    rsp,0x20
    7bb3:	xor    edx,edx
    7bb5:	mov    esi,0x200
    7bba:	mov    edi,r12d
    7bbd:	call   33f0 <lseek64@plt>
    7bc2:	cmp    rax,0xffffffffffffffff
    7bc6:	je     7d70 <vmdk_snapshot_create+0x3a0>
    7bcc:	mov    r10,QWORD PTR [rsp]
    7bd0:	mov    rdx,r10
    7bd3:	mov    ecx,DWORD PTR [rdx]
    7bd5:	add    rdx,0x4
    7bd9:	lea    eax,[rcx-0x1010101]
    7bdf:	not    ecx
    7be1:	and    eax,ecx
    7be3:	and    eax,0x80808080
    7be8:	je     7bd3 <vmdk_snapshot_create+0x203>
    7bea:	mov    ecx,eax
    7bec:	mov    rsi,r10
    7bef:	mov    edi,r12d
    7bf2:	shr    ecx,0x10
    7bf5:	test   eax,0x8080
    7bfa:	cmove  eax,ecx
    7bfd:	lea    rcx,[rdx+0x2]
    7c01:	cmove  rdx,rcx
    7c05:	mov    ecx,eax
    7c07:	add    cl,al
    7c09:	sbb    rdx,0x3
    7c0d:	sub    rdx,r10
    7c10:	call   43d0 <qemu_write_ok>
    7c15:	cmp    eax,0xffffffff
    7c18:	je     7d70 <vmdk_snapshot_create+0x3a0>
    7c1e:	movsxd rcx,DWORD PTR [rsp+0xc]
    7c23:	mov    rbp,QWORD PTR [rsp+0x10]
    7c28:	mov    rax,rbx
    7c2b:	imul   rcx,QWORD PTR [rsp+0x18]
    7c31:	shl    r14,0x9
    7c35:	shl    rax,0x9
    7c39:	shl    rbp,0x9
    7c3d:	shl    rcx,0x9
    7c41:	test   rcx,rcx
    7c44:	je     7d70 <vmdk_snapshot_create+0x3a0>
    7c4a:	cqo    
    7c4c:	idiv   rcx
    7c4f:	lea    ebx,[rax*4+0x0]
    7c56:	mov    rdi,rbx
    7c59:	call   49d0 <qemu_malloc>
    7c5e:	xor    edx,edx
    7c60:	mov    rsi,rbp
    7c63:	mov    edi,r13d
    7c66:	mov    r15,rax
    7c69:	call   33f0 <lseek64@plt>
    7c6e:	cmp    rax,0xffffffffffffffff
    7c72:	je     7d68 <vmdk_snapshot_create+0x398>
    7c78:	mov    rdx,rbx
    7c7b:	mov    rsi,r15
    7c7e:	mov    edi,r13d
    7c81:	call   4300 <qemu_read_ok>
    7c86:	test   eax,eax
    7c88:	js     7d68 <vmdk_snapshot_create+0x398>
    7c8e:	xor    edx,edx
    7c90:	mov    rsi,rbp
    7c93:	mov    edi,r12d
    7c96:	call   33f0 <lseek64@plt>
    7c9b:	cmp    rax,0xffffffffffffffff
    7c9f:	je     7d68 <vmdk_snapshot_create+0x398>
    7ca5:	mov    rdx,rbx
    7ca8:	mov    rsi,r15
    7cab:	mov    edi,r12d
    7cae:	call   43d0 <qemu_write_ok>
    7cb3:	cmp    eax,0xffffffff
    7cb6:	je     7d68 <vmdk_snapshot_create+0x398>
    7cbc:	mov    rdi,r15
    7cbf:	call   49c0 <qemu_free>
    7cc4:	mov    rdi,rbx
    7cc7:	call   49d0 <qemu_malloc>
    7ccc:	xor    edx,edx
    7cce:	mov    rsi,r14
    7cd1:	mov    edi,r13d
    7cd4:	mov    rbp,rax
    7cd7:	call   33f0 <lseek64@plt>
    7cdc:	cmp    rax,0xffffffffffffffff
    7ce0:	je     7d60 <vmdk_snapshot_create+0x390>
    7ce2:	mov    rdx,rbx
    7ce5:	mov    rsi,rbp
    7ce8:	mov    edi,r13d
    7ceb:	call   4300 <qemu_read_ok>
    7cf0:	test   eax,eax
    7cf2:	js     7d60 <vmdk_snapshot_create+0x390>
    7cf4:	xor    edx,edx
    7cf6:	mov    rsi,r14
    7cf9:	mov    edi,r12d
    7cfc:	call   33f0 <lseek64@plt>
    7d01:	cmp    rax,0xffffffffffffffff
    7d05:	je     7d60 <vmdk_snapshot_create+0x390>
    7d07:	mov    rdx,rbx
    7d0a:	mov    rsi,rbp
    7d0d:	mov    edi,r12d
    7d10:	call   43d0 <qemu_write_ok>
    7d15:	cmp    eax,0xffffffff
    7d18:	je     7d60 <vmdk_snapshot_create+0x390>
    7d1a:	mov    rdi,rbp
    7d1d:	call   49c0 <qemu_free>
    7d22:	mov    edi,r13d
    7d25:	call   3040 <close@plt>
    7d2a:	mov    edi,r12d
    7d2d:	call   3040 <close@plt>
    7d32:	xor    eax,eax
    7d34:	mov    rbx,QWORD PTR [rsp+0x5238]
    7d3c:	xor    rbx,QWORD PTR fs:0x28
    7d45:	jne    7d97 <vmdk_snapshot_create+0x3c7>
    7d47:	add    rsp,0x5248
    7d4e:	pop    rbx
    7d4f:	pop    rbp
    7d50:	pop    r12
    7d52:	pop    r13
    7d54:	pop    r14
    7d56:	pop    r15
    7d58:	ret    
    7d59:	nop    DWORD PTR [rax+0x0]
    7d60:	mov    rdi,rbp
    7d63:	call   49c0 <qemu_free>
    7d68:	mov    rdi,r15
    7d6b:	call   49c0 <qemu_free>
    7d70:	mov    edi,r13d
    7d73:	call   3040 <close@plt>
    7d78:	mov    edi,r12d
    7d7b:	call   3040 <close@plt>
    7d80:	mov    eax,0xffffffff
    7d85:	jmp    7d34 <vmdk_snapshot_create+0x364>
    7d87:	nop    WORD PTR [rax+rax*1+0x0]
    7d90:	mov    eax,0xffffffff
    7d95:	jmp    7d34 <vmdk_snapshot_create+0x364>
    7d97:	call   2f70 <__stack_chk_fail@plt>
    7d9c:	nop    DWORD PTR [rax+0x0]

0000000000007da0 <vmdk_close>:
    7da0:	push   rbx
    7da1:	mov    rbx,QWORD PTR [rdi+0x40]
    7da5:	mov    rdi,QWORD PTR [rbx+0x18]
    7da9:	call   49c0 <qemu_free>
    7dae:	mov    rdi,QWORD PTR [rbx+0x38]
    7db2:	call   49c0 <qemu_free>
    7db7:	mov    rdi,QWORD PTR [rbx]
    7dba:	mov    rax,QWORD PTR [rdi+0x850]
    7dc1:	test   rax,rax
    7dc4:	je     7dd1 <vmdk_close+0x31>
    7dc6:	mov    rdi,rax
    7dc9:	call   17170 <bdrv_close>
    7dce:	mov    rdi,QWORD PTR [rbx]
    7dd1:	pop    rbx
    7dd2:	jmp    170f0 <bdrv_delete>
    7dd7:	nop    WORD PTR [rax+rax*1+0x0]

0000000000007de0 <vmdk_probe>:
    7de0:	xor    eax,eax
    7de2:	cmp    esi,0x3
    7de5:	jg     7df0 <vmdk_probe+0x10>
    7de7:	repz ret 
    7de9:	nop    DWORD PTR [rax+0x0]
    7df0:	mov    edx,DWORD PTR [rdi]
    7df2:	bswap  edx
    7df4:	cmp    edx,0x434f5744
    7dfa:	je     7e04 <vmdk_probe+0x24>
    7dfc:	cmp    edx,0x4b444d56
    7e02:	jne    7de7 <vmdk_probe+0x7>
    7e04:	mov    eax,0x64
    7e09:	ret    
    7e0a:	nop    WORD PTR [rax+rax*1+0x0]

0000000000007e10 <vmdk_read_cid.isra.2>:
    7e10:	push   r12
    7e12:	push   rbp
    7e13:	mov    r12d,esi
    7e16:	push   rbx
    7e17:	mov    ecx,0x2800
    7e1c:	mov    esi,0x200
    7e21:	sub    rsp,0x2820
    7e28:	mov    rdi,QWORD PTR [rdi]
    7e2b:	lea    rbx,[rsp+0x10]
    7e30:	mov    rax,QWORD PTR fs:0x28
    7e39:	mov    QWORD PTR [rsp+0x2818],rax
    7e41:	xor    eax,eax
    7e43:	mov    rdx,rbx
    7e46:	call   17b00 <bdrv_pread>
    7e4b:	xor    edx,edx
    7e4d:	cmp    eax,0x2800
    7e52:	je     7e78 <vmdk_read_cid.isra.2+0x68>
    7e54:	mov    rcx,QWORD PTR [rsp+0x2818]
    7e5c:	xor    rcx,QWORD PTR fs:0x28
    7e65:	mov    eax,edx
    7e67:	jne    7ec6 <vmdk_read_cid.isra.2+0xb6>
    7e69:	add    rsp,0x2820
    7e70:	pop    rbx
    7e71:	pop    rbp
    7e72:	pop    r12
    7e74:	ret    
    7e75:	nop    DWORD PTR [rax]
    7e78:	cmp    r12d,0x1
    7e7c:	lea    rax,[rip+0x16bc6]        # 1ea49 <Te0+0x409>
    7e83:	lea    rsi,[rip+0x16bb9]        # 1ea43 <Te0+0x403>
    7e8a:	sbb    rbp,rbp
    7e8d:	mov    rdi,rbx
    7e90:	and    rbp,0xfffffffffffffffa
    7e94:	add    rbp,0xa
    7e98:	test   r12d,r12d
    7e9b:	cmove  rsi,rax
    7e9f:	call   3470 <strstr@plt>
    7ea4:	test   rax,rax
    7ea7:	je     7ec0 <vmdk_read_cid.isra.2+0xb0>
    7ea9:	lea    rdi,[rax+rbp*1]
    7ead:	lea    rdx,[rsp+0xc]
    7eb2:	lea    rsi,[rip+0x16b87]        # 1ea40 <Te0+0x400>
    7eb9:	xor    eax,eax
    7ebb:	call   3250 <sscanf@plt>
    7ec0:	mov    edx,DWORD PTR [rsp+0xc]
    7ec4:	jmp    7e54 <vmdk_read_cid.isra.2+0x44>
    7ec6:	call   2f70 <__stack_chk_fail@plt>
    7ecb:	nop    DWORD PTR [rax+rax*1+0x0]

0000000000007ed0 <vmdk_is_cid_valid.isra.3>:
    7ed0:	mov    rax,QWORD PTR [rdi]
    7ed3:	mov    rdx,QWORD PTR [rax+0x850]
    7eda:	test   rdx,rdx
    7edd:	je     7f00 <vmdk_is_cid_valid.isra.3+0x30>
    7edf:	push   rbx
    7ee0:	mov    rbx,rdi
    7ee3:	mov    rdi,QWORD PTR [rdx+0x40]
    7ee7:	xor    esi,esi
    7ee9:	call   7e10 <vmdk_read_cid.isra.2>
    7eee:	cmp    DWORD PTR [rbx+0xc4],eax
    7ef4:	pop    rbx
    7ef5:	sete   al
    7ef8:	movzx  eax,al
    7efb:	ret    
    7efc:	nop    DWORD PTR [rax+0x0]
    7f00:	mov    eax,0x1
    7f05:	ret    
    7f06:	nop    WORD PTR cs:[rax+rax*1+0x0]

0000000000007f10 <get_cluster_offset>:
    7f10:	push   rbp
    7f11:	mov    r8,rdi
    7f14:	mov    r9,rdx
    7f17:	mov    r11d,ecx
    7f1a:	mov    rbp,rsp
    7f1d:	push   r15
    7f1f:	push   r14
    7f21:	push   r13
    7f23:	push   r12
    7f25:	mov    r14,rsi
    7f28:	push   rbx
    7f29:	sub    rsp,0x58
    7f2d:	mov    rbx,QWORD PTR [rdi+0x40]
    7f31:	mov    rax,QWORD PTR fs:0x28
    7f3a:	mov    QWORD PTR [rbp-0x38],rax
    7f3e:	xor    eax,eax
    7f40:	test   rsi,rsi
    7f43:	je     7f4c <get_cluster_offset+0x3c>
    7f45:	mov    DWORD PTR [rsi+0x10],0x0
    7f4c:	mov    ecx,DWORD PTR [rbx+0x2c]
    7f4f:	mov    r12,r9
    7f52:	xor    edx,edx
    7f54:	shr    r12,0x9
    7f58:	mov    rax,r12
    7f5b:	div    rcx
    7f5e:	cmp    DWORD PTR [rbx+0x28],eax
    7f61:	mov    r15,rax
    7f64:	jbe    80e0 <get_cluster_offset+0x1d0>
    7f6a:	mov    rdx,QWORD PTR [rbx+0x18]
    7f6e:	mov    eax,eax
    7f70:	mov    r13d,DWORD PTR [rdx+rax*4]
    7f74:	test   r13d,r13d
    7f77:	je     80e0 <get_cluster_offset+0x1d0>
    7f7d:	xor    eax,eax
    7f7f:	jmp    7f96 <get_cluster_offset+0x86>
    7f81:	nop    DWORD PTR [rax+0x0]
    7f88:	add    rax,0x1
    7f8c:	cmp    rax,0x10
    7f90:	je     8110 <get_cluster_offset+0x200>
    7f96:	cmp    DWORD PTR [rbx+rax*4+0x40],r13d
    7f9b:	movsxd rdx,eax
    7f9e:	jne    7f88 <get_cluster_offset+0x78>
    7fa0:	lea    rcx,[rbx+rdx*4]
    7fa4:	mov    esi,DWORD PTR [rcx+0x80]
    7faa:	lea    edx,[rsi+0x1]
    7fad:	cmp    edx,0xffffffff
    7fb0:	mov    DWORD PTR [rcx+0x80],edx
    7fb6:	je     81b0 <get_cluster_offset+0x2a0>
    7fbc:	mov    ecx,DWORD PTR [rbx+0x30]
    7fbf:	mov    rdx,QWORD PTR [rbx+0x38]
    7fc3:	imul   eax,ecx
    7fc6:	lea    rax,[rdx+rax*4]
    7fca:	mov    QWORD PTR [rbp-0x48],rax
    7fce:	mov    esi,DWORD PTR [rbx+0xc0]
    7fd4:	mov    rax,r12
    7fd7:	xor    edx,edx
    7fd9:	div    rsi
    7fdc:	xor    edx,edx
    7fde:	div    rcx
    7fe1:	mov    rax,QWORD PTR [rbp-0x48]
    7fe5:	mov    r12,rdx
    7fe8:	lea    rdx,[rax+rdx*4]
    7fec:	mov    r10d,DWORD PTR [rdx]
    7fef:	test   r10,r10
    7ff2:	jne    80d0 <get_cluster_offset+0x1c0>
    7ff8:	test   r11d,r11d
    7ffb:	je     80e0 <get_cluster_offset+0x1d0>
    8001:	mov    eax,DWORD PTR [rbx+0xc8]
    8007:	mov    QWORD PTR [rbp-0x48],0x0
    800f:	mov    DWORD PTR [rbp-0x4c],0x0
    8016:	test   eax,eax
    8018:	je     81d8 <get_cluster_offset+0x2c8>
    801e:	mov    rdx,QWORD PTR [r8+0x40]
    8022:	mov    rdi,rsp
    8025:	mov    QWORD PTR [rbp-0x58],rdi
    8029:	mov    eax,DWORD PTR [rdx+0xc0]
    802f:	shl    eax,0x9
    8032:	mov    ebx,eax
    8034:	mov    DWORD PTR [rbp-0x60],eax
    8037:	mov    rax,QWORD PTR [rdx]
    803a:	sub    rsp,rbx
    803d:	mov    rax,QWORD PTR [rax+0x850]
    8044:	test   rax,rax
    8047:	je     81d0 <get_cluster_offset+0x2c0>
    804d:	mov    rax,QWORD PTR [rax+0x40]
    8051:	mov    rdi,rdx
    8054:	mov    QWORD PTR [rbp-0x70],r10
    8058:	mov    QWORD PTR [rbp-0x80],r9
    805c:	mov    QWORD PTR [rbp-0x78],rdx
    8060:	mov    QWORD PTR [rbp-0x68],rax
    8064:	call   7ed0 <vmdk_is_cid_valid.isra.3>
    8069:	test   eax,eax
    806b:	mov    r10,QWORD PTR [rbp-0x70]
    806f:	je     82b1 <get_cluster_offset+0x3a1>
    8075:	mov    rdx,QWORD PTR [rbp-0x78]
    8079:	mov    r9,QWORD PTR [rbp-0x80]
    807d:	xor    esi,esi
    807f:	mov    ecx,0x1
    8084:	mov    rax,QWORD PTR [rdx]
    8087:	mov    rdx,r9
    808a:	mov    rdi,QWORD PTR [rax+0x850]
    8091:	call   7f10 <get_cluster_offset>
    8096:	test   rax,rax
    8099:	jne    823c <get_cluster_offset+0x32c>
    809f:	mov    rsp,QWORD PTR [rbp-0x58]
    80a3:	test   r14,r14
    80a6:	mov    r10,QWORD PTR [rbp-0x48]
    80aa:	je     80d0 <get_cluster_offset+0x1c0>
    80ac:	mov    eax,DWORD PTR [rbp-0x4c]
    80af:	mov    DWORD PTR [r14+0x4],r15d
    80b3:	mov    DWORD PTR [r14+0x8],r12d
    80b7:	mov    DWORD PTR [r14+0xc],r13d
    80bb:	mov    DWORD PTR [r14+0x10],0x1
    80c3:	mov    DWORD PTR [r14],eax
    80c6:	nop    WORD PTR cs:[rax+rax*1+0x0]
    80d0:	shl    r10,0x9
    80d4:	jmp    80e3 <get_cluster_offset+0x1d3>
    80d6:	nop    WORD PTR cs:[rax+rax*1+0x0]
    80e0:	xor    r10d,r10d
    80e3:	mov    rdi,QWORD PTR [rbp-0x38]
    80e7:	xor    rdi,QWORD PTR fs:0x28
    80f0:	mov    rax,r10
    80f3:	jne    82ba <get_cluster_offset+0x3aa>
    80f9:	lea    rsp,[rbp-0x28]
    80fd:	pop    rbx
    80fe:	pop    r12
    8100:	pop    r13
    8102:	pop    r14
    8104:	pop    r15
    8106:	pop    rbp
    8107:	ret    
    8108:	nop    DWORD PTR [rax+rax*1+0x0]
    8110:	xor    eax,eax
    8112:	mov    ecx,0xffffffff
    8117:	xor    r10d,r10d
    811a:	nop    WORD PTR [rax+rax*1+0x0]
    8120:	mov    edx,DWORD PTR [rbx+rax*4+0x80]
    8127:	cmp    edx,ecx
    8129:	jae    8130 <get_cluster_offset+0x220>
    812b:	mov    ecx,edx
    812d:	mov    r10d,eax
    8130:	add    rax,0x1
    8134:	cmp    rax,0x10
    8138:	jne    8120 <get_cluster_offset+0x210>
    813a:	mov    ecx,DWORD PTR [rbx+0x30]
    813d:	mov    edx,r10d
    8140:	mov    rax,QWORD PTR [rbx+0x38]
    8144:	mov    rdi,QWORD PTR [rbx]
    8147:	mov    esi,r13d
    814a:	mov    QWORD PTR [rbp-0x68],r8
    814e:	shl    rsi,0x9
    8152:	mov    QWORD PTR [rbp-0x60],r9
    8156:	mov    DWORD PTR [rbp-0x58],r11d
    815a:	imul   edx,ecx
    815d:	shl    ecx,0x2
    8160:	mov    DWORD PTR [rbp-0x4c],r10d
    8164:	lea    rdx,[rax+rdx*4]
    8168:	mov    QWORD PTR [rbp-0x48],rdx
    816c:	call   17b00 <bdrv_pread>
    8171:	mov    ecx,DWORD PTR [rbx+0x30]
    8174:	cdqe   
    8176:	movsxd r10,DWORD PTR [rbp-0x4c]
    817a:	mov    r11d,DWORD PTR [rbp-0x58]
    817e:	mov    r9,QWORD PTR [rbp-0x60]
    8182:	mov    r8,QWORD PTR [rbp-0x68]
    8186:	lea    rdx,[rcx*4+0x0]
    818e:	cmp    rax,rdx
    8191:	jne    80e0 <get_cluster_offset+0x1d0>
    8197:	lea    rax,[rbx+r10*4]
    819b:	mov    DWORD PTR [rax+0x40],r13d
    819f:	mov    DWORD PTR [rax+0x80],0x1
    81a9:	jmp    7fce <get_cluster_offset+0xbe>
    81ae:	xchg   ax,ax
    81b0:	lea    rdx,[rbx+0x80]
    81b7:	lea    rcx,[rbx+0xc0]
    81be:	xchg   ax,ax
    81c0:	shr    DWORD PTR [rdx],1
    81c2:	add    rdx,0x4
    81c6:	cmp    rcx,rdx
    81c9:	jne    81c0 <get_cluster_offset+0x2b0>
    81cb:	jmp    7fbc <get_cluster_offset+0xac>
    81d0:	mov    rsp,rdi
    81d3:	jmp    80a3 <get_cluster_offset+0x193>
    81d8:	mov    rdi,QWORD PTR [rbx]
    81db:	mov    QWORD PTR [rbp-0x70],r9
    81df:	mov    QWORD PTR [rbp-0x68],r8
    81e3:	mov    QWORD PTR [rbp-0x60],r10
    81e7:	mov    QWORD PTR [rbp-0x58],rdx
    81eb:	call   181a0 <bdrv_getlength>
    81f0:	mov    esi,DWORD PTR [rbx+0xc0]
    81f6:	mov    rdi,QWORD PTR [rbx]
    81f9:	mov    QWORD PTR [rbp-0x48],rax
    81fd:	shl    esi,0x9
    8200:	add    rsi,rax
    8203:	call   18170 <bdrv_truncate>
    8208:	mov    rcx,QWORD PTR [rbp-0x48]
    820c:	mov    rdx,QWORD PTR [rbp-0x58]
    8210:	mov    r8,QWORD PTR [rbp-0x68]
    8214:	mov    r9,QWORD PTR [rbp-0x70]
    8218:	mov    r10,QWORD PTR [rbp-0x60]
    821c:	shr    rcx,0x9
    8220:	mov    QWORD PTR [rbp-0x48],rcx
    8224:	mov    DWORD PTR [rbp-0x4c],ecx
    8227:	mov    DWORD PTR [rdx],ecx
    8229:	mov    QWORD PTR [rip+0x21f2f8],rcx        # 227528 <activeBDRV+0x8>
    8230:	mov    QWORD PTR [rip+0x21f2e9],r8        # 227520 <activeBDRV>
    8237:	jmp    801e <get_cluster_offset+0x10e>
    823c:	mov    rdx,QWORD PTR [rip+0x21f2dd]        # 227520 <activeBDRV>
    8243:	mov    rdi,QWORD PTR [rdx+0x40]
    8247:	mov    rdx,rsp
    824a:	mov    QWORD PTR [rbp-0x78],rdi
    824e:	mov    rdi,QWORD PTR [rbp-0x68]
    8252:	mov    esi,DWORD PTR [rdi+0xc0]
    8258:	mov    QWORD PTR [rbp-0x68],rdi
    825c:	mov    rdi,QWORD PTR [rdi]
    825f:	mov    ecx,esi
    8261:	mov    rsi,rax
    8264:	shl    ecx,0x9
    8267:	call   17b00 <bdrv_pread>
    826c:	mov    rdi,QWORD PTR [rbp-0x68]
    8270:	mov    r10,QWORD PTR [rbp-0x70]
    8274:	mov    edx,DWORD PTR [rdi+0xc0]
    827a:	shl    edx,0x9
    827d:	cmp    eax,edx
    827f:	jne    82b1 <get_cluster_offset+0x3a1>
    8281:	mov    rdi,QWORD PTR [rbp-0x78]
    8285:	mov    rsi,QWORD PTR [rip+0x21f29c]        # 227528 <activeBDRV+0x8>
    828c:	mov    rdx,rsp
    828f:	mov    ecx,DWORD PTR [rbp-0x60]
    8292:	mov    QWORD PTR [rbp-0x68],r10
    8296:	mov    rdi,QWORD PTR [rdi]
    8299:	shl    rsi,0x9
    829d:	call   180f0 <bdrv_pwrite>
    82a2:	cdqe   
    82a4:	mov    r10,QWORD PTR [rbp-0x68]
    82a8:	cmp    rbx,rax
    82ab:	je     809f <get_cluster_offset+0x18f>
    82b1:	mov    rsp,QWORD PTR [rbp-0x58]
    82b5:	jmp    80e3 <get_cluster_offset+0x1d3>
    82ba:	call   2f70 <__stack_chk_fail@plt>
    82bf:	nop

00000000000082c0 <vmdk_is_allocated>:
    82c0:	push   r13
    82c2:	push   r12
    82c4:	mov    r12,rcx
    82c7:	push   rbp
    82c8:	push   rbx
    82c9:	mov    ebp,edx
    82cb:	mov    rdx,rsi
    82ce:	mov    rbx,rsi
    82d1:	xor    ecx,ecx
    82d3:	sub    rsp,0x8
    82d7:	mov    r13,QWORD PTR [rdi+0x40]
    82db:	shl    rdx,0x9
    82df:	xor    esi,esi
    82e1:	call   7f10 <get_cluster_offset>
    82e6:	mov    esi,DWORD PTR [r13+0xc0]
    82ed:	mov    rdi,rax
    82f0:	mov    rax,rbx
    82f3:	cqo    
    82f5:	idiv   rsi
    82f8:	mov    rcx,rsi
    82fb:	sub    ecx,edx
    82fd:	cmp    ecx,ebp
    82ff:	cmovg  ecx,ebp
    8302:	xor    eax,eax
    8304:	test   rdi,rdi
    8307:	mov    DWORD PTR [r12],ecx
    830b:	setne  al
    830e:	add    rsp,0x8
    8312:	pop    rbx
    8313:	pop    rbp
    8314:	pop    r12
    8316:	pop    r13
    8318:	ret    
    8319:	nop    DWORD PTR [rax+0x0]

0000000000008320 <vmdk_read>:
    8320:	push   r15
    8322:	push   r14
    8324:	push   r13
    8326:	push   r12
    8328:	push   rbp
    8329:	push   rbx
    832a:	sub    rsp,0x18
    832e:	test   ecx,ecx
    8330:	mov    r14,QWORD PTR [rdi+0x40]
    8334:	jle    8460 <vmdk_read+0x140>
    833a:	mov    r15,rdi
    833d:	mov    rbp,rsi
    8340:	mov    r13,rdx
    8343:	mov    r12d,ecx
    8346:	jmp    83ae <vmdk_read+0x8e>
    8348:	nop    DWORD PTR [rax+rax*1+0x0]
    8350:	mov    rax,QWORD PTR [r14]
    8353:	cmp    QWORD PTR [rax+0x850],0x0
    835b:	je     8420 <vmdk_read+0x100>
    8361:	mov    rdi,QWORD PTR [r15+0x40]
    8365:	call   7ed0 <vmdk_is_cid_valid.isra.3>
    836a:	test   eax,eax
    836c:	je     8448 <vmdk_read+0x128>
    8372:	mov    rax,QWORD PTR [r14]
    8375:	mov    ecx,ebx
    8377:	mov    rdx,r13
    837a:	mov    rsi,rbp
    837d:	mov    rdi,QWORD PTR [rax+0x850]
    8384:	call   171e0 <bdrv_read>
    8389:	test   eax,eax
    838b:	js     8448 <vmdk_read+0x128>
    8391:	mov    ecx,ebx
    8393:	shl    ecx,0x9
    8396:	movsxd rcx,ecx
    8399:	sub    r12d,ebx
    839c:	movsxd rbx,ebx
    839f:	add    r13,rcx
    83a2:	add    rbp,rbx
    83a5:	test   r12d,r12d
    83a8:	jle    8460 <vmdk_read+0x140>
    83ae:	mov    rdx,rbp
    83b1:	xor    ecx,ecx
    83b3:	xor    esi,esi
    83b5:	shl    rdx,0x9
    83b9:	mov    rdi,r15
    83bc:	call   7f10 <get_cluster_offset>
    83c1:	mov    esi,DWORD PTR [r14+0xc0]
    83c8:	mov    rcx,rax
    83cb:	mov    rax,rbp
    83ce:	cqo    
    83d0:	idiv   rsi
    83d3:	mov    rbx,rsi
    83d6:	sub    ebx,edx
    83d8:	cmp    ebx,r12d
    83db:	cmovg  ebx,r12d
    83df:	test   rcx,rcx
    83e2:	je     8350 <vmdk_read+0x30>
    83e8:	shl    edx,0x9
    83eb:	mov    r8d,ebx
    83ee:	mov    rdi,QWORD PTR [r14]
    83f1:	shl    r8d,0x9
    83f5:	movsxd rsi,edx
    83f8:	mov    rdx,r13
    83fb:	add    rsi,rcx
    83fe:	mov    ecx,r8d
    8401:	mov    DWORD PTR [rsp+0x8],r8d
    8406:	call   17b00 <bdrv_pread>
    840b:	mov    r8d,DWORD PTR [rsp+0x8]
    8410:	cmp    r8d,eax
    8413:	jne    8448 <vmdk_read+0x128>
    8415:	movsxd rcx,r8d
    8418:	jmp    8399 <vmdk_read+0x79>
    841d:	nop    DWORD PTR [rax]
    8420:	mov    ecx,ebx
    8422:	xor    esi,esi
    8424:	mov    rdi,r13
    8427:	shl    ecx,0x9
    842a:	movsxd rcx,ecx
    842d:	mov    rdx,rcx
    8430:	mov    QWORD PTR [rsp+0x8],rcx
    8435:	call   3020 <memset@plt>
    843a:	mov    rcx,QWORD PTR [rsp+0x8]
    843f:	jmp    8399 <vmdk_read+0x79>
    8444:	nop    DWORD PTR [rax+0x0]
    8448:	add    rsp,0x18
    844c:	mov    eax,0xffffffff
    8451:	pop    rbx
    8452:	pop    rbp
    8453:	pop    r12
    8455:	pop    r13
    8457:	pop    r14
    8459:	pop    r15
    845b:	ret    
    845c:	nop    DWORD PTR [rax+0x0]
    8460:	add    rsp,0x18
    8464:	xor    eax,eax
    8466:	pop    rbx
    8467:	pop    rbp
    8468:	pop    r12
    846a:	pop    r13
    846c:	pop    r14
    846e:	pop    r15
    8470:	ret    
    8471:	nop    DWORD PTR [rax+rax*1+0x0]
    8476:	nop    WORD PTR cs:[rax+rax*1+0x0]

0000000000008480 <vmdk_write_cid.isra.7>:
    8480:	push   r13
    8482:	push   r12
    8484:	mov    ecx,0x2800
    8489:	push   rbp
    848a:	push   rbx
    848b:	mov    rbp,rdi
    848e:	mov    r12d,esi
    8491:	mov    esi,0x200
    8496:	sub    rsp,0x5018
    849d:	mov    rdi,QWORD PTR [rdi]
    84a0:	mov    rbx,rsp
    84a3:	mov    rdx,rbx
    84a6:	mov    rax,QWORD PTR fs:0x28
    84af:	mov    QWORD PTR [rsp+0x5008],rax
    84b7:	xor    eax,eax
    84b9:	call   17b00 <bdrv_pread>
    84be:	cmp    eax,0x2800
    84c3:	mov    edx,0xffffffff
    84c8:	jne    8569 <vmdk_write_cid.isra.7+0xe9>
    84ce:	lea    rsi,[rip+0x1656e]        # 1ea43 <Te0+0x403>
    84d5:	lea    r13,[rsp+0x2800]
    84dd:	mov    rdi,rbx
    84e0:	call   3470 <strstr@plt>
    84e5:	mov    esi,0x2800
    84ea:	mov    rdx,rax
    84ed:	mov    rdi,r13
    84f0:	call   45a0 <pstrcpy>
    84f5:	lea    rsi,[rip+0x1654d]        # 1ea49 <Te0+0x409>
    84fc:	mov    rdi,rbx
    84ff:	call   3470 <strstr@plt>
    8504:	test   rax,rax
    8507:	je     8547 <vmdk_write_cid.isra.7+0xc7>
    8509:	lea    rdi,[rax+0x4]
    850d:	mov    rax,rbx
    8510:	lea    r8,[rip+0x16536]        # 1ea4d <Te0+0x40d>
    8517:	mov    edx,0x1
    851c:	mov    r9d,r12d
    851f:	mov    rcx,0xffffffffffffffff
    8526:	sub    rax,rdi
    8529:	lea    rsi,[rax+0x2800]
    8530:	xor    eax,eax
    8532:	call   2e30 <__snprintf_chk@plt>
    8537:	mov    rdx,r13
    853a:	mov    esi,0x2800
    853f:	mov    rdi,rbx
    8542:	call   45e0 <pstrcat>
    8547:	mov    rdi,QWORD PTR [rbp+0x0]
    854b:	mov    rdx,rbx
    854e:	mov    ecx,0x2800
    8553:	mov    esi,0x200
    8558:	call   180f0 <bdrv_pwrite>
    855d:	xor    edx,edx
    855f:	cmp    eax,0x2800
    8564:	setne  dl
    8567:	neg    edx
    8569:	mov    rcx,QWORD PTR [rsp+0x5008]
    8571:	xor    rcx,QWORD PTR fs:0x28
    857a:	mov    eax,edx
    857c:	jne    858c <vmdk_write_cid.isra.7+0x10c>
    857e:	add    rsp,0x5018
    8585:	pop    rbx
    8586:	pop    rbp
    8587:	pop    r12
    8589:	pop    r13
    858b:	ret    
    858c:	call   2f70 <__stack_chk_fail@plt>
    8591:	nop    DWORD PTR [rax+rax*1+0x0]
    8596:	nop    WORD PTR cs:[rax+rax*1+0x0]

00000000000085a0 <vmdk_write>:
    85a0:	push   r15
    85a2:	push   r14
    85a4:	push   r13
    85a6:	push   r12
    85a8:	mov    r12,rsi
    85ab:	push   rbp
    85ac:	push   rbx
    85ad:	mov    ebp,ecx
    85af:	sub    rsp,0x48
    85b3:	mov    r8,QWORD PTR [rdi]
    85b6:	mov    r14,QWORD PTR [rdi+0x40]
    85ba:	mov    rcx,QWORD PTR fs:0x28
    85c3:	mov    QWORD PTR [rsp+0x38],rcx
    85c8:	xor    ecx,ecx
    85ca:	mov    QWORD PTR [rsp+0x10],rdi
    85cf:	cmp    r8,rsi
    85d2:	jl     8762 <vmdk_write+0x1c2>
    85d8:	lea    rax,[rsp+0x20]
    85dd:	test   ebp,ebp
    85df:	mov    r13,rdx
    85e2:	mov    QWORD PTR [rsp+0x18],rax
    85e7:	jg     8614 <vmdk_write+0x74>
    85e9:	jmp    875e <vmdk_write+0x1be>
    85ee:	xchg   ax,ax
    85f0:	mov    eax,DWORD PTR [rip+0x21ef1a]        # 227510 <cid_update.13797>
    85f6:	sub    ebp,ebx
    85f8:	movsxd r9,r15d
    85fb:	movsxd rbx,ebx
    85fe:	add    r13,r9
    8601:	add    r12,rbx
    8604:	test   eax,eax
    8606:	je     8738 <vmdk_write+0x198>
    860c:	test   ebp,ebp
    860e:	jle    875e <vmdk_write+0x1be>
    8614:	mov    ebx,DWORD PTR [r14+0xc0]
    861b:	mov    rsi,QWORD PTR [rsp+0x18]
    8620:	mov    rdx,r12
    8623:	mov    rdi,QWORD PTR [rsp+0x10]
    8628:	mov    ecx,0x1
    862d:	lea    r8d,[rbx-0x1]
    8631:	and    r8d,r12d
    8634:	sub    ebx,r8d
    8637:	mov    DWORD PTR [rsp+0x8],r8d
    863c:	cmp    ebx,ebp
    863e:	cmovg  ebx,ebp
    8641:	shl    rdx,0x9
    8645:	call   7f10 <get_cluster_offset>
    864a:	test   rax,rax
    864d:	mov    r8d,DWORD PTR [rsp+0x8]
    8652:	je     8710 <vmdk_write+0x170>
    8658:	shl    r8d,0x9
    865c:	mov    r15d,ebx
    865f:	mov    rdi,QWORD PTR [r14]
    8662:	shl    r15d,0x9
    8666:	movsxd rsi,r8d
    8669:	mov    rdx,r13
    866c:	add    rsi,rax
    866f:	mov    ecx,r15d
    8672:	call   180f0 <bdrv_pwrite>
    8677:	cmp    r15d,eax
    867a:	jne    8710 <vmdk_write+0x170>
    8680:	mov    edx,DWORD PTR [rsp+0x30]
    8684:	test   edx,edx
    8686:	je     85f0 <vmdk_write+0x50>
    868c:	mov    rax,QWORD PTR [rsp+0x10]
    8691:	mov    edx,DWORD PTR [rsp+0x28]
    8695:	mov    ecx,0x4
    869a:	mov    r8,QWORD PTR [rax+0x40]
    869e:	mov    eax,DWORD PTR [rsp+0x2c]
    86a2:	mov    rdi,QWORD PTR [r8]
    86a5:	mov    QWORD PTR [rsp+0x8],r8
    86aa:	shl    rax,0x9
    86ae:	lea    rsi,[rax+rdx*4]
    86b2:	mov    rdx,QWORD PTR [rsp+0x18]
    86b7:	call   180f0 <bdrv_pwrite>
    86bc:	cmp    eax,0x4
    86bf:	jne    8710 <vmdk_write+0x170>
    86c1:	mov    r8,QWORD PTR [rsp+0x8]
    86c6:	cmp    QWORD PTR [r8+0x10],0x0
    86cb:	je     85f0 <vmdk_write+0x50>
    86d1:	mov    edx,DWORD PTR [rsp+0x24]
    86d5:	mov    rax,QWORD PTR [r8+0x20]
    86d9:	mov    ecx,0x4
    86de:	mov    eax,DWORD PTR [rax+rdx*4]
    86e1:	mov    edx,DWORD PTR [rsp+0x28]
    86e5:	mov    DWORD PTR [rsp+0x2c],eax
    86e9:	shl    rax,0x9
    86ed:	mov    rdi,QWORD PTR [r8]
    86f0:	lea    rsi,[rax+rdx*4]
    86f4:	mov    rdx,QWORD PTR [rsp+0x18]
    86f9:	call   180f0 <bdrv_pwrite>
    86fe:	cmp    eax,0x4
    8701:	je     85f0 <vmdk_write+0x50>
    8707:	nop    WORD PTR [rax+rax*1+0x0]
    8710:	mov    eax,0xffffffff
    8715:	mov    rcx,QWORD PTR [rsp+0x38]
    871a:	xor    rcx,QWORD PTR fs:0x28
    8723:	jne    8786 <vmdk_write+0x1e6>
    8725:	add    rsp,0x48
    8729:	pop    rbx
    872a:	pop    rbp
    872b:	pop    r12
    872d:	pop    r13
    872f:	pop    r14
    8731:	pop    r15
    8733:	ret    
    8734:	nop    DWORD PTR [rax+0x0]
    8738:	xor    edi,edi
    873a:	call   31c0 <time@plt>
    873f:	mov    rcx,QWORD PTR [rsp+0x10]
    8744:	mov    esi,eax
    8746:	mov    rdi,QWORD PTR [rcx+0x40]
    874a:	call   8480 <vmdk_write_cid.isra.7>
    874f:	add    DWORD PTR [rip+0x21edba],0x1        # 227510 <cid_update.13797>
    8756:	test   ebp,ebp
    8758:	jg     8614 <vmdk_write+0x74>
    875e:	xor    eax,eax
    8760:	jmp    8715 <vmdk_write+0x175>
    8762:	mov    rdi,QWORD PTR [rip+0x21ed97]        # 227500 <stderr@@GLIBC_2.2.5>
    8769:	lea    rdx,[rip+0x16300]        # 1ea70 <Te0+0x430>
    8770:	mov    rcx,rsi
    8773:	xor    eax,eax
    8775:	mov    esi,0x1
    877a:	call   3400 <__fprintf_chk@plt>
    877f:	mov    eax,0xffffffff
    8784:	jmp    8715 <vmdk_write+0x175>
    8786:	call   2f70 <__stack_chk_fail@plt>
    878b:	nop    DWORD PTR [rax+rax*1+0x0]

0000000000008790 <vmdk_parent_open.isra.8>:
    8790:	push   r12
    8792:	push   rbp
    8793:	mov    rbp,rdi
    8796:	push   rbx
    8797:	mov    r12,rsi
    879a:	mov    ecx,0x2800
    879f:	mov    esi,0x200
    87a4:	sub    rsp,0x2ca0
    87ab:	mov    rdi,QWORD PTR [rdi]
    87ae:	lea    rbx,[rsp+0x490]
    87b6:	mov    rax,QWORD PTR fs:0x28
    87bf:	mov    QWORD PTR [rsp+0x2c98],rax
    87c7:	xor    eax,eax
    87c9:	mov    rdx,rbx
    87cc:	call   17b00 <bdrv_pread>
    87d1:	cmp    eax,0x2800
    87d6:	jne    8920 <vmdk_parent_open.isra.8+0x190>
    87dc:	lea    rsi,[rip+0x1626e]        # 1ea51 <Te0+0x411>
    87e3:	mov    rdi,rbx
    87e6:	call   3470 <strstr@plt>
    87eb:	mov    rbx,rax
    87ee:	xor    eax,eax
    87f0:	test   rbx,rbx
    87f3:	je     88c5 <vmdk_parent_open.isra.8+0x135>
    87f9:	add    rbx,0x14
    87fd:	mov    esi,0x22
    8802:	mov    rdi,rbx
    8805:	call   2fb0 <strchr@plt>
    880a:	test   rax,rax
    880d:	je     8920 <vmdk_parent_open.isra.8+0x190>
    8813:	sub    rax,rbx
    8816:	cmp    rax,0x3ff
    881c:	ja     8920 <vmdk_parent_open.isra.8+0x190>
    8822:	lea    rsi,[rax+0x1]
    8826:	mov    rax,QWORD PTR [rbp+0x0]
    882a:	mov    rdx,rbx
    882d:	lea    rdi,[rax+0x448]
    8834:	call   45a0 <pstrcpy>
    8839:	mov    rax,QWORD PTR [rbp+0x0]
    883d:	mov    rdx,rsp
    8840:	mov    edi,0x1
    8845:	lea    rsi,[rax+0x448]
    884c:	call   2f30 <__xstat64@plt>
    8851:	test   eax,eax
    8853:	mov    rax,QWORD PTR [rbp+0x0]
    8857:	jne    88e8 <vmdk_parent_open.isra.8+0x158>
    885d:	lea    rbx,[rsp+0x90]
    8865:	lea    rdx,[rax+0x448]
    886c:	mov    esi,0x400
    8871:	mov    rdi,rbx
    8874:	call   45a0 <pstrcpy>
    8879:	mov    r12,QWORD PTR [rbp+0x0]
    887d:	lea    rdi,[rip+0x16be1]        # 1f465 <desc_template.13816+0x8e5>
    8884:	call   16fb0 <bdrv_new>
    8889:	mov    QWORD PTR [r12+0x850],rax
    8891:	mov    rax,QWORD PTR [rbp+0x0]
    8895:	mov    rdi,QWORD PTR [rax+0x850]
    889c:	test   rdi,rdi
    889f:	je     8910 <vmdk_parent_open.isra.8+0x180>
    88a1:	xor    edx,edx
    88a3:	mov    rsi,rbx
    88a6:	mov    DWORD PTR [rip+0x21ec64],0x1        # 227514 <parent_open>
    88b0:	call   180e0 <bdrv_open>
    88b5:	test   eax,eax
    88b7:	js     890c <vmdk_parent_open.isra.8+0x17c>
    88b9:	mov    DWORD PTR [rip+0x21ec51],0x0        # 227514 <parent_open>
    88c3:	xor    eax,eax
    88c5:	mov    rcx,QWORD PTR [rsp+0x2c98]
    88cd:	xor    rcx,QWORD PTR fs:0x28
    88d6:	jne    8927 <vmdk_parent_open.isra.8+0x197>
    88d8:	add    rsp,0x2ca0
    88df:	pop    rbx
    88e0:	pop    rbp
    88e1:	pop    r12
    88e3:	ret    
    88e4:	nop    DWORD PTR [rax+0x0]
    88e8:	lea    rbx,[rsp+0x90]
    88f0:	lea    rcx,[rax+0x448]
    88f7:	mov    rdx,r12
    88fa:	mov    esi,0x400
    88ff:	mov    rdi,rbx
    8902:	call   16eb0 <path_combine>
    8907:	jmp    8879 <vmdk_parent_open.isra.8+0xe9>
    890c:	mov    rax,QWORD PTR [rbp+0x0]
    8910:	mov    rdi,rax
    8913:	call   17170 <bdrv_close>
    8918:	nop    DWORD PTR [rax+rax*1+0x0]
    8920:	mov    eax,0xffffffff
    8925:	jmp    88c5 <vmdk_parent_open.isra.8+0x135>
    8927:	call   2f70 <__stack_chk_fail@plt>
    892c:	nop    DWORD PTR [rax+0x0]

0000000000008930 <vmdk_open>:
    8930:	push   r13
    8932:	push   r12
    8934:	mov    r12,rsi
    8937:	push   rbp
    8938:	push   rbx
    8939:	mov    rbp,rdi
    893c:	sub    rsp,0xa8
    8943:	mov    ecx,DWORD PTR [rip+0x21ebcb]        # 227514 <parent_open>
    8949:	mov    rbx,QWORD PTR [rdi+0x40]
    894d:	mov    rax,QWORD PTR fs:0x28
    8956:	mov    QWORD PTR [rsp+0x98],rax
    895e:	xor    eax,eax
    8960:	test   ecx,ecx
    8962:	mov    rdi,rbx
    8965:	cmovne edx,eax
    8968:	call   18060 <bdrv_file_open>
    896d:	test   eax,eax
    896f:	js     8ad5 <vmdk_open+0x1a5>
    8975:	mov    rdi,QWORD PTR [rbx]
    8978:	lea    rdx,[rsp+0xc]
    897d:	xor    esi,esi
    897f:	mov    ecx,0x4
    8984:	call   17b00 <bdrv_pread>
    8989:	cmp    eax,0x4
    898c:	jne    8b00 <vmdk_open+0x1d0>
    8992:	mov    eax,DWORD PTR [rsp+0xc]
    8996:	bswap  eax
    8998:	cmp    eax,0x434f5744
    899d:	mov    DWORD PTR [rsp+0xc],eax
    89a1:	je     8b30 <vmdk_open+0x200>
    89a7:	cmp    eax,0x4b444d56
    89ac:	jne    8b00 <vmdk_open+0x1d0>
    89b2:	mov    rdi,QWORD PTR [rbx]
    89b5:	lea    rdx,[rsp+0x40]
    89ba:	mov    ecx,0x49
    89bf:	mov    esi,0x4
    89c4:	call   17b00 <bdrv_pread>
    89c9:	cmp    eax,0x49
    89cc:	jne    8b00 <vmdk_open+0x1d0>
    89d2:	mov    rax,QWORD PTR [rsp+0x48]
    89d7:	mov    rdx,QWORD PTR [rsp+0x50]
    89dc:	mov    QWORD PTR [rbp+0x0],rax
    89e0:	mov    eax,DWORD PTR [rsp+0x68]
    89e4:	mov    DWORD PTR [rbx+0xc0],edx
    89ea:	mov    DWORD PTR [rbx+0x30],eax
    89ed:	imul   eax,edx
    89f0:	test   eax,eax
    89f2:	mov    DWORD PTR [rbx+0x2c],eax
    89f5:	je     8b00 <vmdk_open+0x1d0>
    89fb:	mov    ecx,eax
    89fd:	mov    rax,QWORD PTR [rbp+0x0]
    8a01:	mov    rsi,r12
    8a04:	add    rax,rcx
    8a07:	sub    rax,0x1
    8a0b:	cqo    
    8a0d:	idiv   rcx
    8a10:	mov    edx,DWORD PTR [rip+0x21eafe]        # 227514 <parent_open>
    8a16:	mov    DWORD PTR [rbx+0x28],eax
    8a19:	mov    rax,QWORD PTR [rsp+0x6c]
    8a1e:	shl    rax,0x9
    8a22:	mov    QWORD PTR [rbx+0x8],rax
    8a26:	mov    rax,QWORD PTR [rsp+0x74]
    8a2b:	shl    rax,0x9
    8a2f:	mov    QWORD PTR [rbx+0x10],rax
    8a33:	xor    eax,eax
    8a35:	test   edx,edx
    8a37:	setne  al
    8a3a:	mov    DWORD PTR [rbx+0xc8],eax
    8a40:	mov    rdi,QWORD PTR [rbp+0x40]
    8a44:	call   8790 <vmdk_parent_open.isra.8>
    8a49:	test   eax,eax
    8a4b:	jne    8b00 <vmdk_open+0x1d0>
    8a51:	mov    rdi,QWORD PTR [rbp+0x40]
    8a55:	mov    esi,0x1
    8a5a:	call   7e10 <vmdk_read_cid.isra.2>
    8a5f:	mov    DWORD PTR [rbx+0xc4],eax
    8a65:	mov    eax,DWORD PTR [rbx+0x28]
    8a68:	lea    ebp,[rax*4+0x0]
    8a6f:	movsxd r13,ebp
    8a72:	mov    rdi,r13
    8a75:	call   49d0 <qemu_malloc>
    8a7a:	mov    rsi,QWORD PTR [rbx+0x8]
    8a7e:	mov    rdi,QWORD PTR [rbx]
    8a81:	mov    ecx,ebp
    8a83:	mov    QWORD PTR [rbx+0x18],rax
    8a87:	mov    rdx,rax
    8a8a:	call   17b00 <bdrv_pread>
    8a8f:	cmp    eax,ebp
    8a91:	mov    r12d,eax
    8a94:	jne    8b00 <vmdk_open+0x1d0>
    8a96:	cmp    QWORD PTR [rbx+0x10],0x0
    8a9b:	je     8ac0 <vmdk_open+0x190>
    8a9d:	mov    rdi,r13
    8aa0:	call   49d0 <qemu_malloc>
    8aa5:	mov    rsi,QWORD PTR [rbx+0x10]
    8aa9:	mov    rdi,QWORD PTR [rbx]
    8aac:	mov    ecx,r12d
    8aaf:	mov    QWORD PTR [rbx+0x20],rax
    8ab3:	mov    rdx,rax
    8ab6:	call   17b00 <bdrv_pread>
    8abb:	cmp    eax,r12d
    8abe:	jne    8b00 <vmdk_open+0x1d0>
    8ac0:	mov    edi,DWORD PTR [rbx+0x30]
    8ac3:	shl    edi,0x4
    8ac6:	shl    rdi,0x2
    8aca:	call   49d0 <qemu_malloc>
    8acf:	mov    QWORD PTR [rbx+0x38],rax
    8ad3:	xor    eax,eax
    8ad5:	mov    rcx,QWORD PTR [rsp+0x98]
    8add:	xor    rcx,QWORD PTR fs:0x28
    8ae6:	jne    8b91 <vmdk_open+0x261>
    8aec:	add    rsp,0xa8
    8af3:	pop    rbx
    8af4:	pop    rbp
    8af5:	pop    r12
    8af7:	pop    r13
    8af9:	ret    
    8afa:	nop    WORD PTR [rax+rax*1+0x0]
    8b00:	mov    rdi,QWORD PTR [rbx+0x20]
    8b04:	call   49c0 <qemu_free>
    8b09:	mov    rdi,QWORD PTR [rbx+0x18]
    8b0d:	call   49c0 <qemu_free>
    8b12:	mov    rdi,QWORD PTR [rbx+0x38]
    8b16:	call   49c0 <qemu_free>
    8b1b:	mov    rdi,QWORD PTR [rbx]
    8b1e:	call   170f0 <bdrv_delete>
    8b23:	mov    eax,0xffffffff
    8b28:	jmp    8ad5 <vmdk_open+0x1a5>
    8b2a:	nop    WORD PTR [rax+rax*1+0x0]
    8b30:	mov    rdi,QWORD PTR [rbx]
    8b33:	lea    rdx,[rsp+0x10]
    8b38:	mov    ecx,0x28
    8b3d:	mov    esi,0x4
    8b42:	call   17b00 <bdrv_pread>
    8b47:	cmp    eax,0x28
    8b4a:	jne    8b00 <vmdk_open+0x1d0>
    8b4c:	mov    eax,DWORD PTR [rsp+0x1c]
    8b50:	mov    DWORD PTR [rbx+0x30],0x200
    8b57:	mov    DWORD PTR [rbx+0x28],0x40
    8b5e:	mov    DWORD PTR [rbx+0xc0],eax
    8b64:	mov    eax,DWORD PTR [rsp+0x18]
    8b68:	mov    QWORD PTR [rbp+0x0],rax
    8b6c:	mov    eax,DWORD PTR [rsp+0x20]
    8b70:	mov    QWORD PTR [rbx+0x10],0x0
    8b78:	shl    eax,0x9
    8b7b:	mov    QWORD PTR [rbx+0x8],rax
    8b7f:	mov    eax,DWORD PTR [rbx+0x30]
    8b82:	imul   eax,DWORD PTR [rbx+0xc0]
    8b89:	mov    DWORD PTR [rbx+0x2c],eax
    8b8c:	jmp    8a65 <vmdk_open+0x135>
    8b91:	call   2f70 <__stack_chk_fail@plt>
    8b96:	nop    WORD PTR cs:[rax+rax*1+0x0]

0000000000008ba0 <vmdk_create.part.5>:
    8ba0:	push   r15
    8ba2:	push   r14
    8ba4:	mov    r15,rsi
    8ba7:	push   r13
    8ba9:	push   r12
    8bab:	mov    esi,0x241
    8bb0:	push   rbp
    8bb1:	push   rbx
    8bb2:	mov    r14,rdi
    8bb5:	sub    rsp,0x488
    8bbc:	mov    rax,QWORD PTR fs:0x28
    8bc5:	mov    QWORD PTR [rsp+0x478],rax
    8bcd:	xor    eax,eax
    8bcf:	mov    DWORD PTR [rsp+0x4],edx
    8bd3:	mov    edx,0x1a4
    8bd8:	call   32e0 <open64@plt>
    8bdd:	test   eax,eax
    8bdf:	js     8ec3 <vmdk_create.part.5+0x323>
    8be5:	mov    ebp,eax
    8be7:	movabs rax,0x300000001
    8bf1:	lea    r12,[r15+0xfe]
    8bf8:	mov    QWORD PTR [rsp+0x20],rax
    8bfd:	mov    rax,r15
    8c00:	lea    rsi,[rsp+0x1c]
    8c05:	add    rax,0x7f
    8c09:	lea    rbx,[rsp+0x20]
    8c0e:	mov    edi,ebp
    8c10:	cmovns r12,rax
    8c14:	mov    DWORD PTR [rsp+0x1c],0x564d444b
    8c1c:	mov    BYTE PTR [rsp+0x64],0x0
    8c21:	sar    r12,0x7
    8c25:	mov    QWORD PTR [rsp+0x28],r15
    8c2a:	mov    QWORD PTR [rsp+0x30],0x80
    8c33:	add    r12d,0x1ff
    8c3a:	mov    DWORD PTR [rsp+0x48],0x200
    8c42:	mov    QWORD PTR [rsp+0x38],0x1
    8c4b:	shr    r12d,0x9
    8c4f:	mov    QWORD PTR [rsp+0x40],0x14
    8c58:	mov    QWORD PTR [rsp+0x4c],0x15
    8c61:	mov    eax,r12d
    8c64:	lea    edx,[r12*4+0x0]
    8c6c:	mov    DWORD PTR [rsp+0x65],0xa0d200a
    8c74:	lea    rax,[rax*4+0x1ff]
    8c7c:	mov    r13,rax
    8c7f:	shr    r13,0x9
    8c83:	lea    rax,[r13+rdx*1+0x15]
    8c88:	mov    QWORD PTR [rsp+0x8],r13
    8c8d:	mov    QWORD PTR [rsp+0x54],rax
    8c92:	add    rax,r13
    8c95:	lea    rax,[rdx+rax*1+0x7f]
    8c9a:	mov    edx,0x4
    8c9f:	and    eax,0x3fffff80
    8ca4:	mov    QWORD PTR [rsp+0x5c],rax
    8ca9:	call   2f10 <write@plt>
    8cae:	mov    edx,0x49
    8cb3:	mov    rsi,rbx
    8cb6:	mov    edi,ebp
    8cb8:	call   2f10 <write@plt>
    8cbd:	mov    rsi,QWORD PTR [rsp+0x5c]
    8cc2:	mov    edi,ebp
    8cc4:	shl    rsi,0x9
    8cc8:	call   32a0 <ftruncate64@plt>
    8ccd:	mov    rsi,QWORD PTR [rsp+0x4c]
    8cd2:	xor    edx,edx
    8cd4:	mov    edi,ebp
    8cd6:	shl    rsi,0x9
    8cda:	call   33f0 <lseek64@plt>
    8cdf:	mov    eax,DWORD PTR [rsp+0x4c]
    8ce3:	add    eax,r13d
    8ce6:	test   r12d,r12d
    8ce9:	mov    DWORD PTR [rsp+0x18],eax
    8ced:	je     8ea0 <vmdk_create.part.5+0x300>
    8cf3:	lea    r13,[rsp+0x18]
    8cf8:	xor    ebx,ebx
    8cfa:	nop    WORD PTR [rax+rax*1+0x0]
    8d00:	mov    edx,0x4
    8d05:	mov    rsi,r13
    8d08:	mov    edi,ebp
    8d0a:	add    ebx,0x1
    8d0d:	call   2f10 <write@plt>
    8d12:	add    DWORD PTR [rsp+0x18],0x4
    8d17:	cmp    r12d,ebx
    8d1a:	jne    8d00 <vmdk_create.part.5+0x160>
    8d1c:	mov    rsi,QWORD PTR [rsp+0x54]
    8d21:	xor    edx,edx
    8d23:	mov    edi,ebp
    8d25:	xor    r12d,r12d
    8d28:	shl    rsi,0x9
    8d2c:	call   33f0 <lseek64@plt>
    8d31:	mov    eax,DWORD PTR [rsp+0x8]
    8d35:	add    eax,DWORD PTR [rsp+0x54]
    8d39:	mov    DWORD PTR [rsp+0x18],eax
    8d3d:	nop    DWORD PTR [rax]
    8d40:	mov    edx,0x4
    8d45:	mov    rsi,r13
    8d48:	mov    edi,ebp
    8d4a:	add    r12d,0x1
    8d4e:	call   2f10 <write@plt>
    8d53:	add    DWORD PTR [rsp+0x18],0x4
    8d58:	cmp    ebx,r12d
    8d5b:	jne    8d40 <vmdk_create.part.5+0x1a0>
    8d5d:	mov    rdi,r14
    8d60:	mov    esi,0x5c
    8d65:	lea    r13,[rsp+0x70]
    8d6a:	call   2fe0 <strrchr@plt>
    8d6f:	lea    rdx,[rax+0x1]
    8d73:	test   rax,rax
    8d76:	mov    esi,0x2f
    8d7b:	cmovne r14,rdx
    8d7f:	mov    rdi,r14
    8d82:	call   2fe0 <strrchr@plt>
    8d87:	lea    rdx,[rax+0x1]
    8d8b:	test   rax,rax
    8d8e:	mov    esi,0x3a
    8d93:	cmovne r14,rdx
    8d97:	mov    rdi,r14
    8d9a:	call   2fe0 <strrchr@plt>
    8d9f:	lea    rdx,[rax+0x1]
    8da3:	test   rax,rax
    8da6:	mov    rax,r15
    8da9:	cmovne r14,rdx
    8dad:	movabs rdx,0x8208208208208209
    8db7:	imul   rdx
    8dba:	mov    rax,r15
    8dbd:	sar    rax,0x3f
    8dc1:	lea    rbx,[rdx+r15*1]
    8dc5:	sar    rbx,0x9
    8dc9:	sub    rbx,rax
    8dcc:	mov    eax,DWORD PTR [rsp+0x4]
    8dd0:	and    eax,0x4
    8dd3:	cmp    eax,0x1
    8dd6:	sbb    r12d,r12d
    8dd9:	xor    edi,edi
    8ddb:	and    r12d,0xfffffffe
    8ddf:	add    r12d,0x6
    8de3:	call   31c0 <time@plt>
    8de8:	push   rbx
    8de9:	lea    r8,[rip+0x15d90]        # 1eb80 <desc_template.13816>
    8df0:	push   r12
    8df2:	push   r14
    8df4:	push   r15
    8df6:	mov    r9d,eax
    8df9:	mov    ecx,0x400
    8dfe:	mov    edx,0x1
    8e03:	mov    esi,0x400
    8e08:	mov    rdi,r13
    8e0b:	xor    eax,eax
    8e0d:	call   2e30 <__snprintf_chk@plt>
    8e12:	add    rsp,0x20
    8e16:	mov    rsi,QWORD PTR [rsp+0x38]
    8e1b:	xor    edx,edx
    8e1d:	mov    edi,ebp
    8e1f:	shl    rsi,0x9
    8e23:	call   33f0 <lseek64@plt>
    8e28:	mov    rdx,r13
    8e2b:	mov    ecx,DWORD PTR [rdx]
    8e2d:	add    rdx,0x4
    8e31:	lea    eax,[rcx-0x1010101]
    8e37:	not    ecx
    8e39:	and    eax,ecx
    8e3b:	and    eax,0x80808080
    8e40:	je     8e2b <vmdk_create.part.5+0x28b>
    8e42:	mov    ecx,eax
    8e44:	mov    rsi,r13
    8e47:	mov    edi,ebp
    8e49:	shr    ecx,0x10
    8e4c:	test   eax,0x8080
    8e51:	cmove  eax,ecx
    8e54:	lea    rcx,[rdx+0x2]
    8e58:	cmove  rdx,rcx
    8e5c:	mov    ecx,eax
    8e5e:	add    cl,al
    8e60:	sbb    rdx,0x3
    8e64:	sub    rdx,r13
    8e67:	call   2f10 <write@plt>
    8e6c:	mov    edi,ebp
    8e6e:	call   3040 <close@plt>
    8e73:	xor    eax,eax
    8e75:	mov    rcx,QWORD PTR [rsp+0x478]
    8e7d:	xor    rcx,QWORD PTR fs:0x28
    8e86:	jne    8eca <vmdk_create.part.5+0x32a>
    8e88:	add    rsp,0x488
    8e8f:	pop    rbx
    8e90:	pop    rbp
    8e91:	pop    r12
    8e93:	pop    r13
    8e95:	pop    r14
    8e97:	pop    r15
    8e99:	ret    
    8e9a:	nop    WORD PTR [rax+rax*1+0x0]
    8ea0:	mov    rsi,QWORD PTR [rsp+0x54]
    8ea5:	xor    edx,edx
    8ea7:	mov    edi,ebp
    8ea9:	shl    rsi,0x9
    8ead:	call   33f0 <lseek64@plt>
    8eb2:	mov    eax,DWORD PTR [rsp+0x8]
    8eb6:	add    eax,DWORD PTR [rsp+0x54]
    8eba:	mov    DWORD PTR [rsp+0x18],eax
    8ebe:	jmp    8d5d <vmdk_create.part.5+0x1bd>
    8ec3:	mov    eax,0xffffffff
    8ec8:	jmp    8e75 <vmdk_create.part.5+0x2d5>
    8eca:	call   2f70 <__stack_chk_fail@plt>
    8ecf:	nop

0000000000008ed0 <vmdk_create>:
    8ed0:	test   rdx,rdx
    8ed3:	je     8ee0 <vmdk_create+0x10>
    8ed5:	mov    rsi,rdx
    8ed8:	jmp    79d0 <vmdk_snapshot_create>
    8edd:	nop    DWORD PTR [rax]
    8ee0:	mov    edx,ecx
    8ee2:	jmp    8ba0 <vmdk_create.part.5>
    8ee7:	nop    WORD PTR [rax+rax*1+0x0]

0000000000008ef0 <cloop_close>:
    8ef0:	push   rbx
    8ef1:	mov    rbx,QWORD PTR [rdi+0x40]
    8ef5:	mov    edi,DWORD PTR [rbx]
    8ef7:	call   3040 <close@plt>
    8efc:	mov    eax,DWORD PTR [rbx+0x8]
    8eff:	test   eax,eax
    8f01:	je     8f0c <cloop_close+0x1c>
    8f03:	mov    rdi,QWORD PTR [rbx+0x10]
    8f07:	call   2e40 <free@plt>
    8f0c:	mov    rdi,QWORD PTR [rbx+0x20]
    8f10:	call   2e40 <free@plt>
    8f15:	mov    rdi,QWORD PTR [rbx+0x28]
    8f19:	call   2e40 <free@plt>
    8f1e:	lea    rdi,[rbx+0x30]
    8f22:	pop    rbx
    8f23:	jmp    31a0 <inflateEnd@plt>
    8f28:	nop    DWORD PTR [rax+rax*1+0x0]

0000000000008f30 <cloop_read>:
    8f30:	push   r15
    8f32:	push   r14
    8f34:	push   r13
    8f36:	push   r12
    8f38:	push   rbp
    8f39:	push   rbx
    8f3a:	sub    rsp,0x18
    8f3e:	test   ecx,ecx
    8f40:	mov    r13,QWORD PTR [rdi+0x40]
    8f44:	jle    9061 <cloop_read+0x131>
    8f4a:	lea    eax,[rcx-0x1]
    8f4d:	mov    rbp,rsi
    8f50:	mov    r12,rdx
    8f53:	lea    rax,[rsi+rax*1+0x1]
    8f58:	mov    QWORD PTR [rsp],rax
    8f5c:	lea    rax,[r13+0x30]
    8f60:	mov    QWORD PTR [rsp+0x8],rax
    8f65:	nop    DWORD PTR [rax]
    8f68:	mov    ebx,DWORD PTR [r13+0x18]
    8f6c:	mov    rax,rbp
    8f6f:	cqo    
    8f71:	idiv   rbx
    8f74:	cmp    eax,DWORD PTR [r13+0x1c]
    8f78:	mov    rbx,rdx
    8f7b:	mov    r15,rax
    8f7e:	je     900e <cloop_read+0xde>
    8f84:	mov    rdx,QWORD PTR [r13+0x10]
    8f88:	cdqe   
    8f8a:	mov    edi,DWORD PTR [r13+0x0]
    8f8e:	add    rax,0x1
    8f92:	mov    rsi,QWORD PTR [rdx+rax*8-0x8]
    8f97:	mov    r14,QWORD PTR [rdx+rax*8]
    8f9b:	xor    edx,edx
    8f9d:	sub    r14d,esi
    8fa0:	call   33f0 <lseek64@plt>
    8fa5:	mov    rsi,QWORD PTR [r13+0x20]
    8fa9:	mov    edi,DWORD PTR [r13+0x0]
    8fad:	mov    edx,r14d
    8fb0:	call   4300 <qemu_read_ok>
    8fb5:	test   eax,eax
    8fb7:	js     9078 <cloop_read+0x148>
    8fbd:	mov    rax,QWORD PTR [r13+0x20]
    8fc1:	mov    DWORD PTR [r13+0x38],r14d
    8fc5:	mov    r14,QWORD PTR [rsp+0x8]
    8fca:	mov    QWORD PTR [r13+0x30],rax
    8fce:	mov    rax,QWORD PTR [r13+0x28]
    8fd2:	mov    rdi,r14
    8fd5:	mov    QWORD PTR [r13+0x48],rax
    8fd9:	mov    eax,DWORD PTR [r13+0x4]
    8fdd:	mov    DWORD PTR [r13+0x50],eax
    8fe1:	call   33a0 <inflateReset@plt>
    8fe6:	test   eax,eax
    8fe8:	jne    9078 <cloop_read+0x148>
    8fee:	mov    esi,0x4
    8ff3:	mov    rdi,r14
    8ff6:	call   2ec0 <inflate@plt>
    8ffb:	cmp    eax,0x1
    8ffe:	jne    9078 <cloop_read+0x148>
    9000:	mov    eax,DWORD PTR [r13+0x4]
    9004:	cmp    QWORD PTR [r13+0x58],rax
    9008:	jne    9078 <cloop_read+0x148>
    900a:	mov    DWORD PTR [r13+0x1c],r15d
    900e:	shl    ebx,0x9
    9011:	lea    rdi,[r12+0x8]
    9016:	mov    rcx,r12
    9019:	mov    esi,ebx
    901b:	add    rsi,QWORD PTR [r13+0x28]
    901f:	add    rbp,0x1
    9023:	and    rdi,0xfffffffffffffff8
    9027:	add    r12,0x200
    902e:	sub    rcx,rdi
    9031:	mov    rax,QWORD PTR [rsi]
    9034:	mov    QWORD PTR [r12-0x200],rax
    903c:	mov    rax,QWORD PTR [rsi+0x1f8]
    9043:	sub    rsi,rcx
    9046:	add    ecx,0x200
    904c:	shr    ecx,0x3
    904f:	mov    QWORD PTR [r12-0x8],rax
    9054:	rep movs QWORD PTR es:[rdi],QWORD PTR ds:[rsi]
    9057:	cmp    QWORD PTR [rsp],rbp
    905b:	jne    8f68 <cloop_read+0x38>
    9061:	add    rsp,0x18
    9065:	xor    eax,eax
    9067:	pop    rbx
    9068:	pop    rbp
    9069:	pop    r12
    906b:	pop    r13
    906d:	pop    r14
    906f:	pop    r15
    9071:	ret    
    9072:	nop    WORD PTR [rax+rax*1+0x0]
    9078:	add    rsp,0x18
    907c:	mov    eax,0xffffffff
    9081:	pop    rbx
    9082:	pop    rbp
    9083:	pop    r12
    9085:	pop    r13
    9087:	pop    r14
    9089:	pop    r15
    908b:	ret    
    908c:	nop    DWORD PTR [rax+0x0]

0000000000009090 <cloop_probe>:
    9090:	sub    rsp,0x8
    9094:	mov    eax,0x53
    9099:	cmp    esi,0x53
    909c:	cmovge esi,eax
    909f:	movsxd rdx,esi
    90a2:	mov    rsi,rdi
    90a5:	lea    rdi,[rip+0x15bfc]        # 1eca8 <desc_template.13816+0x128>
    90ac:	call   30b0 <memcmp@plt>
    90b1:	test   eax,eax
    90b3:	sete   al
    90b6:	add    rsp,0x8
    90ba:	movzx  eax,al
    90bd:	add    eax,eax
    90bf:	ret    

00000000000090c0 <cloop_open>:
    90c0:	push   r12
    90c2:	push   rbp
    90c3:	mov    rbp,rdi
    90c6:	push   rbx
    90c7:	mov    rbx,QWORD PTR [rbp+0x40]
    90cb:	mov    rdi,rsi
    90ce:	xor    eax,eax
    90d0:	xor    esi,esi
    90d2:	call   32e0 <open64@plt>
    90d7:	test   eax,eax
    90d9:	mov    DWORD PTR [rbx],eax
    90db:	js     9228 <cloop_open+0x168>
    90e1:	mov    DWORD PTR [rbp+0x8],0x1
    90e8:	mov    edi,DWORD PTR [rbx]
    90ea:	xor    edx,edx
    90ec:	mov    esi,0x80
    90f1:	call   33f0 <lseek64@plt>
    90f6:	test   rax,rax
    90f9:	js     9240 <cloop_open+0x180>
    90ff:	mov    edi,DWORD PTR [rbx]
    9101:	lea    rsi,[rbx+0x4]
    9105:	mov    edx,0x4
    910a:	call   4300 <qemu_read_ok>
    910f:	test   eax,eax
    9111:	js     9240 <cloop_open+0x180>
    9117:	mov    eax,DWORD PTR [rbx+0x4]
    911a:	mov    edi,DWORD PTR [rbx]
    911c:	lea    rsi,[rbx+0x8]
    9120:	mov    edx,0x4
    9125:	bswap  eax
    9127:	mov    DWORD PTR [rbx+0x4],eax
    912a:	call   4300 <qemu_read_ok>
    912f:	test   eax,eax
    9131:	js     9240 <cloop_open+0x180>
    9137:	mov    r12d,DWORD PTR [rbx+0x8]
    913b:	bswap  r12d
    913e:	mov    DWORD PTR [rbx+0x8],r12d
    9142:	shl    r12d,0x3
    9146:	mov    rdi,r12
    9149:	call   3230 <malloc@plt>
    914e:	test   rax,rax
    9151:	mov    QWORD PTR [rbx+0x10],rax
    9155:	mov    edi,DWORD PTR [rbx]
    9157:	je     9242 <cloop_open+0x182>
    915d:	mov    rdx,r12
    9160:	mov    rsi,rax
    9163:	call   30a0 <read@plt>
    9168:	cmp    r12,rax
    916b:	jg     9240 <cloop_open+0x180>
    9171:	mov    eax,DWORD PTR [rbx+0x8]
    9174:	mov    edi,0x2
    9179:	test   eax,eax
    917b:	je     91d7 <cloop_open+0x117>
    917d:	mov    rdx,QWORD PTR [rbx+0x10]
    9181:	mov    r8d,0x1
    9187:	mov    rax,QWORD PTR [rdx]
    918a:	bswap  rax
    918d:	mov    QWORD PTR [rdx],rax
    9190:	xor    edx,edx
    9192:	lea    eax,[rdx+0x1]
    9195:	cmp    DWORD PTR [rbx+0x8],eax
    9198:	jbe    91d3 <cloop_open+0x113>
    919a:	nop    WORD PTR [rax+rax*1+0x0]
    91a0:	mov    rcx,QWORD PTR [rbx+0x10]
    91a4:	mov    edi,eax
    91a6:	test   eax,eax
    91a8:	lea    rsi,[rcx+rdi*8]
    91ac:	mov    rcx,QWORD PTR [rsi]
    91af:	bswap  rcx
    91b2:	mov    QWORD PTR [rsi],rcx
    91b5:	je     91c9 <cloop_open+0x109>
    91b7:	mov    rsi,QWORD PTR [rbx+0x10]
    91bb:	mov    rcx,QWORD PTR [rsi+rdi*8]
    91bf:	sub    ecx,DWORD PTR [rsi+rdx*8]
    91c2:	cmp    r8d,ecx
    91c5:	cmovb  r8d,ecx
    91c9:	mov    edx,eax
    91cb:	lea    eax,[rdx+0x1]
    91ce:	cmp    DWORD PTR [rbx+0x8],eax
    91d1:	ja     91a0 <cloop_open+0xe0>
    91d3:	lea    edi,[r8+0x1]
    91d7:	call   49d0 <qemu_malloc>
    91dc:	mov    edi,DWORD PTR [rbx+0x4]
    91df:	mov    QWORD PTR [rbx+0x20],rax
    91e3:	call   49d0 <qemu_malloc>
    91e8:	lea    rdi,[rbx+0x30]
    91ec:	lea    rsi,[rip+0x12fec]        # 1c1df <__PRETTY_FUNCTION__.13304+0x8f>
    91f3:	mov    QWORD PTR [rbx+0x28],rax
    91f7:	mov    edx,0x70
    91fc:	call   32c0 <inflateInit_@plt>
    9201:	test   eax,eax
    9203:	jne    9240 <cloop_open+0x180>
    9205:	mov    ecx,DWORD PTR [rbx+0x4]
    9208:	mov    edx,DWORD PTR [rbx+0x8]
    920b:	shr    ecx,0x9
    920e:	mov    DWORD PTR [rbx+0x1c],edx
    9211:	imul   edx,ecx
    9214:	mov    DWORD PTR [rbx+0x18],ecx
    9217:	mov    esi,edx
    9219:	mov    QWORD PTR [rbp+0x0],rsi
    921d:	pop    rbx
    921e:	pop    rbp
    921f:	pop    r12
    9221:	ret    
    9222:	nop    WORD PTR [rax+rax*1+0x0]
    9228:	call   2e80 <__errno_location@plt>
    922d:	mov    eax,DWORD PTR [rax]
    922f:	neg    eax
    9231:	pop    rbx
    9232:	pop    rbp
    9233:	pop    r12
    9235:	ret    
    9236:	nop    WORD PTR cs:[rax+rax*1+0x0]
    9240:	mov    edi,DWORD PTR [rbx]
    9242:	call   3040 <close@plt>
    9247:	mov    eax,0xffffffff
    924c:	jmp    9231 <cloop_open+0x171>
    924e:	xchg   ax,ax

0000000000009250 <dmg_close>:
    9250:	push   rbx
    9251:	mov    rbx,QWORD PTR [rdi+0x40]
    9255:	mov    edi,DWORD PTR [rbx]
    9257:	call   3040 <close@plt>
    925c:	mov    eax,DWORD PTR [rbx+0x4]
    925f:	test   eax,eax
    9261:	je     9290 <dmg_close+0x40>
    9263:	mov    rdi,QWORD PTR [rbx+0x8]
    9267:	call   2e40 <free@plt>
    926c:	mov    rdi,QWORD PTR [rbx+0x10]
    9270:	call   2e40 <free@plt>
    9275:	mov    rdi,QWORD PTR [rbx+0x18]
    9279:	call   2e40 <free@plt>
    927e:	mov    rdi,QWORD PTR [rbx+0x20]
    9282:	call   2e40 <free@plt>
    9287:	mov    rdi,QWORD PTR [rbx+0x28]
    928b:	call   2e40 <free@plt>
    9290:	mov    rdi,QWORD PTR [rbx+0x38]
    9294:	call   2e40 <free@plt>
    9299:	mov    rdi,QWORD PTR [rbx+0x40]
    929d:	call   2e40 <free@plt>
    92a2:	lea    rdi,[rbx+0x48]
    92a6:	pop    rbx
    92a7:	jmp    31a0 <inflateEnd@plt>
    92ac:	nop    DWORD PTR [rax+0x0]

00000000000092b0 <dmg_read>:
    92b0:	push   r15
    92b2:	push   r14
    92b4:	push   r13
    92b6:	push   r12
    92b8:	push   rbp
    92b9:	push   rbx
    92ba:	sub    rsp,0x18
    92be:	test   ecx,ecx
    92c0:	mov    r13,QWORD PTR [rdi+0x40]
    92c4:	jle    9508 <dmg_read+0x258>
    92ca:	lea    rax,[r13+0x48]
    92ce:	mov    r15d,esi
    92d1:	mov    r14,rdx
    92d4:	lea    ebp,[rcx+rsi*1]
    92d7:	mov    QWORD PTR [rsp+0x8],rax
    92dc:	jmp    9352 <dmg_read+0xa2>
    92de:	xchg   ax,ax
    92e0:	mov    rdx,QWORD PTR [r13+0x20]
    92e4:	movsxd rcx,r15d
    92e7:	mov    rdx,QWORD PTR [rdx+rax*8]
    92eb:	cmp    rdx,rcx
    92ee:	ja     935f <dmg_read+0xaf>
    92f0:	mov    rsi,QWORD PTR [r13+0x28]
    92f4:	mov    rdi,QWORD PTR [rsi+rax*8]
    92f8:	add    rdi,rdx
    92fb:	cmp    rcx,rdi
    92fe:	jae    935f <dmg_read+0xaf>
    9300:	mov    esi,r15d
    9303:	lea    rdi,[r14+0x8]
    9307:	mov    rcx,r14
    930a:	sub    esi,edx
    930c:	add    r15d,0x1
    9310:	add    r14,0x200
    9317:	shl    esi,0x9
    931a:	add    rsi,QWORD PTR [r13+0x40]
    931e:	and    rdi,0xfffffffffffffff8
    9322:	sub    rcx,rdi
    9325:	mov    rax,QWORD PTR [rsi]
    9328:	mov    QWORD PTR [r14-0x200],rax
    932f:	mov    rax,QWORD PTR [rsi+0x1f8]
    9336:	sub    rsi,rcx
    9339:	add    ecx,0x200
    933f:	shr    ecx,0x3
    9342:	mov    QWORD PTR [r14-0x8],rax
    9346:	cmp    ebp,r15d
    9349:	rep movs QWORD PTR es:[rdi],QWORD PTR ds:[rsi]
    934c:	je     9508 <dmg_read+0x258>
    9352:	mov    eax,DWORD PTR [r13+0x30]
    9356:	mov    r8d,DWORD PTR [r13+0x4]
    935a:	cmp    eax,r8d
    935d:	jb     92e0 <dmg_read+0x30>
    935f:	mov    r10d,r8d
    9362:	xor    ecx,ecx
    9364:	movsxd rdi,r15d
    9367:	cmp    ecx,r10d
    936a:	je     93ae <dmg_read+0xfe>
    936c:	lea    eax,[rcx+r10*1]
    9370:	mov    rsi,QWORD PTR [r13+0x20]
    9374:	shr    eax,1
    9376:	mov    edx,eax
    9378:	mov    ebx,eax
    937a:	lea    r9,[rdx*8+0x0]
    9382:	mov    rdx,QWORD PTR [rsi+rdx*8]
    9386:	cmp    rdi,rdx
    9389:	jb     93aa <dmg_read+0xfa>
    938b:	jmp    93cb <dmg_read+0x11b>
    938d:	nop    DWORD PTR [rax]
    9390:	lea    ebx,[rcx+rax*1]
    9393:	shr    ebx,1
    9395:	mov    edx,ebx
    9397:	lea    r9,[rdx*8+0x0]
    939f:	mov    rdx,QWORD PTR [rsi+rdx*8]
    93a3:	cmp    rdx,rdi
    93a6:	jbe    93c8 <dmg_read+0x118>
    93a8:	mov    eax,ebx
    93aa:	cmp    ecx,eax
    93ac:	jne    9390 <dmg_read+0xe0>
    93ae:	add    rsp,0x18
    93b2:	mov    eax,0xffffffff
    93b7:	pop    rbx
    93b8:	pop    rbp
    93b9:	pop    r12
    93bb:	pop    r13
    93bd:	pop    r14
    93bf:	pop    r15
    93c1:	ret    
    93c2:	nop    WORD PTR [rax+rax*1+0x0]
    93c8:	mov    r10d,eax
    93cb:	mov    rax,QWORD PTR [r13+0x28]
    93cf:	mov    ecx,ebx
    93d1:	add    rdx,QWORD PTR [rax+r9*1]
    93d5:	cmp    rdx,rdi
    93d8:	jbe    9367 <dmg_read+0xb7>
    93da:	cmp    r8d,ebx
    93dd:	jbe    93ae <dmg_read+0xfe>
    93df:	mov    rdx,QWORD PTR [r13+0x8]
    93e3:	mov    r12d,ebx
    93e6:	mov    DWORD PTR [r13+0x30],r8d
    93ea:	mov    edx,DWORD PTR [rdx+r12*4]
    93ee:	cmp    edx,0x2
    93f1:	je     94f0 <dmg_read+0x240>
    93f7:	cmp    edx,0x80000005
    93fd:	je     9440 <dmg_read+0x190>
    93ff:	cmp    edx,0x1
    9402:	je     9418 <dmg_read+0x168>
    9404:	mov    DWORD PTR [r13+0x30],ebx
    9408:	mov    rdx,QWORD PTR [rsi+r12*8]
    940c:	jmp    9300 <dmg_read+0x50>
    9411:	nop    DWORD PTR [rax+0x0]
    9418:	mov    rax,QWORD PTR [r13+0x18]
    941c:	mov    rsi,QWORD PTR [r13+0x40]
    9420:	mov    edi,DWORD PTR [r13+0x0]
    9424:	mov    rdx,QWORD PTR [rax+r12*8]
    9428:	call   4300 <qemu_read_ok>
    942d:	test   eax,eax
    942f:	js     93ae <dmg_read+0xfe>
    9435:	mov    rsi,QWORD PTR [r13+0x20]
    9439:	jmp    9404 <dmg_read+0x154>
    943b:	nop    DWORD PTR [rax+rax*1+0x0]
    9440:	mov    rax,QWORD PTR [r13+0x10]
    9444:	mov    edi,DWORD PTR [r13+0x0]
    9448:	xor    edx,edx
    944a:	mov    rsi,QWORD PTR [rax+r12*8]
    944e:	call   33f0 <lseek64@plt>
    9453:	test   eax,eax
    9455:	js     93ae <dmg_read+0xfe>
    945b:	mov    rax,QWORD PTR [r13+0x18]
    945f:	mov    rsi,QWORD PTR [r13+0x38]
    9463:	mov    edi,DWORD PTR [r13+0x0]
    9467:	mov    rdx,QWORD PTR [rax+r12*8]
    946b:	call   4300 <qemu_read_ok>
    9470:	test   eax,eax
    9472:	js     93ae <dmg_read+0xfe>
    9478:	mov    rax,QWORD PTR [r13+0x38]
    947c:	mov    rdi,QWORD PTR [rsp+0x8]
    9481:	mov    QWORD PTR [r13+0x48],rax
    9485:	mov    rax,QWORD PTR [r13+0x18]
    9489:	mov    rax,QWORD PTR [rax+r12*8]
    948d:	mov    DWORD PTR [r13+0x50],eax
    9491:	mov    rax,QWORD PTR [r13+0x40]
    9495:	mov    QWORD PTR [r13+0x60],rax
    9499:	mov    rax,QWORD PTR [r13+0x28]
    949d:	mov    rax,QWORD PTR [rax+r12*8]
    94a1:	shl    eax,0x9
    94a4:	mov    DWORD PTR [r13+0x68],eax
    94a8:	call   33a0 <inflateReset@plt>
    94ad:	test   eax,eax
    94af:	jne    93ae <dmg_read+0xfe>
    94b5:	mov    rdi,QWORD PTR [rsp+0x8]
    94ba:	mov    esi,0x4
    94bf:	call   2ec0 <inflate@plt>
    94c4:	cmp    eax,0x1
    94c7:	jne    93ae <dmg_read+0xfe>
    94cd:	mov    rax,QWORD PTR [r13+0x28]
    94d1:	mov    rax,QWORD PTR [rax+r12*8]
    94d5:	shl    rax,0x9
    94d9:	cmp    QWORD PTR [r13+0x70],rax
    94dd:	je     9435 <dmg_read+0x185>
    94e3:	jmp    93ae <dmg_read+0xfe>
    94e8:	nop    DWORD PTR [rax+rax*1+0x0]
    94f0:	mov    rdx,QWORD PTR [rax+r12*8]
    94f4:	mov    rdi,QWORD PTR [r13+0x40]
    94f8:	xor    esi,esi
    94fa:	shl    rdx,0x9
    94fe:	call   3020 <memset@plt>
    9503:	jmp    9435 <dmg_read+0x185>
    9508:	add    rsp,0x18
    950c:	xor    eax,eax
    950e:	pop    rbx
    950f:	pop    rbp
    9510:	pop    r12
    9512:	pop    r13
    9514:	pop    r14
    9516:	pop    r15
    9518:	ret    
    9519:	nop    DWORD PTR [rax+0x0]

0000000000009520 <read_uint32>:
    9520:	sub    rsp,0x18
    9524:	mov    edx,0x4
    9529:	lea    rsi,[rsp+0x4]
    952e:	mov    rax,QWORD PTR fs:0x28
    9537:	mov    QWORD PTR [rsp+0x8],rax
    953c:	xor    eax,eax
    953e:	call   4300 <qemu_read_ok>
    9543:	xor    edx,edx
    9545:	test   eax,eax
    9547:	js     9551 <read_uint32+0x31>
    9549:	mov    edx,DWORD PTR [rsp+0x4]
    954d:	bswap  edx
    954f:	mov    edx,edx
    9551:	mov    rcx,QWORD PTR [rsp+0x8]
    9556:	xor    rcx,QWORD PTR fs:0x28
    955f:	mov    rax,rdx
    9562:	jne    9569 <read_uint32+0x49>
    9564:	add    rsp,0x18
    9568:	ret    
    9569:	call   2f70 <__stack_chk_fail@plt>
    956e:	xchg   ax,ax

0000000000009570 <read_off>:
    9570:	sub    rsp,0x18
    9574:	mov    edx,0x8
    9579:	mov    rsi,rsp
    957c:	mov    rax,QWORD PTR fs:0x28
    9585:	mov    QWORD PTR [rsp+0x8],rax
    958a:	xor    eax,eax
    958c:	call   4300 <qemu_read_ok>
    9591:	xor    edx,edx
    9593:	test   eax,eax
    9595:	js     959e <read_off+0x2e>
    9597:	mov    rdx,QWORD PTR [rsp]
    959b:	bswap  rdx
    959e:	mov    rcx,QWORD PTR [rsp+0x8]
    95a3:	xor    rcx,QWORD PTR fs:0x28
    95ac:	mov    rax,rdx
    95af:	jne    95b6 <read_off+0x46>
    95b1:	add    rsp,0x18
    95b5:	ret    
    95b6:	call   2f70 <__stack_chk_fail@plt>
    95bb:	nop    DWORD PTR [rax+rax*1+0x0]

00000000000095c0 <dmg_open>:
    95c0:	push   r15
    95c2:	push   r14
    95c4:	xor    eax,eax
    95c6:	push   r13
    95c8:	push   r12
    95ca:	mov    r12d,edx
    95cd:	push   rbp
    95ce:	push   rbx
    95cf:	mov    rbp,rsi
    95d2:	mov    rbx,rdi
    95d5:	xor    esi,esi
    95d7:	sub    rsp,0x48
    95db:	mov    r15,QWORD PTR [rdi+0x40]
    95df:	mov    rdi,rbp
    95e2:	call   32e0 <open64@plt>
    95e7:	test   eax,eax
    95e9:	mov    DWORD PTR [r15],eax
    95ec:	js     9680 <dmg_open+0xc0>
    95f2:	mov    DWORD PTR [rbx+0x8],0x1
    95f9:	mov    edi,DWORD PTR [r15]
    95fc:	mov    edx,0x2
    9601:	mov    DWORD PTR [r15+0x4],0x0
    9609:	mov    QWORD PTR [r15+0x28],0x0
    9611:	mov    rsi,0xfffffffffffffe28
    9618:	mov    QWORD PTR [r15+0x20],0x0
    9620:	mov    QWORD PTR [r15+0x18],0x0
    9628:	mov    QWORD PTR [r15+0x10],0x0
    9630:	call   33f0 <lseek64@plt>
    9635:	test   rax,rax
    9638:	js     964a <dmg_open+0x8a>
    963a:	mov    edi,DWORD PTR [r15]
    963d:	call   9570 <read_off>
    9642:	test   rax,rax
    9645:	mov    r14,rax
    9648:	jne    96a0 <dmg_open+0xe0>
    964a:	mov    edi,DWORD PTR [r15]
    964d:	call   3040 <close@plt>
    9652:	lea    rax,[rip+0x21dd47]        # 2273a0 <bdrv_raw>
    9659:	mov    edx,r12d
    965c:	mov    rsi,rbp
    965f:	mov    rdi,rbx
    9662:	mov    QWORD PTR [rbx+0x38],rax
    9666:	add    rsp,0x48
    966a:	pop    rbx
    966b:	pop    rbp
    966c:	pop    r12
    966e:	pop    r13
    9670:	pop    r14
    9672:	pop    r15
    9674:	jmp    QWORD PTR [rip+0x21dd3e]        # 2273b8 <bdrv_raw+0x18>
    967a:	nop    WORD PTR [rax+rax*1+0x0]
    9680:	call   2e80 <__errno_location@plt>
    9685:	mov    eax,DWORD PTR [rax]
    9687:	neg    eax
    9689:	add    rsp,0x48
    968d:	pop    rbx
    968e:	pop    rbp
    968f:	pop    r12
    9691:	pop    r13
    9693:	pop    r14
    9695:	pop    r15
    9697:	ret    
    9698:	nop    DWORD PTR [rax+rax*1+0x0]
    96a0:	mov    edi,DWORD PTR [r15]
    96a3:	xor    edx,edx
    96a5:	mov    rsi,rax
    96a8:	call   33f0 <lseek64@plt>
    96ad:	test   rax,rax
    96b0:	js     964a <dmg_open+0x8a>
    96b2:	mov    edi,DWORD PTR [r15]
    96b5:	call   9520 <read_uint32>
    96ba:	cmp    rax,0x100
    96c0:	jne    964a <dmg_open+0x8a>
    96c2:	mov    edi,DWORD PTR [r15]
    96c5:	call   9520 <read_uint32>
    96ca:	test   eax,eax
    96cc:	mov    r13,rax
    96cf:	je     964a <dmg_open+0x8a>
    96d5:	mov    edi,DWORD PTR [r15]
    96d8:	mov    edx,0x1
    96dd:	mov    esi,0xf8
    96e2:	call   33f0 <lseek64@plt>
    96e7:	test   rax,rax
    96ea:	js     964a <dmg_open+0x8a>
    96f0:	mov    eax,r13d
    96f3:	mov    QWORD PTR [rsp+0x20],rbx
    96f8:	mov    QWORD PTR [rsp+0x28],rbp
    96fd:	mov    DWORD PTR [rsp+0x1c],0x1
    9705:	mov    rbp,r15
    9708:	mov    DWORD PTR [rsp+0x30],0x1
    9710:	mov    QWORD PTR [rsp+0x10],0x0
    9719:	mov    QWORD PTR [rsp+0x8],0x0
    9722:	mov    rbx,r14
    9725:	mov    QWORD PTR [rsp],rax
    9729:	mov    r15d,r12d
    972c:	mov    edi,DWORD PTR [rbp+0x0]
    972f:	mov    edx,0x1
    9734:	xor    esi,esi
    9736:	call   33f0 <lseek64@plt>
    973b:	mov    rcx,QWORD PTR [rsp]
    973f:	lea    rdx,[rcx+rbx*1]
    9743:	cmp    rax,rdx
    9746:	jge    99a8 <dmg_open+0x3e8>
    974c:	mov    edi,DWORD PTR [rbp+0x0]
    974f:	call   9520 <read_uint32>
    9754:	test   eax,eax
    9756:	mov    r13,rax
    9759:	je     9993 <dmg_open+0x3d3>
    975f:	mov    edi,DWORD PTR [rbp+0x0]
    9762:	call   9520 <read_uint32>
    9767:	cmp    eax,0x6d697368
    976c:	jne    98ed <dmg_open+0x32d>
    9772:	cmp    r13d,0xf3
    9779:	jbe    98ed <dmg_open+0x32d>
    977f:	mov    edi,DWORD PTR [rbp+0x0]
    9782:	mov    edx,0x1
    9787:	mov    esi,0xc8
    978c:	call   33f0 <lseek64@plt>
    9791:	test   rax,rax
    9794:	js     9993 <dmg_open+0x3d3>
    979a:	sub    r13d,0xcc
    97a1:	mov    eax,0xcccccccd
    97a6:	mov    r14d,DWORD PTR [rbp+0x4]
    97aa:	mul    r13d
    97ad:	mov    rdi,QWORD PTR [rbp+0x8]
    97b1:	mov    r13d,edx
    97b4:	shr    r13d,0x5
    97b8:	add    r14d,r13d
    97bb:	shl    r14d,0x3
    97bf:	mov    esi,r14d
    97c2:	movsxd r14,r14d
    97c5:	sar    esi,1
    97c7:	movsxd rsi,esi
    97ca:	call   49f0 <qemu_realloc>
    97cf:	mov    rdi,QWORD PTR [rbp+0x10]
    97d3:	mov    rsi,r14
    97d6:	mov    QWORD PTR [rbp+0x8],rax
    97da:	call   49f0 <qemu_realloc>
    97df:	mov    rdi,QWORD PTR [rbp+0x18]
    97e3:	mov    rsi,r14
    97e6:	mov    QWORD PTR [rbp+0x10],rax
    97ea:	call   49f0 <qemu_realloc>
    97ef:	mov    rdi,QWORD PTR [rbp+0x20]
    97f3:	mov    rsi,r14
    97f6:	mov    QWORD PTR [rbp+0x18],rax
    97fa:	call   49f0 <qemu_realloc>
    97ff:	mov    rdi,QWORD PTR [rbp+0x28]
    9803:	mov    rsi,r14
    9806:	mov    QWORD PTR [rbp+0x20],rax
    980a:	call   49f0 <qemu_realloc>
    980f:	mov    r14d,DWORD PTR [rbp+0x4]
    9813:	mov    QWORD PTR [rbp+0x28],rax
    9817:	lea    eax,[r13+r14*1+0x0]
    981c:	cmp    r14d,eax
    981f:	jae    98e5 <dmg_open+0x325>
    9825:	mov    QWORD PTR [rsp+0x38],rbx
    982a:	mov    r12d,DWORD PTR [rsp+0x1c]
    982f:	mov    ebx,DWORD PTR [rsp+0x30]
    9833:	mov    DWORD PTR [rsp+0x34],r15d
    9838:	mov    edi,DWORD PTR [rbp+0x0]
    983b:	mov    r15d,r14d
    983e:	call   9520 <read_uint32>
    9843:	mov    rsi,QWORD PTR [rbp+0x8]
    9847:	mov    DWORD PTR [rsi+r15*4],eax
    984b:	mov    rax,QWORD PTR [rbp+0x8]
    984f:	mov    eax,DWORD PTR [rax+r15*4]
    9853:	lea    esi,[rax-0x1]
    9856:	cmp    esi,0x1
    9859:	jbe    9903 <dmg_open+0x343>
    985f:	cmp    eax,0x80000005
    9864:	je     9903 <dmg_open+0x343>
    986a:	sub    r14d,0x1
    986e:	cmp    eax,0xffffffff
    9871:	jne    98a0 <dmg_open+0x2e0>
    9873:	mov    rsi,QWORD PTR [rbp+0x10]
    9877:	mov    rdx,QWORD PTR [rbp+0x18]
    987b:	mov    eax,r14d
    987e:	mov    rdx,QWORD PTR [rdx+rax*8]
    9882:	add    rdx,QWORD PTR [rsi+rax*8]
    9886:	mov    rsi,QWORD PTR [rbp+0x20]
    988a:	mov    QWORD PTR [rsp+0x8],rdx
    988f:	mov    rdx,QWORD PTR [rbp+0x28]
    9893:	mov    rdx,QWORD PTR [rdx+rax*8]
    9897:	add    rdx,QWORD PTR [rsi+rax*8]
    989b:	mov    QWORD PTR [rsp+0x10],rdx
    98a0:	mov    edi,DWORD PTR [rbp+0x0]
    98a3:	mov    edx,0x1
    98a8:	mov    esi,0x24
    98ad:	call   33f0 <lseek64@plt>
    98b2:	test   rax,rax
    98b5:	js     997c <dmg_open+0x3bc>
    98bb:	sub    r13d,0x1
    98bf:	mov    eax,DWORD PTR [rbp+0x4]
    98c2:	add    r14d,0x1
    98c6:	add    eax,r13d
    98c9:	cmp    eax,r14d
    98cc:	ja     9838 <dmg_open+0x278>
    98d2:	mov    DWORD PTR [rsp+0x30],ebx
    98d6:	mov    r15d,DWORD PTR [rsp+0x34]
    98db:	mov    rbx,QWORD PTR [rsp+0x38]
    98e0:	mov    DWORD PTR [rsp+0x1c],r12d
    98e5:	mov    DWORD PTR [rbp+0x4],eax
    98e8:	jmp    972c <dmg_open+0x16c>
    98ed:	mov    edi,DWORD PTR [rbp+0x0]
    98f0:	lea    esi,[r13-0x4]
    98f4:	mov    edx,0x1
    98f9:	call   33f0 <lseek64@plt>
    98fe:	jmp    972c <dmg_open+0x16c>
    9903:	mov    edi,DWORD PTR [rbp+0x0]
    9906:	call   9520 <read_uint32>
    990b:	mov    edi,DWORD PTR [rbp+0x0]
    990e:	call   9570 <read_off>
    9913:	add    rax,QWORD PTR [rsp+0x10]
    9918:	mov    rsi,QWORD PTR [rbp+0x20]
    991c:	mov    QWORD PTR [rsi+r15*8],rax
    9920:	mov    edi,DWORD PTR [rbp+0x0]
    9923:	call   9570 <read_off>
    9928:	mov    rsi,QWORD PTR [rbp+0x28]
    992c:	mov    QWORD PTR [rsi+r15*8],rax
    9930:	mov    edi,DWORD PTR [rbp+0x0]
    9933:	call   9570 <read_off>
    9938:	add    rax,QWORD PTR [rsp+0x8]
    993d:	mov    rsi,QWORD PTR [rbp+0x10]
    9941:	mov    QWORD PTR [rsi+r15*8],rax
    9945:	mov    edi,DWORD PTR [rbp+0x0]
    9948:	call   9570 <read_off>
    994d:	mov    rsi,QWORD PTR [rbp+0x18]
    9951:	mov    edx,r12d
    9954:	mov    QWORD PTR [rsi+r15*8],rax
    9958:	mov    rax,QWORD PTR [rbp+0x18]
    995c:	mov    esi,ebx
    995e:	mov    rax,QWORD PTR [rax+r15*8]
    9962:	cmp    rax,rsi
    9965:	cmova  ebx,eax
    9968:	mov    rax,QWORD PTR [rbp+0x28]
    996c:	mov    rax,QWORD PTR [rax+r15*8]
    9970:	cmp    rax,rdx
    9973:	cmova  r12d,eax
    9977:	jmp    98bf <dmg_open+0x2ff>
    997c:	mov    r15,rbp
    997f:	mov    rbx,QWORD PTR [rsp+0x20]
    9984:	mov    rbp,QWORD PTR [rsp+0x28]
    9989:	mov    r12d,DWORD PTR [rsp+0x34]
    998e:	jmp    964a <dmg_open+0x8a>
    9993:	mov    r12d,r15d
    9996:	mov    rbx,QWORD PTR [rsp+0x20]
    999b:	mov    r15,rbp
    999e:	mov    rbp,QWORD PTR [rsp+0x28]
    99a3:	jmp    964a <dmg_open+0x8a>
    99a8:	mov    eax,DWORD PTR [rsp+0x30]
    99ac:	mov    rbx,QWORD PTR [rsp+0x20]
    99b1:	mov    r12d,r15d
    99b4:	mov    r15,rbp
    99b7:	mov    rbp,QWORD PTR [rsp+0x28]
    99bc:	lea    edi,[rax+0x1]
    99bf:	call   49d0 <qemu_malloc>
    99c4:	mov    edi,DWORD PTR [rsp+0x1c]
    99c8:	mov    QWORD PTR [r15+0x38],rax
    99cc:	shl    edi,0x9
    99cf:	call   49d0 <qemu_malloc>
    99d4:	lea    rdi,[r15+0x48]
    99d8:	lea    rsi,[rip+0x12800]        # 1c1df <__PRETTY_FUNCTION__.13304+0x8f>
    99df:	mov    QWORD PTR [r15+0x40],rax
    99e3:	mov    edx,0x70
    99e8:	call   32c0 <inflateInit_@plt>
    99ed:	test   eax,eax
    99ef:	jne    964a <dmg_open+0x8a>
    99f5:	mov    edx,DWORD PTR [r15+0x4]
    99f9:	mov    DWORD PTR [r15+0x30],edx
    99fd:	jmp    9689 <dmg_open+0xc9>
    9a02:	nop    DWORD PTR [rax+0x0]
    9a06:	nop    WORD PTR cs:[rax+rax*1+0x0]

0000000000009a10 <dmg_probe>:
    9a10:	push   rbx
    9a11:	mov    rdi,rdx
    9a14:	mov    rbx,rdx
    9a17:	call   2f60 <strlen@plt>
    9a1c:	xor    ecx,ecx
    9a1e:	cmp    eax,0x4
    9a21:	jle    9a46 <dmg_probe+0x36>
    9a23:	cdqe   
    9a25:	lea    rdi,[rip+0x152d6]        # 1ed02 <desc_template.13816+0x182>
    9a2c:	mov    ecx,0x5
    9a31:	lea    rsi,[rbx+rax*1-0x4]
    9a36:	repz cmps BYTE PTR ds:[rsi],BYTE PTR es:[rdi]
    9a38:	seta   al
    9a3b:	sbb    al,0x0
    9a3d:	xor    ecx,ecx
    9a3f:	test   al,al
    9a41:	sete   cl
    9a44:	add    ecx,ecx
    9a46:	mov    eax,ecx
    9a48:	pop    rbx
    9a49:	ret    
    9a4a:	nop    WORD PTR [rax+rax*1+0x0]

0000000000009a50 <bochs_close>:
    9a50:	push   rbx
    9a51:	mov    rbx,QWORD PTR [rdi+0x40]
    9a55:	mov    rdi,QWORD PTR [rbx+0x8]
    9a59:	call   49c0 <qemu_free>
    9a5e:	mov    edi,DWORD PTR [rbx]
    9a60:	pop    rbx
    9a61:	jmp    3040 <close@plt>
    9a66:	nop    WORD PTR cs:[rax+rax*1+0x0]

0000000000009a70 <bochs_read>:
    9a70:	push   r15
    9a72:	push   r14
    9a74:	push   r13
    9a76:	push   r12
    9a78:	push   rbp
    9a79:	push   rbx
    9a7a:	sub    rsp,0x38
    9a7e:	mov    r14,QWORD PTR [rdi+0x40]
    9a82:	mov    rax,QWORD PTR fs:0x28
    9a8b:	mov    QWORD PTR [rsp+0x28],rax
    9a90:	xor    eax,eax
    9a92:	test   ecx,ecx
    9a94:	mov    QWORD PTR [rsp+0x18],r14
    9a99:	jle    9c18 <bochs_read+0x1a8>
    9a9f:	lea    ebx,[rcx-0x1]
    9aa2:	shl    rsi,0x9
    9aa6:	mov    r12,rdi
    9aa9:	sub    rsi,rdx
    9aac:	mov    r13,rdx
    9aaf:	add    rbx,0x1
    9ab3:	mov    rbp,rsi
    9ab6:	shl    rbx,0x9
    9aba:	lea    rax,[rdx+rbx*1]
    9abe:	mov    QWORD PTR [rsp],rax
    9ac2:	lea    rax,[rsp+0x27]
    9ac7:	mov    QWORD PTR [rsp+0x10],rax
    9acc:	jmp    9b25 <bochs_read+0xb5>
    9ace:	xchg   ax,ax
    9ad0:	call   2e80 <__errno_location@plt>
    9ad5:	mov    DWORD PTR [rax],0x5
    9adb:	nop    DWORD PTR [rax+rax*1+0x0]
    9ae0:	lea    rdi,[r13+0x8]
    9ae4:	mov    rcx,r13
    9ae7:	xor    eax,eax
    9ae9:	mov    QWORD PTR [r13+0x0],0x0
    9af1:	mov    QWORD PTR [r13+0x1f8],0x0
    9afc:	and    rdi,0xfffffffffffffff8
    9b00:	sub    rcx,rdi
    9b03:	add    ecx,0x200
    9b09:	shr    ecx,0x3
    9b0c:	rep stos QWORD PTR es:[rdi],rax
    9b0f:	add    r13,0x200
    9b16:	cmp    r13,QWORD PTR [rsp]
    9b1a:	je     9c18 <bochs_read+0x1a8>
    9b20:	mov    r14,QWORD PTR [r12+0x40]
    9b25:	movsxd rbx,DWORD PTR [r14+0x20]
    9b29:	lea    rax,[r13+rbp*1+0x0]
    9b2e:	cqo    
    9b30:	idiv   rbx
    9b33:	mov    r9,rdx
    9b36:	mov    rdx,QWORD PTR [r14+0x8]
    9b3a:	mov    esi,DWORD PTR [rdx+rax*4]
    9b3d:	cmp    esi,0xffffffff
    9b40:	je     9ae0 <bochs_read+0x70>
    9b42:	mov    ebx,DWORD PTR [r14+0x18]
    9b46:	mov    r15d,DWORD PTR [r14+0x1c]
    9b4a:	mov    edi,DWORD PTR [r14]
    9b4d:	mov    QWORD PTR [rsp+0x8],r9
    9b52:	add    r15d,ebx
    9b55:	shl    r15d,0x9
    9b59:	imul   r15d,esi
    9b5d:	lea    rsi,[r9+0xfff]
    9b64:	add    r15d,DWORD PTR [r14+0x14]
